 ahuman

 Timestamp is 555799eb (Sat May 16 22:26:35 2015)

 Preferred load address is 00400000

 Start         Length     Name                   Class
 0001:00000000 000b77ebH .textbss                DATA
 0002:00000000 0014d998H .text                   CODE
 0002:0014d9a0 0002d8adH .text$x                 CODE
 0003:00000000 00000104H .CRT$XCA                DATA
 0003:00000104 00000104H .CRT$XCAA               DATA
 0003:00000208 00000104H .CRT$XCZ                DATA
 0003:0000030c 00000104H .CRT$XIA                DATA
 0003:00000410 00000104H .CRT$XIAA               DATA
 0003:00000514 00000104H .CRT$XIC                DATA
 0003:00000618 00000104H .CRT$XIY                DATA
 0003:0000071c 00000104H .CRT$XIZ                DATA
 0003:00000820 00011d9bH .rdata                  DATA
 0003:000125bc 0000016aH .rdata$debug            DATA
 0003:00012728 00004240H .rdata$r                DATA
 0003:00016968 00000104H .rtc$IAA                DATA
 0003:00016a6c 000004c0H .rtc$IMZ                DATA
 0003:00016f2c 00000104H .rtc$IZZ                DATA
 0003:00017030 00000104H .rtc$TAA                DATA
 0003:00017134 000004c0H .rtc$TMZ                DATA
 0003:000175f4 00000104H .rtc$TZZ                DATA
 0003:000176f8 0002491fH .xdata$x                DATA
 0003:0003c017 00000000H .edata                  DATA
 0004:00000000 00002303H .data                   DATA
 0004:00002308 000004e8H .bss                    DATA
 0005:00000000 00000050H .idata$2                DATA
 0005:00000050 00000014H .idata$3                DATA
 0005:00000064 00000508H .idata$4                DATA
 0005:0000056c 00000508H .idata$5                DATA
 0005:00000a74 000018bcH .idata$6                DATA
 0006:00000000 00000169H .rsrc$01                DATA
 0006:00000170 000002e9H .rsrc$02                DATA

  Address         Publics by Value              Rva+Base       Lib:Object

 0000:00000000       __except_list              00000000     <absolute>
 0000:00000000       ___safe_se_handler_count   00000000     <absolute>
 0000:00000000       ___safe_se_handler_table   00000000     <absolute>
 0000:00009876       __ldused                   00009876     <absolute>
 0000:00009876       __fltused                  00009876     <absolute>
 0000:00000000       ___ImageBase               00400000     <linker-defined>
 0001:00000000       __enc$textbss$begin        00401000     <linker-defined>
 0001:000b77eb       __enc$textbss$end          004b87eb     <linker-defined>
 0002:0000a700       ?createEndocrine@AHumanTarget@@AAEPAVMindEffector@@PAVEffectorArea@@@Z 004c3700 f   actuator-endocrine.obj
 0002:0000a7c0       ?getLinks@NeuroLinkTarget@@QAEAAV?$ClassList@VNeuroLink@@@@XZ 004c37c0 f i modelverifier_mind.obj
 0002:0000a7f0       ??0EffectorEndocrine@@QAE@PAVEffectorArea@@@Z 004c37f0 f   actuator-endocrine.obj
 0002:0000a8c0       ?getClass@EffectorEndocrine@@UAEPBDXZ 004c38c0 f i actuator-endocrine.obj
 0002:0000a900       ?startEffector@EffectorEndocrine@@UAEXXZ 004c3900 f i actuator-endocrine.obj
 0002:0000a940       ?stopEffector@EffectorEndocrine@@UAEXXZ 004c3940 f i actuator-endocrine.obj
 0002:0000a980       ?processEffectorControl@EffectorEndocrine@@UAEXPAVNeuroLink@@PAVNeuroSignal@@@Z 004c3980 f i actuator-endocrine.obj
 0002:0000a9c0       ??_GEffectorEndocrine@@UAEPAXI@Z 004c39c0 f i actuator-endocrine.obj
 0002:0000a9c0       ??_EEffectorEndocrine@@UAEPAXI@Z 004c39c0 f i actuator-endocrine.obj
 0002:0000aa30       ??1MindEffector@@UAE@XZ    004c3a30 f i actuator-endocrine.obj
 0002:0000aae0       ??1EffectorEndocrine@@UAE@XZ 004c3ae0 f   actuator-endocrine.obj
 0002:0000ab80       ?configureEffector@EffectorEndocrine@@UAEXVXml@@@Z 004c3b80 f   actuator-endocrine.obj
 0002:0000abd0       ?createEffector@EffectorEndocrine@@UAEXPAVMindRegionCreateInfo@@@Z 004c3bd0 f   actuator-endocrine.obj
 0002:0000acc0       ?createSourceConnector@EffectorEndocrine@@AAEXPAVMindRegionCreateInfo@@PAVMindRegionConnectorDef@@@Z 004c3cc0 f   actuator-endocrine.obj
 0002:0000ae10       ?createTargetConnector@EffectorEndocrine@@AAEXPAVMindRegionCreateInfo@@PAVMindRegionConnectorDef@@@Z 004c3e10 f   actuator-endocrine.obj
 0002:0000af60       ?sourceHandler@EffectorEndocrine@@AAEPAVNeuroSignal@@PAVNeuroLink@@PAVNeuroLinkSource@@@Z 004c3f60 f   actuator-endocrine.obj
 0002:0000afa0       ?targetHandler@EffectorEndocrine@@AAEPAVNeuroSignalSet@@PAVNeuroLink@@PAVNeuroLinkTarget@@PAVNeuroSignal@@@Z 004c3fa0 f   actuator-endocrine.obj
 0002:0000afe0       ?count@?$ClassList@VMindRegionConnectorDef@@@@QBEHXZ 004c3fe0 f i actuator-endocrine.obj
 0002:0000b040       ?get@?$ClassList@VMindRegionConnectorDef@@@@QBEPAVMindRegionConnectorDef@@H@Z 004c4040 f i actuator-endocrine.obj
 0002:0000b0a0       ?getConnectors@MindRegionTypeDef@@QAEAAV?$ClassList@VMindRegionConnectorDef@@@@XZ 004c40a0 f i actuator-endocrine.obj
 0002:0000b0e0       ?getType@MindRegionDef@@QAEPAVMindRegionTypeDef@@XZ 004c40e0 f i actuator-endocrine.obj
 0002:0000b120       ?getId@MindRegionConnectorDef@@QAE?AVString@@XZ 004c4120 f i actuator-endocrine.obj
 0002:0000b1e0       ?getEffectorInfo@MindEffector@@QAEPAVTargetRegionDef@@XZ 004c41e0 f i actuator-endocrine.obj
 0002:0000b220       ?createBreast@AHumanTarget@@AAEPAVMindEffector@@PAVEffectorArea@@@Z 004c4220 f   actuator_breast.obj
 0002:0000b310       ??0EffectorBreast@@QAE@PAVEffectorArea@@@Z 004c4310 f   actuator_breast.obj
 0002:0000b3e0       ?getClass@EffectorBreast@@UAEPBDXZ 004c43e0 f i actuator_breast.obj
 0002:0000b420       ?startEffector@EffectorBreast@@UAEXXZ 004c4420 f i actuator_breast.obj
 0002:0000b460       ?stopEffector@EffectorBreast@@UAEXXZ 004c4460 f i actuator_breast.obj
 0002:0000b4a0       ?processEffectorControl@EffectorBreast@@UAEXPAVNeuroLink@@PAVNeuroSignal@@@Z 004c44a0 f i actuator_breast.obj
 0002:0000b4e0       ??_EEffectorBreast@@UAEPAXI@Z 004c44e0 f i actuator_breast.obj
 0002:0000b4e0       ??_GEffectorBreast@@UAEPAXI@Z 004c44e0 f i actuator_breast.obj
 0002:0000b550       ??1EffectorBreast@@UAE@XZ  004c4550 f   actuator_breast.obj
 0002:0000b5f0       ?configureEffector@EffectorBreast@@UAEXVXml@@@Z 004c45f0 f   actuator_breast.obj
 0002:0000b640       ?createEffector@EffectorBreast@@UAEXPAVMindRegionCreateInfo@@@Z 004c4640 f   actuator_breast.obj
 0002:0000b730       ?createSourceConnector@EffectorBreast@@AAEXPAVMindRegionCreateInfo@@PAVMindRegionConnectorDef@@@Z 004c4730 f   actuator_breast.obj
 0002:0000b880       ?createTargetConnector@EffectorBreast@@AAEXPAVMindRegionCreateInfo@@PAVMindRegionConnectorDef@@@Z 004c4880 f   actuator_breast.obj
 0002:0000b9d0       ?sourceHandler@EffectorBreast@@AAEPAVNeuroSignal@@PAVNeuroLink@@PAVNeuroLinkSource@@@Z 004c49d0 f   actuator_breast.obj
 0002:0000ba10       ?targetHandler@EffectorBreast@@AAEPAVNeuroSignalSet@@PAVNeuroLink@@PAVNeuroLinkTarget@@PAVNeuroSignal@@@Z 004c4a10 f   actuator_breast.obj
 0002:0000ba50       ?createEar@AHumanTarget@@AAEPAVMindSensor@@PAVSensorArea@@@Z 004c4a50 f   actuator_ear.obj
 0002:0000bb40       ??0SensorEar@@QAE@PAVSensorArea@@@Z 004c4b40 f   actuator_ear.obj
 0002:0000bc20       ?getClass@SensorEar@@UAEPBDXZ 004c4c20 f i actuator_ear.obj
 0002:0000bc60       ?startSensor@SensorEar@@UAEXXZ 004c4c60 f i actuator_ear.obj
 0002:0000bca0       ?stopSensor@SensorEar@@UAEXXZ 004c4ca0 f i actuator_ear.obj
 0002:0000bce0       ?processSensorControl@SensorEar@@UAEXPAVNeuroLink@@PAVNeuroSignal@@@Z 004c4ce0 f i actuator_ear.obj
 0002:0000bd20       ?produceSensorData@SensorEar@@UAEXXZ 004c4d20 f i actuator_ear.obj
 0002:0000bd60       ?pollSensor@SensorEar@@UAEXXZ 004c4d60 f i actuator_ear.obj
 0002:0000bda0       ??_GSensorEar@@UAEPAXI@Z   004c4da0 f i actuator_ear.obj
 0002:0000bda0       ??_ESensorEar@@UAEPAXI@Z   004c4da0 f i actuator_ear.obj
 0002:0000be10       ??1MindSensor@@UAE@XZ      004c4e10 f i actuator_ear.obj
 0002:0000bec0       ??1SensorEar@@UAE@XZ       004c4ec0 f   actuator_ear.obj
 0002:0000bf60       ?configureSensor@SensorEar@@UAEXVXml@@@Z 004c4f60 f   actuator_ear.obj
 0002:0000bfb0       ?createSensor@SensorEar@@UAEXPAVMindRegionCreateInfo@@@Z 004c4fb0 f   actuator_ear.obj
 0002:0000c0a0       ?createSourceConnector@SensorEar@@AAEXPAVMindRegionCreateInfo@@PAVMindRegionConnectorDef@@@Z 004c50a0 f   actuator_ear.obj
 0002:0000c1f0       ?createTargetConnector@SensorEar@@AAEXPAVMindRegionCreateInfo@@PAVMindRegionConnectorDef@@@Z 004c51f0 f   actuator_ear.obj
 0002:0000c340       ?sourceHandler@SensorEar@@AAEPAVNeuroSignal@@PAVNeuroLink@@PAVNeuroLinkSource@@@Z 004c5340 f   actuator_ear.obj
 0002:0000c380       ?targetHandler@SensorEar@@AAEPAVNeuroSignalSet@@PAVNeuroLink@@PAVNeuroLinkTarget@@PAVNeuroSignal@@@Z 004c5380 f   actuator_ear.obj
 0002:0000c3c0       ?getSensorInfo@MindSensor@@QAEPAVTargetRegionDef@@XZ 004c53c0 f i actuator_ear.obj
 0002:0000c400       ?createEye@AHumanTarget@@AAEPAVMindSensor@@PAVSensorArea@@@Z 004c5400 f   actuator_eye.obj
 0002:0000c4f0       ??0SensorEye@@QAE@PAVSensorArea@@@Z 004c54f0 f   actuator_eye.obj
 0002:0000c5d0       ?getClass@SensorEye@@UAEPBDXZ 004c55d0 f i actuator_eye.obj
 0002:0000c610       ?startSensor@SensorEye@@UAEXXZ 004c5610 f i actuator_eye.obj
 0002:0000c650       ?stopSensor@SensorEye@@UAEXXZ 004c5650 f i actuator_eye.obj
 0002:0000c690       ?processSensorControl@SensorEye@@UAEXPAVNeuroLink@@PAVNeuroSignal@@@Z 004c5690 f i actuator_eye.obj
 0002:0000c6d0       ?produceSensorData@SensorEye@@UAEXXZ 004c56d0 f i actuator_eye.obj
 0002:0000c710       ?pollSensor@SensorEye@@UAEXXZ 004c5710 f i actuator_eye.obj
 0002:0000c750       ??_ESensorEye@@UAEPAXI@Z   004c5750 f i actuator_eye.obj
 0002:0000c750       ??_GSensorEye@@UAEPAXI@Z   004c5750 f i actuator_eye.obj
 0002:0000c7c0       ??1SensorEye@@UAE@XZ       004c57c0 f   actuator_eye.obj
 0002:0000c860       ?configureSensor@SensorEye@@UAEXVXml@@@Z 004c5860 f   actuator_eye.obj
 0002:0000c8b0       ?createSensor@SensorEye@@UAEXPAVMindRegionCreateInfo@@@Z 004c58b0 f   actuator_eye.obj
 0002:0000c9a0       ?createSourceConnector@SensorEye@@AAEXPAVMindRegionCreateInfo@@PAVMindRegionConnectorDef@@@Z 004c59a0 f   actuator_eye.obj
 0002:0000caf0       ?createTargetConnector@SensorEye@@AAEXPAVMindRegionCreateInfo@@PAVMindRegionConnectorDef@@@Z 004c5af0 f   actuator_eye.obj
 0002:0000cc40       ?sourceHandler@SensorEye@@AAEPAVNeuroSignal@@PAVNeuroLink@@PAVNeuroLinkSource@@@Z 004c5c40 f   actuator_eye.obj
 0002:0000cc80       ?targetHandler@SensorEye@@AAEPAVNeuroSignalSet@@PAVNeuroLink@@PAVNeuroLinkTarget@@PAVNeuroSignal@@@Z 004c5c80 f   actuator_eye.obj
 0002:0000ccc0       ?createFace@AHumanTarget@@AAEPAVMindEffector@@PAVEffectorArea@@@Z 004c5cc0 f   actuator_face.obj
 0002:0000cdb0       ??0EffectorFace@@QAE@PAVEffectorArea@@@Z 004c5db0 f   actuator_face.obj
 0002:0000ce80       ?getClass@EffectorFace@@UAEPBDXZ 004c5e80 f i actuator_face.obj
 0002:0000cec0       ?startEffector@EffectorFace@@UAEXXZ 004c5ec0 f i actuator_face.obj
 0002:0000cf00       ?stopEffector@EffectorFace@@UAEXXZ 004c5f00 f i actuator_face.obj
 0002:0000cf40       ?processEffectorControl@EffectorFace@@UAEXPAVNeuroLink@@PAVNeuroSignal@@@Z 004c5f40 f i actuator_face.obj
 0002:0000cf80       ??_EEffectorFace@@UAEPAXI@Z 004c5f80 f i actuator_face.obj
 0002:0000cf80       ??_GEffectorFace@@UAEPAXI@Z 004c5f80 f i actuator_face.obj
 0002:0000cff0       ??1EffectorFace@@UAE@XZ    004c5ff0 f   actuator_face.obj
 0002:0000d090       ?configureEffector@EffectorFace@@UAEXVXml@@@Z 004c6090 f   actuator_face.obj
 0002:0000d0e0       ?createEffector@EffectorFace@@UAEXPAVMindRegionCreateInfo@@@Z 004c60e0 f   actuator_face.obj
 0002:0000d1d0       ?createSourceConnector@EffectorFace@@AAEXPAVMindRegionCreateInfo@@PAVMindRegionConnectorDef@@@Z 004c61d0 f   actuator_face.obj
 0002:0000d320       ?createTargetConnector@EffectorFace@@AAEXPAVMindRegionCreateInfo@@PAVMindRegionConnectorDef@@@Z 004c6320 f   actuator_face.obj
 0002:0000d470       ?sourceHandler@EffectorFace@@AAEPAVNeuroSignal@@PAVNeuroLink@@PAVNeuroLinkSource@@@Z 004c6470 f   actuator_face.obj
 0002:0000d4b0       ?targetHandler@EffectorFace@@AAEPAVNeuroSignalSet@@PAVNeuroLink@@PAVNeuroLinkTarget@@PAVNeuroSignal@@@Z 004c64b0 f   actuator_face.obj
 0002:0000d4f0       ?createFeeder@AHumanTarget@@AAEPAVMindEffector@@PAVEffectorArea@@@Z 004c64f0 f   actuator_feeder.obj
 0002:0000d5e0       ??0EffectorFeeder@@QAE@PAVEffectorArea@@@Z 004c65e0 f   actuator_feeder.obj
 0002:0000d6b0       ?getClass@EffectorFeeder@@UAEPBDXZ 004c66b0 f i actuator_feeder.obj
 0002:0000d6f0       ?startEffector@EffectorFeeder@@UAEXXZ 004c66f0 f i actuator_feeder.obj
 0002:0000d730       ?stopEffector@EffectorFeeder@@UAEXXZ 004c6730 f i actuator_feeder.obj
 0002:0000d770       ?processEffectorControl@EffectorFeeder@@UAEXPAVNeuroLink@@PAVNeuroSignal@@@Z 004c6770 f i actuator_feeder.obj
 0002:0000d7b0       ??_EEffectorFeeder@@UAEPAXI@Z 004c67b0 f i actuator_feeder.obj
 0002:0000d7b0       ??_GEffectorFeeder@@UAEPAXI@Z 004c67b0 f i actuator_feeder.obj
 0002:0000d820       ??1EffectorFeeder@@UAE@XZ  004c6820 f   actuator_feeder.obj
 0002:0000d8c0       ?configureEffector@EffectorFeeder@@UAEXVXml@@@Z 004c68c0 f   actuator_feeder.obj
 0002:0000d910       ?createEffector@EffectorFeeder@@UAEXPAVMindRegionCreateInfo@@@Z 004c6910 f   actuator_feeder.obj
 0002:0000da00       ?createSourceConnector@EffectorFeeder@@AAEXPAVMindRegionCreateInfo@@PAVMindRegionConnectorDef@@@Z 004c6a00 f   actuator_feeder.obj
 0002:0000db50       ?createTargetConnector@EffectorFeeder@@AAEXPAVMindRegionCreateInfo@@PAVMindRegionConnectorDef@@@Z 004c6b50 f   actuator_feeder.obj
 0002:0000dca0       ?sourceHandler@EffectorFeeder@@AAEPAVNeuroSignal@@PAVNeuroLink@@PAVNeuroLinkSource@@@Z 004c6ca0 f   actuator_feeder.obj
 0002:0000dce0       ?targetHandler@EffectorFeeder@@AAEPAVNeuroSignalSet@@PAVNeuroLink@@PAVNeuroLinkTarget@@PAVNeuroSignal@@@Z 004c6ce0 f   actuator_feeder.obj
 0002:0000dd20       ?createGenitalia@AHumanTarget@@AAEPAVMindEffector@@PAVEffectorArea@@@Z 004c6d20 f   actuator_genitalia.obj
 0002:0000de10       ??0EffectorGenitalia@@QAE@PAVEffectorArea@@@Z 004c6e10 f   actuator_genitalia.obj
 0002:0000dee0       ?getClass@EffectorGenitalia@@UAEPBDXZ 004c6ee0 f i actuator_genitalia.obj
 0002:0000df20       ?startEffector@EffectorGenitalia@@UAEXXZ 004c6f20 f i actuator_genitalia.obj
 0002:0000df60       ?stopEffector@EffectorGenitalia@@UAEXXZ 004c6f60 f i actuator_genitalia.obj
 0002:0000dfa0       ?processEffectorControl@EffectorGenitalia@@UAEXPAVNeuroLink@@PAVNeuroSignal@@@Z 004c6fa0 f i actuator_genitalia.obj
 0002:0000dfe0       ??_GEffectorGenitalia@@UAEPAXI@Z 004c6fe0 f i actuator_genitalia.obj
 0002:0000dfe0       ??_EEffectorGenitalia@@UAEPAXI@Z 004c6fe0 f i actuator_genitalia.obj
 0002:0000e050       ??1EffectorGenitalia@@UAE@XZ 004c7050 f   actuator_genitalia.obj
 0002:0000e0f0       ?configureEffector@EffectorGenitalia@@UAEXVXml@@@Z 004c70f0 f   actuator_genitalia.obj
 0002:0000e140       ?createEffector@EffectorGenitalia@@UAEXPAVMindRegionCreateInfo@@@Z 004c7140 f   actuator_genitalia.obj
 0002:0000e230       ?createSourceConnector@EffectorGenitalia@@AAEXPAVMindRegionCreateInfo@@PAVMindRegionConnectorDef@@@Z 004c7230 f   actuator_genitalia.obj
 0002:0000e380       ?createTargetConnector@EffectorGenitalia@@AAEXPAVMindRegionCreateInfo@@PAVMindRegionConnectorDef@@@Z 004c7380 f   actuator_genitalia.obj
 0002:0000e4d0       ?sourceHandler@EffectorGenitalia@@AAEPAVNeuroSignal@@PAVNeuroLink@@PAVNeuroLinkSource@@@Z 004c74d0 f   actuator_genitalia.obj
 0002:0000e510       ?targetHandler@EffectorGenitalia@@AAEPAVNeuroSignalSet@@PAVNeuroLink@@PAVNeuroLinkTarget@@PAVNeuroSignal@@@Z 004c7510 f   actuator_genitalia.obj
 0002:0000e550       ?createHand@AHumanTarget@@AAEPAVMindEffector@@PAVEffectorArea@@@Z 004c7550 f   actuator_hand.obj
 0002:0000e640       ??0EffectorHand@@QAE@PAVEffectorArea@@@Z 004c7640 f   actuator_hand.obj
 0002:0000e710       ?getClass@EffectorHand@@UAEPBDXZ 004c7710 f i actuator_hand.obj
 0002:0000e750       ?startEffector@EffectorHand@@UAEXXZ 004c7750 f i actuator_hand.obj
 0002:0000e790       ?stopEffector@EffectorHand@@UAEXXZ 004c7790 f i actuator_hand.obj
 0002:0000e7d0       ?processEffectorControl@EffectorHand@@UAEXPAVNeuroLink@@PAVNeuroSignal@@@Z 004c77d0 f i actuator_hand.obj
 0002:0000e810       ??_EEffectorHand@@UAEPAXI@Z 004c7810 f i actuator_hand.obj
 0002:0000e810       ??_GEffectorHand@@UAEPAXI@Z 004c7810 f i actuator_hand.obj
 0002:0000e880       ??1EffectorHand@@UAE@XZ    004c7880 f   actuator_hand.obj
 0002:0000e920       ?configureEffector@EffectorHand@@UAEXVXml@@@Z 004c7920 f   actuator_hand.obj
 0002:0000e970       ?createEffector@EffectorHand@@UAEXPAVMindRegionCreateInfo@@@Z 004c7970 f   actuator_hand.obj
 0002:0000ea60       ?createSourceConnector@EffectorHand@@AAEXPAVMindRegionCreateInfo@@PAVMindRegionConnectorDef@@@Z 004c7a60 f   actuator_hand.obj
 0002:0000ebb0       ?createTargetConnector@EffectorHand@@AAEXPAVMindRegionCreateInfo@@PAVMindRegionConnectorDef@@@Z 004c7bb0 f   actuator_hand.obj
 0002:0000ed00       ?sourceHandler@EffectorHand@@AAEPAVNeuroSignal@@PAVNeuroLink@@PAVNeuroLinkSource@@@Z 004c7d00 f   actuator_hand.obj
 0002:0000ed40       ?targetHandler@EffectorHand@@AAEPAVNeuroSignalSet@@PAVNeuroLink@@PAVNeuroLinkTarget@@PAVNeuroSignal@@@Z 004c7d40 f   actuator_hand.obj
 0002:0000ed80       ?createHeart@AHumanTarget@@AAEPAVMindEffector@@PAVEffectorArea@@@Z 004c7d80 f   actuator_heart.obj
 0002:0000ee70       ??0EffectorHeart@@QAE@PAVEffectorArea@@@Z 004c7e70 f   actuator_heart.obj
 0002:0000ef40       ?getClass@EffectorHeart@@UAEPBDXZ 004c7f40 f i actuator_heart.obj
 0002:0000ef80       ?startEffector@EffectorHeart@@UAEXXZ 004c7f80 f i actuator_heart.obj
 0002:0000efc0       ?stopEffector@EffectorHeart@@UAEXXZ 004c7fc0 f i actuator_heart.obj
 0002:0000f000       ?processEffectorControl@EffectorHeart@@UAEXPAVNeuroLink@@PAVNeuroSignal@@@Z 004c8000 f i actuator_heart.obj
 0002:0000f040       ??_GEffectorHeart@@UAEPAXI@Z 004c8040 f i actuator_heart.obj
 0002:0000f040       ??_EEffectorHeart@@UAEPAXI@Z 004c8040 f i actuator_heart.obj
 0002:0000f0b0       ??1EffectorHeart@@UAE@XZ   004c80b0 f   actuator_heart.obj
 0002:0000f150       ?configureEffector@EffectorHeart@@UAEXVXml@@@Z 004c8150 f   actuator_heart.obj
 0002:0000f1a0       ?createEffector@EffectorHeart@@UAEXPAVMindRegionCreateInfo@@@Z 004c81a0 f   actuator_heart.obj
 0002:0000f290       ?createSourceConnector@EffectorHeart@@AAEXPAVMindRegionCreateInfo@@PAVMindRegionConnectorDef@@@Z 004c8290 f   actuator_heart.obj
 0002:0000f3e0       ?createTargetConnector@EffectorHeart@@AAEXPAVMindRegionCreateInfo@@PAVMindRegionConnectorDef@@@Z 004c83e0 f   actuator_heart.obj
 0002:0000f530       ?sourceHandler@EffectorHeart@@AAEPAVNeuroSignal@@PAVNeuroLink@@PAVNeuroLinkSource@@@Z 004c8530 f   actuator_heart.obj
 0002:0000f570       ?targetHandler@EffectorHeart@@AAEPAVNeuroSignalSet@@PAVNeuroLink@@PAVNeuroLinkTarget@@PAVNeuroSignal@@@Z 004c8570 f   actuator_heart.obj
 0002:0000f5b0       ?createProtector@AHumanTarget@@AAEPAVMindEffector@@PAVEffectorArea@@@Z 004c85b0 f   actuator_protector.obj
 0002:0000f6a0       ??0EffectorProtector@@QAE@PAVEffectorArea@@@Z 004c86a0 f   actuator_protector.obj
 0002:0000f770       ?getClass@EffectorProtector@@UAEPBDXZ 004c8770 f i actuator_protector.obj
 0002:0000f7b0       ?startEffector@EffectorProtector@@UAEXXZ 004c87b0 f i actuator_protector.obj
 0002:0000f7f0       ?stopEffector@EffectorProtector@@UAEXXZ 004c87f0 f i actuator_protector.obj
 0002:0000f830       ?processEffectorControl@EffectorProtector@@UAEXPAVNeuroLink@@PAVNeuroSignal@@@Z 004c8830 f i actuator_protector.obj
 0002:0000f870       ??_GEffectorProtector@@UAEPAXI@Z 004c8870 f i actuator_protector.obj
 0002:0000f870       ??_EEffectorProtector@@UAEPAXI@Z 004c8870 f i actuator_protector.obj
 0002:0000f8e0       ??1EffectorProtector@@UAE@XZ 004c88e0 f   actuator_protector.obj
 0002:0000f980       ?configureEffector@EffectorProtector@@UAEXVXml@@@Z 004c8980 f   actuator_protector.obj
 0002:0000f9d0       ?createEffector@EffectorProtector@@UAEXPAVMindRegionCreateInfo@@@Z 004c89d0 f   actuator_protector.obj
 0002:0000fac0       ?createSourceConnector@EffectorProtector@@AAEXPAVMindRegionCreateInfo@@PAVMindRegionConnectorDef@@@Z 004c8ac0 f   actuator_protector.obj
 0002:0000fc10       ?createTargetConnector@EffectorProtector@@AAEXPAVMindRegionCreateInfo@@PAVMindRegionConnectorDef@@@Z 004c8c10 f   actuator_protector.obj
 0002:0000fd60       ?sourceHandler@EffectorProtector@@AAEPAVNeuroSignal@@PAVNeuroLink@@PAVNeuroLinkSource@@@Z 004c8d60 f   actuator_protector.obj
 0002:0000fda0       ?targetHandler@EffectorProtector@@AAEPAVNeuroSignalSet@@PAVNeuroLink@@PAVNeuroLinkTarget@@PAVNeuroSignal@@@Z 004c8da0 f   actuator_protector.obj
 0002:0000fde0       ?createLeg@AHumanTarget@@AAEPAVMindEffector@@PAVEffectorArea@@@Z 004c8de0 f   actuator_leg.obj
 0002:0000fed0       ??0EffectorLeg@@QAE@PAVEffectorArea@@@Z 004c8ed0 f   actuator_leg.obj
 0002:0000ffa0       ?getClass@EffectorLeg@@UAEPBDXZ 004c8fa0 f i actuator_leg.obj
 0002:0000ffe0       ?startEffector@EffectorLeg@@UAEXXZ 004c8fe0 f i actuator_leg.obj
 0002:00010020       ?stopEffector@EffectorLeg@@UAEXXZ 004c9020 f i actuator_leg.obj
 0002:00010060       ?processEffectorControl@EffectorLeg@@UAEXPAVNeuroLink@@PAVNeuroSignal@@@Z 004c9060 f i actuator_leg.obj
 0002:000100a0       ??_GEffectorLeg@@UAEPAXI@Z 004c90a0 f i actuator_leg.obj
 0002:000100a0       ??_EEffectorLeg@@UAEPAXI@Z 004c90a0 f i actuator_leg.obj
 0002:00010110       ??1EffectorLeg@@UAE@XZ     004c9110 f   actuator_leg.obj
 0002:000101b0       ?configureEffector@EffectorLeg@@UAEXVXml@@@Z 004c91b0 f   actuator_leg.obj
 0002:00010200       ?createEffector@EffectorLeg@@UAEXPAVMindRegionCreateInfo@@@Z 004c9200 f   actuator_leg.obj
 0002:000102f0       ?createSourceConnector@EffectorLeg@@AAEXPAVMindRegionCreateInfo@@PAVMindRegionConnectorDef@@@Z 004c92f0 f   actuator_leg.obj
 0002:00010440       ?createTargetConnector@EffectorLeg@@AAEXPAVMindRegionCreateInfo@@PAVMindRegionConnectorDef@@@Z 004c9440 f   actuator_leg.obj
 0002:00010590       ?sourceHandler@EffectorLeg@@AAEPAVNeuroSignal@@PAVNeuroLink@@PAVNeuroLinkSource@@@Z 004c9590 f   actuator_leg.obj
 0002:000105d0       ?targetHandler@EffectorLeg@@AAEPAVNeuroSignalSet@@PAVNeuroLink@@PAVNeuroLinkTarget@@PAVNeuroSignal@@@Z 004c95d0 f   actuator_leg.obj
 0002:00010610       ?createLiver@AHumanTarget@@AAEPAVMindEffector@@PAVEffectorArea@@@Z 004c9610 f   actuator_liver.obj
 0002:00010700       ??0EffectorLiver@@QAE@PAVEffectorArea@@@Z 004c9700 f   actuator_liver.obj
 0002:000107d0       ?getClass@EffectorLiver@@UAEPBDXZ 004c97d0 f i actuator_liver.obj
 0002:00010810       ?startEffector@EffectorLiver@@UAEXXZ 004c9810 f i actuator_liver.obj
 0002:00010850       ?stopEffector@EffectorLiver@@UAEXXZ 004c9850 f i actuator_liver.obj
 0002:00010890       ?processEffectorControl@EffectorLiver@@UAEXPAVNeuroLink@@PAVNeuroSignal@@@Z 004c9890 f i actuator_liver.obj
 0002:000108d0       ??_GEffectorLiver@@UAEPAXI@Z 004c98d0 f i actuator_liver.obj
 0002:000108d0       ??_EEffectorLiver@@UAEPAXI@Z 004c98d0 f i actuator_liver.obj
 0002:00010940       ??1EffectorLiver@@UAE@XZ   004c9940 f   actuator_liver.obj
 0002:000109e0       ?configureEffector@EffectorLiver@@UAEXVXml@@@Z 004c99e0 f   actuator_liver.obj
 0002:00010a30       ?createEffector@EffectorLiver@@UAEXPAVMindRegionCreateInfo@@@Z 004c9a30 f   actuator_liver.obj
 0002:00010b20       ?createSourceConnector@EffectorLiver@@AAEXPAVMindRegionCreateInfo@@PAVMindRegionConnectorDef@@@Z 004c9b20 f   actuator_liver.obj
 0002:00010c70       ?createTargetConnector@EffectorLiver@@AAEXPAVMindRegionCreateInfo@@PAVMindRegionConnectorDef@@@Z 004c9c70 f   actuator_liver.obj
 0002:00010dc0       ?sourceHandler@EffectorLiver@@AAEPAVNeuroSignal@@PAVNeuroLink@@PAVNeuroLinkSource@@@Z 004c9dc0 f   actuator_liver.obj
 0002:00010e00       ?targetHandler@EffectorLiver@@AAEPAVNeuroSignalSet@@PAVNeuroLink@@PAVNeuroLinkTarget@@PAVNeuroSignal@@@Z 004c9e00 f   actuator_liver.obj
 0002:00010e40       ?createLung@AHumanTarget@@AAEPAVMindEffector@@PAVEffectorArea@@@Z 004c9e40 f   actuator_lung.obj
 0002:00010f30       ??0EffectorLung@@QAE@PAVEffectorArea@@@Z 004c9f30 f   actuator_lung.obj
 0002:00011000       ?getClass@EffectorLung@@UAEPBDXZ 004ca000 f i actuator_lung.obj
 0002:00011040       ?startEffector@EffectorLung@@UAEXXZ 004ca040 f i actuator_lung.obj
 0002:00011080       ?stopEffector@EffectorLung@@UAEXXZ 004ca080 f i actuator_lung.obj
 0002:000110c0       ?processEffectorControl@EffectorLung@@UAEXPAVNeuroLink@@PAVNeuroSignal@@@Z 004ca0c0 f i actuator_lung.obj
 0002:00011100       ??_GEffectorLung@@UAEPAXI@Z 004ca100 f i actuator_lung.obj
 0002:00011100       ??_EEffectorLung@@UAEPAXI@Z 004ca100 f i actuator_lung.obj
 0002:00011170       ??1EffectorLung@@UAE@XZ    004ca170 f   actuator_lung.obj
 0002:00011210       ?configureEffector@EffectorLung@@UAEXVXml@@@Z 004ca210 f   actuator_lung.obj
 0002:00011260       ?createEffector@EffectorLung@@UAEXPAVMindRegionCreateInfo@@@Z 004ca260 f   actuator_lung.obj
 0002:00011350       ?createSourceConnector@EffectorLung@@AAEXPAVMindRegionCreateInfo@@PAVMindRegionConnectorDef@@@Z 004ca350 f   actuator_lung.obj
 0002:000114a0       ?createTargetConnector@EffectorLung@@AAEXPAVMindRegionCreateInfo@@PAVMindRegionConnectorDef@@@Z 004ca4a0 f   actuator_lung.obj
 0002:000115f0       ?sourceHandler@EffectorLung@@AAEPAVNeuroSignal@@PAVNeuroLink@@PAVNeuroLinkSource@@@Z 004ca5f0 f   actuator_lung.obj
 0002:00011630       ?targetHandler@EffectorLung@@AAEPAVNeuroSignalSet@@PAVNeuroLink@@PAVNeuroLinkTarget@@PAVNeuroSignal@@@Z 004ca630 f   actuator_lung.obj
 0002:00011670       ?createNeck@AHumanTarget@@AAEPAVMindEffector@@PAVEffectorArea@@@Z 004ca670 f   actuator_neck.obj
 0002:00011760       ??0EffectorNeck@@QAE@PAVEffectorArea@@@Z 004ca760 f   actuator_neck.obj
 0002:00011830       ?getClass@EffectorNeck@@UAEPBDXZ 004ca830 f i actuator_neck.obj
 0002:00011870       ?startEffector@EffectorNeck@@UAEXXZ 004ca870 f i actuator_neck.obj
 0002:000118b0       ?stopEffector@EffectorNeck@@UAEXXZ 004ca8b0 f i actuator_neck.obj
 0002:000118f0       ?processEffectorControl@EffectorNeck@@UAEXPAVNeuroLink@@PAVNeuroSignal@@@Z 004ca8f0 f i actuator_neck.obj
 0002:00011930       ??_GEffectorNeck@@UAEPAXI@Z 004ca930 f i actuator_neck.obj
 0002:00011930       ??_EEffectorNeck@@UAEPAXI@Z 004ca930 f i actuator_neck.obj
 0002:000119a0       ??1EffectorNeck@@UAE@XZ    004ca9a0 f   actuator_neck.obj
 0002:00011a40       ?configureEffector@EffectorNeck@@UAEXVXml@@@Z 004caa40 f   actuator_neck.obj
 0002:00011a90       ?createEffector@EffectorNeck@@UAEXPAVMindRegionCreateInfo@@@Z 004caa90 f   actuator_neck.obj
 0002:00011b80       ?createSourceConnector@EffectorNeck@@AAEXPAVMindRegionCreateInfo@@PAVMindRegionConnectorDef@@@Z 004cab80 f   actuator_neck.obj
 0002:00011cd0       ?createTargetConnector@EffectorNeck@@AAEXPAVMindRegionCreateInfo@@PAVMindRegionConnectorDef@@@Z 004cacd0 f   actuator_neck.obj
 0002:00011e20       ?sourceHandler@EffectorNeck@@AAEPAVNeuroSignal@@PAVNeuroLink@@PAVNeuroLinkSource@@@Z 004cae20 f   actuator_neck.obj
 0002:00011e60       ?targetHandler@EffectorNeck@@AAEPAVNeuroSignalSet@@PAVNeuroLink@@PAVNeuroLinkTarget@@PAVNeuroSignal@@@Z 004cae60 f   actuator_neck.obj
 0002:00011ea0       ?createNose@AHumanTarget@@AAEPAVMindSensor@@PAVSensorArea@@@Z 004caea0 f   actuator_nose.obj
 0002:00011f90       ??0SensorNose@@QAE@PAVSensorArea@@@Z 004caf90 f   actuator_nose.obj
 0002:00012070       ?getClass@SensorNose@@UAEPBDXZ 004cb070 f i actuator_nose.obj
 0002:000120b0       ?startSensor@SensorNose@@UAEXXZ 004cb0b0 f i actuator_nose.obj
 0002:000120f0       ?stopSensor@SensorNose@@UAEXXZ 004cb0f0 f i actuator_nose.obj
 0002:00012130       ?processSensorControl@SensorNose@@UAEXPAVNeuroLink@@PAVNeuroSignal@@@Z 004cb130 f i actuator_nose.obj
 0002:00012170       ?produceSensorData@SensorNose@@UAEXXZ 004cb170 f i actuator_nose.obj
 0002:000121b0       ?pollSensor@SensorNose@@UAEXXZ 004cb1b0 f i actuator_nose.obj
 0002:000121f0       ??_ESensorNose@@UAEPAXI@Z  004cb1f0 f i actuator_nose.obj
 0002:000121f0       ??_GSensorNose@@UAEPAXI@Z  004cb1f0 f i actuator_nose.obj
 0002:00012260       ??1SensorNose@@UAE@XZ      004cb260 f   actuator_nose.obj
 0002:00012300       ?configureSensor@SensorNose@@UAEXVXml@@@Z 004cb300 f   actuator_nose.obj
 0002:00012350       ?createSensor@SensorNose@@UAEXPAVMindRegionCreateInfo@@@Z 004cb350 f   actuator_nose.obj
 0002:00012440       ?createSourceConnector@SensorNose@@AAEXPAVMindRegionCreateInfo@@PAVMindRegionConnectorDef@@@Z 004cb440 f   actuator_nose.obj
 0002:00012590       ?createTargetConnector@SensorNose@@AAEXPAVMindRegionCreateInfo@@PAVMindRegionConnectorDef@@@Z 004cb590 f   actuator_nose.obj
 0002:000126e0       ?sourceHandler@SensorNose@@AAEPAVNeuroSignal@@PAVNeuroLink@@PAVNeuroLinkSource@@@Z 004cb6e0 f   actuator_nose.obj
 0002:00012720       ?targetHandler@SensorNose@@AAEPAVNeuroSignalSet@@PAVNeuroLink@@PAVNeuroLinkTarget@@PAVNeuroSignal@@@Z 004cb720 f   actuator_nose.obj
 0002:00012760       ?createRectum@AHumanTarget@@AAEPAVMindEffector@@PAVEffectorArea@@@Z 004cb760 f   actuator_rectum.obj
 0002:00012850       ??0EffectorRectum@@QAE@PAVEffectorArea@@@Z 004cb850 f   actuator_rectum.obj
 0002:00012920       ?getClass@EffectorRectum@@UAEPBDXZ 004cb920 f i actuator_rectum.obj
 0002:00012960       ?startEffector@EffectorRectum@@UAEXXZ 004cb960 f i actuator_rectum.obj
 0002:000129a0       ?stopEffector@EffectorRectum@@UAEXXZ 004cb9a0 f i actuator_rectum.obj
 0002:000129e0       ?processEffectorControl@EffectorRectum@@UAEXPAVNeuroLink@@PAVNeuroSignal@@@Z 004cb9e0 f i actuator_rectum.obj
 0002:00012a20       ??_EEffectorRectum@@UAEPAXI@Z 004cba20 f i actuator_rectum.obj
 0002:00012a20       ??_GEffectorRectum@@UAEPAXI@Z 004cba20 f i actuator_rectum.obj
 0002:00012a90       ??1EffectorRectum@@UAE@XZ  004cba90 f   actuator_rectum.obj
 0002:00012b30       ?configureEffector@EffectorRectum@@UAEXVXml@@@Z 004cbb30 f   actuator_rectum.obj
 0002:00012b80       ?createEffector@EffectorRectum@@UAEXPAVMindRegionCreateInfo@@@Z 004cbb80 f   actuator_rectum.obj
 0002:00012c70       ?createSourceConnector@EffectorRectum@@AAEXPAVMindRegionCreateInfo@@PAVMindRegionConnectorDef@@@Z 004cbc70 f   actuator_rectum.obj
 0002:00012dc0       ?createTargetConnector@EffectorRectum@@AAEXPAVMindRegionCreateInfo@@PAVMindRegionConnectorDef@@@Z 004cbdc0 f   actuator_rectum.obj
 0002:00012f10       ?sourceHandler@EffectorRectum@@AAEPAVNeuroSignal@@PAVNeuroLink@@PAVNeuroLinkSource@@@Z 004cbf10 f   actuator_rectum.obj
 0002:00012f50       ?targetHandler@EffectorRectum@@AAEPAVNeuroSignalSet@@PAVNeuroLink@@PAVNeuroLinkTarget@@PAVNeuroSignal@@@Z 004cbf50 f   actuator_rectum.obj
 0002:00012f90       ?createSpeaker@AHumanTarget@@AAEPAVMindEffector@@PAVEffectorArea@@@Z 004cbf90 f   actuator_speaker.obj
 0002:00013080       ??0EffectorSpeaker@@QAE@PAVEffectorArea@@@Z 004cc080 f   actuator_speaker.obj
 0002:00013150       ?getClass@EffectorSpeaker@@UAEPBDXZ 004cc150 f i actuator_speaker.obj
 0002:00013190       ?startEffector@EffectorSpeaker@@UAEXXZ 004cc190 f i actuator_speaker.obj
 0002:000131d0       ?stopEffector@EffectorSpeaker@@UAEXXZ 004cc1d0 f i actuator_speaker.obj
 0002:00013210       ?processEffectorControl@EffectorSpeaker@@UAEXPAVNeuroLink@@PAVNeuroSignal@@@Z 004cc210 f i actuator_speaker.obj
 0002:00013250       ??_EEffectorSpeaker@@UAEPAXI@Z 004cc250 f i actuator_speaker.obj
 0002:00013250       ??_GEffectorSpeaker@@UAEPAXI@Z 004cc250 f i actuator_speaker.obj
 0002:000132c0       ??1EffectorSpeaker@@UAE@XZ 004cc2c0 f   actuator_speaker.obj
 0002:00013360       ?configureEffector@EffectorSpeaker@@UAEXVXml@@@Z 004cc360 f   actuator_speaker.obj
 0002:000133b0       ?createEffector@EffectorSpeaker@@UAEXPAVMindRegionCreateInfo@@@Z 004cc3b0 f   actuator_speaker.obj
 0002:000134a0       ?createSourceConnector@EffectorSpeaker@@AAEXPAVMindRegionCreateInfo@@PAVMindRegionConnectorDef@@@Z 004cc4a0 f   actuator_speaker.obj
 0002:000135f0       ?createTargetConnector@EffectorSpeaker@@AAEXPAVMindRegionCreateInfo@@PAVMindRegionConnectorDef@@@Z 004cc5f0 f   actuator_speaker.obj
 0002:00013740       ?sourceHandler@EffectorSpeaker@@AAEPAVNeuroSignal@@PAVNeuroLink@@PAVNeuroLinkSource@@@Z 004cc740 f   actuator_speaker.obj
 0002:00013780       ?targetHandler@EffectorSpeaker@@AAEPAVNeuroSignalSet@@PAVNeuroLink@@PAVNeuroLinkTarget@@PAVNeuroSignal@@@Z 004cc780 f   actuator_speaker.obj
 0002:000137c0       ?createStomach@AHumanTarget@@AAEPAVMindEffector@@PAVEffectorArea@@@Z 004cc7c0 f   actuator_stomach.obj
 0002:000138b0       ??0EffectorStomach@@QAE@PAVEffectorArea@@@Z 004cc8b0 f   actuator_stomach.obj
 0002:00013980       ?getClass@EffectorStomach@@UAEPBDXZ 004cc980 f i actuator_stomach.obj
 0002:000139c0       ?startEffector@EffectorStomach@@UAEXXZ 004cc9c0 f i actuator_stomach.obj
 0002:00013a00       ?stopEffector@EffectorStomach@@UAEXXZ 004cca00 f i actuator_stomach.obj
 0002:00013a40       ?processEffectorControl@EffectorStomach@@UAEXPAVNeuroLink@@PAVNeuroSignal@@@Z 004cca40 f i actuator_stomach.obj
 0002:00013a80       ??_GEffectorStomach@@UAEPAXI@Z 004cca80 f i actuator_stomach.obj
 0002:00013a80       ??_EEffectorStomach@@UAEPAXI@Z 004cca80 f i actuator_stomach.obj
 0002:00013af0       ??1EffectorStomach@@UAE@XZ 004ccaf0 f   actuator_stomach.obj
 0002:00013b90       ?configureEffector@EffectorStomach@@UAEXVXml@@@Z 004ccb90 f   actuator_stomach.obj
 0002:00013be0       ?createEffector@EffectorStomach@@UAEXPAVMindRegionCreateInfo@@@Z 004ccbe0 f   actuator_stomach.obj
 0002:00013cd0       ?createSourceConnector@EffectorStomach@@AAEXPAVMindRegionCreateInfo@@PAVMindRegionConnectorDef@@@Z 004cccd0 f   actuator_stomach.obj
 0002:00013e20       ?createTargetConnector@EffectorStomach@@AAEXPAVMindRegionCreateInfo@@PAVMindRegionConnectorDef@@@Z 004cce20 f   actuator_stomach.obj
 0002:00013f70       ?sourceHandler@EffectorStomach@@AAEPAVNeuroSignal@@PAVNeuroLink@@PAVNeuroLinkSource@@@Z 004ccf70 f   actuator_stomach.obj
 0002:00013fb0       ?targetHandler@EffectorStomach@@AAEPAVNeuroSignalSet@@PAVNeuroLink@@PAVNeuroLinkTarget@@PAVNeuroSignal@@@Z 004ccfb0 f   actuator_stomach.obj
 0002:00013ff0       ?createTrunk@AHumanTarget@@AAEPAVMindEffector@@PAVEffectorArea@@@Z 004ccff0 f   actuator_trunk.obj
 0002:000140e0       ??0EffectorTrunk@@QAE@PAVEffectorArea@@@Z 004cd0e0 f   actuator_trunk.obj
 0002:000141b0       ?getClass@EffectorTrunk@@UAEPBDXZ 004cd1b0 f i actuator_trunk.obj
 0002:000141f0       ?startEffector@EffectorTrunk@@UAEXXZ 004cd1f0 f i actuator_trunk.obj
 0002:00014230       ?stopEffector@EffectorTrunk@@UAEXXZ 004cd230 f i actuator_trunk.obj
 0002:00014270       ?processEffectorControl@EffectorTrunk@@UAEXPAVNeuroLink@@PAVNeuroSignal@@@Z 004cd270 f i actuator_trunk.obj
 0002:000142b0       ??_EEffectorTrunk@@UAEPAXI@Z 004cd2b0 f i actuator_trunk.obj
 0002:000142b0       ??_GEffectorTrunk@@UAEPAXI@Z 004cd2b0 f i actuator_trunk.obj
 0002:00014320       ??1EffectorTrunk@@UAE@XZ   004cd320 f   actuator_trunk.obj
 0002:000143c0       ?configureEffector@EffectorTrunk@@UAEXVXml@@@Z 004cd3c0 f   actuator_trunk.obj
 0002:00014410       ?createEffector@EffectorTrunk@@UAEXPAVMindRegionCreateInfo@@@Z 004cd410 f   actuator_trunk.obj
 0002:00014500       ?createSourceConnector@EffectorTrunk@@AAEXPAVMindRegionCreateInfo@@PAVMindRegionConnectorDef@@@Z 004cd500 f   actuator_trunk.obj
 0002:00014650       ?createTargetConnector@EffectorTrunk@@AAEXPAVMindRegionCreateInfo@@PAVMindRegionConnectorDef@@@Z 004cd650 f   actuator_trunk.obj
 0002:000147a0       ?sourceHandler@EffectorTrunk@@AAEPAVNeuroSignal@@PAVNeuroLink@@PAVNeuroLinkSource@@@Z 004cd7a0 f   actuator_trunk.obj
 0002:000147e0       ?targetHandler@EffectorTrunk@@AAEPAVNeuroSignalSet@@PAVNeuroLink@@PAVNeuroLinkTarget@@PAVNeuroSignal@@@Z 004cd7e0 f   actuator_trunk.obj
 0002:00014820       ?createUreter@AHumanTarget@@AAEPAVMindEffector@@PAVEffectorArea@@@Z 004cd820 f   actuator_ureter.obj
 0002:00014910       ??0EffectorUreter@@QAE@PAVEffectorArea@@@Z 004cd910 f   actuator_ureter.obj
 0002:000149e0       ?getClass@EffectorUreter@@UAEPBDXZ 004cd9e0 f i actuator_ureter.obj
 0002:00014a20       ?startEffector@EffectorUreter@@UAEXXZ 004cda20 f i actuator_ureter.obj
 0002:00014a60       ?stopEffector@EffectorUreter@@UAEXXZ 004cda60 f i actuator_ureter.obj
 0002:00014aa0       ?processEffectorControl@EffectorUreter@@UAEXPAVNeuroLink@@PAVNeuroSignal@@@Z 004cdaa0 f i actuator_ureter.obj
 0002:00014ae0       ??_GEffectorUreter@@UAEPAXI@Z 004cdae0 f i actuator_ureter.obj
 0002:00014ae0       ??_EEffectorUreter@@UAEPAXI@Z 004cdae0 f i actuator_ureter.obj
 0002:00014b50       ??1EffectorUreter@@UAE@XZ  004cdb50 f   actuator_ureter.obj
 0002:00014bf0       ?configureEffector@EffectorUreter@@UAEXVXml@@@Z 004cdbf0 f   actuator_ureter.obj
 0002:00014c40       ?createEffector@EffectorUreter@@UAEXPAVMindRegionCreateInfo@@@Z 004cdc40 f   actuator_ureter.obj
 0002:00014d30       ?createSourceConnector@EffectorUreter@@AAEXPAVMindRegionCreateInfo@@PAVMindRegionConnectorDef@@@Z 004cdd30 f   actuator_ureter.obj
 0002:00014e80       ?createTargetConnector@EffectorUreter@@AAEXPAVMindRegionCreateInfo@@PAVMindRegionConnectorDef@@@Z 004cde80 f   actuator_ureter.obj
 0002:00014fd0       ?sourceHandler@EffectorUreter@@AAEPAVNeuroSignal@@PAVNeuroLink@@PAVNeuroLinkSource@@@Z 004cdfd0 f   actuator_ureter.obj
 0002:00015010       ?targetHandler@EffectorUreter@@AAEPAVNeuroSignalSet@@PAVNeuroLink@@PAVNeuroLinkTarget@@PAVNeuroSignal@@@Z 004ce010 f   actuator_ureter.obj
 0002:00015050       ?createVessels@AHumanTarget@@AAEPAVMindEffector@@PAVEffectorArea@@@Z 004ce050 f   actuator_vessels.obj
 0002:00015140       ??0EffectorVessels@@QAE@PAVEffectorArea@@@Z 004ce140 f   actuator_vessels.obj
 0002:00015210       ?getClass@EffectorVessels@@UAEPBDXZ 004ce210 f i actuator_vessels.obj
 0002:00015250       ?startEffector@EffectorVessels@@UAEXXZ 004ce250 f i actuator_vessels.obj
 0002:00015290       ?stopEffector@EffectorVessels@@UAEXXZ 004ce290 f i actuator_vessels.obj
 0002:000152d0       ?processEffectorControl@EffectorVessels@@UAEXPAVNeuroLink@@PAVNeuroSignal@@@Z 004ce2d0 f i actuator_vessels.obj
 0002:00015310       ??_EEffectorVessels@@UAEPAXI@Z 004ce310 f i actuator_vessels.obj
 0002:00015310       ??_GEffectorVessels@@UAEPAXI@Z 004ce310 f i actuator_vessels.obj
 0002:00015380       ??1EffectorVessels@@UAE@XZ 004ce380 f   actuator_vessels.obj
 0002:00015420       ?configureEffector@EffectorVessels@@UAEXVXml@@@Z 004ce420 f   actuator_vessels.obj
 0002:00015470       ?createEffector@EffectorVessels@@UAEXPAVMindRegionCreateInfo@@@Z 004ce470 f   actuator_vessels.obj
 0002:00015560       ?createSourceConnector@EffectorVessels@@AAEXPAVMindRegionCreateInfo@@PAVMindRegionConnectorDef@@@Z 004ce560 f   actuator_vessels.obj
 0002:000156b0       ?createTargetConnector@EffectorVessels@@AAEXPAVMindRegionCreateInfo@@PAVMindRegionConnectorDef@@@Z 004ce6b0 f   actuator_vessels.obj
 0002:00015800       ?sourceHandler@EffectorVessels@@AAEPAVNeuroSignal@@PAVNeuroLink@@PAVNeuroLinkSource@@@Z 004ce800 f   actuator_vessels.obj
 0002:00015840       ?targetHandler@EffectorVessels@@AAEPAVNeuroSignalSet@@PAVNeuroLink@@PAVNeuroLinkTarget@@PAVNeuroSignal@@@Z 004ce840 f   actuator_vessels.obj
 0002:00015880       ??0AHumanTarget@@QAE@XZ    004ce880 f   ahumantarget.obj
 0002:00015950       ??1MindTarget@@QAE@XZ      004ce950 f i ahumantarget.obj
 0002:000159f0       ??0MessageSubscriber@@QAE@XZ 004ce9f0 f i ahumantarget.obj
 0002:00015a40       ?configureTarget@AHumanTarget@@UAEXVXml@@@Z 004cea40 f   ahumantarget.obj
 0002:00015a80       ?createTarget@AHumanTarget@@UAEXPAVSensorArea@@PAVEffectorArea@@@Z 004cea80 f   ahumantarget.obj
 0002:000160d0       ?getId@MindLocalCircuitDef@@QAE?AVString@@XZ 004cf0d0 f i modelverifier_mind.obj
 0002:00016170       ?getDstRegion@MindLocalCircuitConnectionDef@@QAE?AVString@@XZ 004cf170 f i modelverifier_mind.obj
 0002:00016260       ?initTarget@AHumanTarget@@UAEXXZ 004cf260 f   ahumantarget.obj
 0002:000162a0       ?runTarget@AHumanTarget@@UAEXXZ 004cf2a0 f   ahumantarget.obj
 0002:000163e0       ?onXmlMessage@AHumanTarget@@MAEXPAVXmlMessage@@@Z 004cf3e0 f   ahumantarget.obj
 0002:00016710       ?cmdPlayCircuit@AHumanTarget@@IAEXVXml@@@Z 004cf710 f   ahumantarget.obj
 0002:00016830       ?cmdVerifyModel@AHumanTarget@@IAEXVXml@@@Z 004cf830 f   ahumantarget.obj
 0002:00016950       ?cmdCreateWikiPages@AHumanTarget@@IAEXVXml@@@Z 004cf950 f   ahumantarget.obj
 0002:00016a60       ?stopTarget@AHumanTarget@@UAEXXZ 004cfa60 f   ahumantarget.obj
 0002:00016aa0       ?exitTarget@AHumanTarget@@UAEXXZ 004cfaa0 f   ahumantarget.obj
 0002:00016ae0       ?destroyTarget@AHumanTarget@@UAEXXZ 004cfae0 f   ahumantarget.obj
 0002:00016b20       ?attachLogger@Service@@QAEXXZ 004cfb20 f i ahumantarget.obj
 0002:00016b90       ?getService@MessagingService@@SAPAV1@XZ 004cfb90 f i ahumantarget.obj
 0002:00016bf0       ?onMessage@MessageSubscriber@@UAEXPAVMessage@@@Z 004cfbf0 f i ahumantarget.obj
 0002:00016c30       ?onTextMessage@MessageSubscriber@@UAEXPAVTextMessage@@@Z 004cfc30 f i ahumantarget.obj
 0002:00016c70       ?onXmlMessage@MessageSubscriber@@UAEXPAVXmlMessage@@@Z 004cfc70 f i ahumantarget.obj
 0002:00016cb0       ?onXmlCall@MessageSubscriber@@UAEXPAVXmlCall@@@Z 004cfcb0 f i ahumantarget.obj
 0002:00016cf0       ?onBinaryMessage@MessageSubscriber@@UAEXPAVBinaryMessage@@@Z 004cfcf0 f i ahumantarget.obj
 0002:00016d30       ??1Service@@QAE@XZ         004cfd30 f i ahumantarget.obj
 0002:00016dd0       ?getServiceName@MindTarget@@EAEPBDXZ 004cfdd0 f i ahumantarget.obj
 0002:00016e10       ?execute@@YAXVString@@@Z   004cfe10 f   main.obj
 0002:00016fd0       _main                      004cffd0 f   main.obj
 0002:000170d0       ??0MindModel@@QAE@XZ       004d00d0 f   mindmodel.obj
 0002:000171d0       ?getClass@MindModel@@UAEPBDXZ 004d01d0 f i mindmodel.obj
 0002:00017210       ??_EMindModel@@UAEPAXI@Z   004d0210 f i mindmodel.obj
 0002:00017210       ??_GMindModel@@UAEPAXI@Z   004d0210 f i mindmodel.obj
 0002:00017280       ??1MindModel@@UAE@XZ       004d0280 f   mindmodel.obj
 0002:00017370       ?load@MindModel@@QAEXXZ    004d0370 f   mindmodel.obj
 0002:000173f0       ?checkLinkCoveredByModel@MindModel@@QAE_NVString@@0@Z 004d03f0 f   mindmodel.obj
 0002:00017bc0       ??0StringList@@QAE@XZ      004d0bc0 f i mindmodel.obj
 0002:00017c20       ??1StringList@@QAE@XZ      004d0c20 f i mindmodel.obj
 0002:00017c80       ?add@StringList@@QAEHPBD@Z 004d0c80 f i mindmodel.obj
 0002:00017d20       ?count@StringList@@QAEHXZ  004d0d20 f i mindmodel.obj
 0002:00017d60       ?get@StringList@@QAE?AVString@@H@Z 004d0d60 f i mindmodel.obj
 0002:00017f70       ??1RuntimeException@@QAE@XZ 004d0f70 f i mindmodel.obj
 0002:00018060       ??0RuntimeException@@QAE@ABV0@@Z 004d1060 f i mindmodel.obj
 0002:000181a0       ??0Object@@IAE@XZ          004d11a0 f i mindmodel.obj
 0002:00018270       ??1Object@@QAE@XZ          004d1270 f i mindmodel.obj
 0002:00018330       ?getService@MindService@@SAPAV1@XZ 004d1330 f i mindmodel.obj
 0002:00018390       ??0ScenarioPlayer@@QAE@XZ  004d1390 f   scenarioplayer.obj
 0002:00018440       ?getClass@ScenarioPlayer@@UAEPBDXZ 004d1440 f i scenarioplayer.obj
 0002:00018480       ??_GScenarioPlayer@@UAEPAXI@Z 004d1480 f i scenarioplayer.obj
 0002:00018480       ??_EScenarioPlayer@@UAEPAXI@Z 004d1480 f i scenarioplayer.obj
 0002:000184f0       ??1ScenarioPlayer@@UAE@XZ  004d14f0 f   scenarioplayer.obj
 0002:00018590       ?play@ScenarioPlayer@@QAEXVXml@@@Z 004d1590 f   scenarioplayer.obj
 0002:00018750       ?playSignal@ScenarioPlayer@@AAEXVXml@@@Z 004d1750 f   scenarioplayer.obj
 0002:00019410       ?count@?$ClassList@VNeuroSignal@@@@QBEHXZ 004d2410 f i scenarioplayer.obj
 0002:00019470       ?get@?$ClassList@VNeuroSignal@@@@QBEPAVNeuroSignal@@H@Z 004d2470 f i scenarioplayer.obj
 0002:000194d0       ?getArea@MindRegion@@QAEPAVMindArea@@XZ 004d24d0 f i scenarioplayer.obj
 0002:00019510       ?getId@NeuroSignal@@QAE?AVString@@XZ 004d2510 f i scenarioplayer.obj
 0002:000195d0       ?getSignals@NeuroSignalSet@@QAEAAV?$ClassList@VNeuroSignal@@@@XZ 004d25d0 f i scenarioplayer.obj
 0002:00019610       ??0ModelFiberValidator@@QAE@XZ 004d2610 f   modelfibervalidator.obj
 0002:000196c0       ?getClass@ModelFiberValidator@@UAEPBDXZ 004d26c0 f i modelfibervalidator.obj
 0002:00019700       ??_EModelFiberValidator@@UAEPAXI@Z 004d2700 f i modelfibervalidator.obj
 0002:00019700       ??_GModelFiberValidator@@UAEPAXI@Z 004d2700 f i modelfibervalidator.obj
 0002:00019770       ??1ModelFiberValidator@@UAE@XZ 004d2770 f   modelfibervalidator.obj
 0002:00019810       ?isValid_GSE_end@ModelFiberValidator@@QAE_NAAVXmlNerveInfo@@PAVMindRegion@@1@Z 004d2810 f   modelfibervalidator.obj
 0002:00019e00       ?isValid_GSA_begin@ModelFiberValidator@@QAE_NAAVXmlNerveInfo@@PAVMindRegion@@1@Z 004d2e00 f   modelfibervalidator.obj
 0002:0001a3e0       ?isValid_GSA_afterbegin@ModelFiberValidator@@QAE_NAAVXmlNerveInfo@@PAVMindRegion@@1@Z 004d33e0 f   modelfibervalidator.obj
 0002:0001a9d0       ?isValid_GVE_end@ModelFiberValidator@@QAE_NAAVXmlNerveInfo@@PAVMindRegion@@1@Z 004d39d0 f   modelfibervalidator.obj
 0002:0001b0a0       ?isValid_GVE_beforeend@ModelFiberValidator@@QAE_NAAVXmlNerveInfo@@PAVMindRegion@@1@Z 004d40a0 f   modelfibervalidator.obj
 0002:0001b840       ?isValid_SSA_begin@ModelFiberValidator@@QAE_NAAVXmlNerveInfo@@PAVMindRegion@@1@Z 004d4840 f   modelfibervalidator.obj
 0002:0001bfb0       ?isValid_SVA_begin@ModelFiberValidator@@QAE_NAAVXmlNerveInfo@@PAVMindRegion@@1@Z 004d4fb0 f   modelfibervalidator.obj
 0002:0001c670       ?isValid_SVA_afterbegin@ModelFiberValidator@@QAE_NAAVXmlNerveInfo@@PAVMindRegion@@1@Z 004d5670 f   modelfibervalidator.obj
 0002:0001ce00       ?getTypeName@MindRegionDef@@QAE?AVString@@XZ 004d5e00 f i modelfibervalidator.obj
 0002:0001cec0       ?getRole@MindRegionDef@@QAE?AW4MindRegionRoleEnum@@XZ 004d5ec0 f i modelfibervalidator.obj
 0002:0001cf00       ?getRegionInfo@MindRegion@@QAEPAVMindRegionDef@@XZ 004d5f00 f i modelfibervalidator.obj
 0002:0001cf40       ?getRegionId@MindRegion@@QAE?AVString@@XZ 004d5f40 f i modelfibervalidator.obj
 0002:0001d000       ??0ModelVerifier@@QAE@VXml@@@Z 004d6000 f   modelverifier.obj
 0002:0001d110       ?getClass@ModelVerifier@@UAEPBDXZ 004d6110 f i modelverifier.obj
 0002:0001d150       ??_EModelVerifier@@UAEPAXI@Z 004d6150 f i modelverifier.obj
 0002:0001d150       ??_GModelVerifier@@UAEPAXI@Z 004d6150 f i modelverifier.obj
 0002:0001d1c0       ??1ModelVerifier@@UAE@XZ   004d61c0 f   modelverifier.obj
 0002:0001d290       ?verify@ModelVerifier@@QAEXXZ 004d6290 f   modelverifier.obj
 0002:0001d640       ??0?$MapStringToClass@VMindRegionDef@@@@QAE@XZ 004d6640 f i modelverifier.obj
 0002:0001d6a0       ??1?$MapStringToClass@VMindRegionDef@@@@QAE@XZ 004d66a0 f i modelverifier.obj
 0002:0001d700       ?getMindMap@MindService@@QAEPAVMindMap@@XZ 004d6700 f i modelverifier.obj
 0002:0001d740       ?checkCircuits@ModelVerifier@@AAEXXZ 004d6740 f   modelverifier_circuits.obj
 0002:0001da60       ?checkCircuits_verifyComponents@ModelVerifier@@AAE_NVString@@@Z 004d6a60 f   modelverifier_circuits.obj
 0002:0001de20       ?checkCircuits_verifyLinks@ModelVerifier@@AAE_NVString@@@Z 004d6e20 f   modelverifier_circuits.obj
 0002:0001e0a0       ??0XmlCircuitLinkInfo@@QAE@XZ 004d70a0 f i modelverifier_circuits.obj
 0002:0001e160       ??1XmlCircuitLinkInfo@@QAE@XZ 004d7160 f i modelverifier_circuits.obj
 0002:0001e220       ?checkCircuits_verifyCircuitLink@ModelVerifier@@AAE_NAAVXmlCircuitInfo@@AAVXmlCircuitLinkInfo@@@Z 004d7220 f   modelverifier_circuits.obj
 0002:0001eea0       ??0?$FlatList@VXml@@@@QAE@XZ 004d7ea0 f i modelverifier_circuits.obj
 0002:0001ef00       ??1?$FlatList@VXml@@@@QAE@XZ 004d7f00 f i modelverifier_circuits.obj
 0002:0001ef70       ?count@?$FlatList@VXml@@@@QBEHXZ 004d7f70 f i modelverifier_circuits.obj
 0002:0001efb0       ?get@?$FlatList@VXml@@@@QBE?AVXml@@H@Z 004d7fb0 f i modelverifier_circuits.obj
 0002:0001f190       ?count@MapStringToString@@QAEHXZ 004d8190 f i modelverifier_circuits.obj
 0002:0001f1f0       ?getClassByIndex@MapStringToString@@QAEPBDH@Z 004d81f0 f i modelverifier_circuits.obj
 0002:0001f2a0       ?getKeyByIndex@MapStringToString@@QAEPBDH@Z 004d82a0 f i modelverifier_circuits.obj
 0002:0001f350       ?checkHierarchy@ModelVerifier@@AAEXXZ 004d8350 f   modelverifier_hmind.obj
 0002:0001f580       ?checkHierarchy_verifyChild@ModelVerifier@@AAE_NVString@@_N@Z 004d8580 f   modelverifier_hmind.obj
 0002:0001fe40       ?checkHierarchy_verifyConnectors@ModelVerifier@@AAE_NPAVMindRegionDef@@ABVXmlHMindElementInfo@@@Z 004d8e40 f   modelverifier_hmind.obj
 0002:00020500       ?add@?$MapStringToClass@VMindRegionDef@@@@QAEHPBDPAVMindRegionDef@@@Z 004d9500 f i modelverifier_hmind.obj
 0002:00020710       ?get@?$MapStringToClass@VMindRegionDef@@@@QAEPAVMindRegionDef@@PBD@Z 004d9710 f i modelverifier_hmind.obj
 0002:000207c0       ?clear@?$MapStringToClass@VMindRegionDef@@@@QAEXXZ 004d97c0 f i modelverifier_hmind.obj
 0002:00020820       ?getId@MindRegionDef@@QAE?AVString@@XZ 004d9820 f i modelverifier_hmind.obj
 0002:000208e0       ?checkMindModel@ModelVerifier@@AAEXXZ 004d98e0 f   modelverifier_mind.obj
 0002:00020a00       ?checkMindModel_verifyRegion@ModelVerifier@@AAE_NPAVMindRegionDef@@@Z 004d9a00 f   modelverifier_mind.obj
 0002:00020fe0       ??0XmlCircuitFind@@QAE@XZ  004d9fe0 f i modelverifier_mind.obj
 0002:00021080       ??1XmlCircuitFind@@QAE@XZ  004da080 f i modelverifier_mind.obj
 0002:00021120       ?checkMindModel_verifyLinkedConnectors@ModelVerifier@@AAE_NPAVMindRegionDef@@PAVMindRegion@@@Z 004da120 f   modelverifier_mind.obj
 0002:00021800       ?checkMindModel_verifyRegionCircuits@ModelVerifier@@AAE_NPAVMindRegionDef@@PAVMindRegion@@@Z 004da800 f   modelverifier_mind.obj
 0002:00021c00       ?checkMindModel_verifyLinkDuplicates@ModelVerifier@@AAE_NXZ 004dac00 f   modelverifier_mind.obj
 0002:00022740       ?count@?$ClassList@VMindLocalCircuitDef@@@@QBEHXZ 004db740 f i modelverifier_mind.obj
 0002:000227a0       ?getRef@?$ClassList@VMindLocalCircuitDef@@@@QBEAAVMindLocalCircuitDef@@H@Z 004db7a0 f i modelverifier_mind.obj
 0002:00022800       ?count@?$MapStringToClass@VMindRegionDef@@@@QAEHXZ 004db800 f i modelverifier_mind.obj
 0002:00022860       ?getClassByIndex@?$MapStringToClass@VMindRegionDef@@@@QAEPAVMindRegionDef@@H@Z 004db860 f i modelverifier_mind.obj
 0002:00022920       ??0?$MapStringToClass@VMindLocalCircuitConnectionDef@@@@QAE@XZ 004db920 f i modelverifier_mind.obj
 0002:00022980       ??1?$MapStringToClass@VMindLocalCircuitConnectionDef@@@@QAE@XZ 004db980 f i modelverifier_mind.obj
 0002:000229e0       ?add@?$MapStringToClass@VMindLocalCircuitConnectionDef@@@@QAEHPBDPAVMindLocalCircuitConnectionDef@@@Z 004db9e0 f i modelverifier_mind.obj
 0002:00022bf0       ?get@?$MapStringToClass@VMindLocalCircuitConnectionDef@@@@QAEPAVMindLocalCircuitConnectionDef@@PBD@Z 004dbbf0 f i modelverifier_mind.obj
 0002:00022ca0       ?remove@?$MapStringToClass@VMindLocalCircuitConnectionDef@@@@QAEPAVMindLocalCircuitConnectionDef@@PBD@Z 004dbca0 f i modelverifier_mind.obj
 0002:00022d00       ?count@?$MapStringToClass@VMindLocalCircuitConnectionDef@@@@QAEHXZ 004dbd00 f i modelverifier_mind.obj
 0002:00022d60       ?getClassByIndex@?$MapStringToClass@VMindLocalCircuitConnectionDef@@@@QAEPAVMindLocalCircuitConnectionDef@@H@Z 004dbd60 f i modelverifier_mind.obj
 0002:00022e20       ?count@?$ClassList@VNeuroLink@@@@QBEHXZ 004dbe20 f i modelverifier_mind.obj
 0002:00022e80       ?count@?$ClassList@VMindRegionLink@@@@QBEHXZ 004dbe80 f i modelverifier_mind.obj
 0002:00022ee0       ?getRef@?$ClassList@VMindRegionLink@@@@QBEAAVMindRegionLink@@H@Z 004dbee0 f i modelverifier_mind.obj
 0002:00022f40       ?get@?$ClassList@VMindLocalCircuitDef@@@@QBEPAVMindLocalCircuitDef@@H@Z 004dbf40 f i modelverifier_mind.obj
 0002:00022fa0       ?get@?$ClassList@VMindRegionLink@@@@QBEPAVMindRegionLink@@H@Z 004dbfa0 f i modelverifier_mind.obj
 0002:00023000       ?getMindLocalCircuits@MindMap@@QAEAAV?$ClassList@VMindLocalCircuitDef@@@@XZ 004dc000 f i modelverifier_mind.obj
 0002:00023040       ?isTarget@MindRegionDef@@QAE_NXZ 004dc040 f i modelverifier_mind.obj
 0002:00023140       ?getConnections@MindLocalCircuitDef@@QAEAAV?$MapStringToClass@VMindLocalCircuitConnectionDef@@@@XZ 004dc140 f i modelverifier_mind.obj
 0002:00023200       ?getSrcRegion@MindLocalCircuitConnectionDef@@QAE?AVString@@XZ 004dc200 f i modelverifier_mind.obj
 0002:00023300       ?getCircuitDef@MindLocalCircuitConnectionDef@@QAEPAVMindLocalCircuitDef@@XZ 004dc300 f i modelverifier_mind.obj
 0002:00023340       ?getLinks@NeuroLinkSource@@QAEAAV?$ClassList@VNeuroLink@@@@XZ 004dc340 f i modelverifier_mind.obj
 0002:00023380       ?checkMuscles@ModelVerifier@@AAEXXZ 004dc380 f   modelverifier_muscles.obj
 0002:00023630       ?checkMuscles_verifyNerve@ModelVerifier@@AAE_NAAVXmlMuscleInfo@@VString@@1@Z 004dc630 f   modelverifier_muscles.obj
 0002:00024410       ?checkMuscles_verifyNerves@ModelVerifier@@AAE_NVString@@@Z 004dd410 f   modelverifier_muscles.obj
 0002:000249f0       ?find@StringList@@QAEHVString@@@Z 004dd9f0 f i modelverifier_muscles.obj
 0002:00024b20       ?checkNerves@ModelVerifier@@AAEXXZ 004ddb20 f   modelverifier_nerves.obj
 0002:00024eb0       ?getDivisions@XmlNerves@@QAEAAV?$ClassList@VXmlNerveInfo@@@@XZ 004ddeb0 f i modelverifier_nerves.obj
 0002:00024ef0       ?checkNerves_verifyComponents@ModelVerifier@@AAE_NVString@@@Z 004ddef0 f   modelverifier_nerves.obj
 0002:000253f0       ?checkNerves_verifyModalityByChilds@ModelVerifier@@AAE_NAAVXmlNerveInfo@@AAVMapStringToPtr@@@Z 004de3f0 f   modelverifier_nerves.obj
 0002:00025e10       ?checkNerves_verifyFiberIsCovered@ModelVerifier@@AAE_NVString@@AAVStringList@@@Z 004dee10 f   modelverifier_nerves.obj
 0002:00025ff0       ?checkNerves_verifyModalityIsCoveredByFibers@ModelVerifier@@AAE_NVString@@AAVMapStringToPtr@@@Z 004deff0 f   modelverifier_nerves.obj
 0002:00026200       ?checkFiberComp@ModelVerifier@@AAE_NAAVXmlNerveInfo@@AAVXmlNerveFiberInfo@@VString@@@Z 004df200 f   modelverifier_nerves.obj
 0002:00026750       ?checkNerves_verifyLinks@ModelVerifier@@AAE_NAAVXmlNerveInfo@@AAVXmlNerveFiberInfo@@@Z 004df750 f   modelverifier_nerves.obj
 0002:00026d70       ?checkFiberType@ModelVerifier@@AAE_NAAVXmlNerveInfo@@AAVXmlNerveFiberInfo@@VString@@@Z 004dfd70 f   modelverifier_nerves.obj
 0002:000272f0       ?checkNerves_verifyFiberChain@ModelVerifier@@AAE_NAAVXmlNerveInfo@@AAVXmlNerveFiberInfo@@VString@@2W4ModelVerifierFiberChainPosEnum@@HH@Z 004e02f0 f   modelverifier_nerves.obj
 0002:000279e0       ?count@?$MapStringToClass@VXmlNerveInfo@@@@QAEHXZ 004e09e0 f i modelverifier_nerves.obj
 0002:00027a40       ?getClassRefByIndex@?$MapStringToClass@VXmlNerveInfo@@@@QAEAAVXmlNerveInfo@@H@Z 004e0a40 f i modelverifier_nerves.obj
 0002:00027b00       ?count@?$ClassList@VXmlNerveInfo@@@@QBEHXZ 004e0b00 f i modelverifier_nerves.obj
 0002:00027b60       ?getRef@?$ClassList@VXmlNerveInfo@@@@QBEAAVXmlNerveInfo@@H@Z 004e0b60 f i modelverifier_nerves.obj
 0002:00027bc0       ?count@?$ClassList@VXmlNerveFiberInfo@@@@QBEHXZ 004e0bc0 f i modelverifier_nerves.obj
 0002:00027c20       ?getRef@?$ClassList@VXmlNerveFiberInfo@@@@QBEAAVXmlNerveFiberInfo@@H@Z 004e0c20 f i modelverifier_nerves.obj
 0002:00027c80       ?get@?$ClassList@VXmlNerveInfo@@@@QBEPAVXmlNerveInfo@@H@Z 004e0c80 f i modelverifier_nerves.obj
 0002:00027ce0       ?get@?$ClassList@VXmlNerveFiberInfo@@@@QBEPAVXmlNerveFiberInfo@@H@Z 004e0ce0 f i modelverifier_nerves.obj
 0002:00027d40       ??0MapStringToPtr@@QAE@XZ  004e0d40 f i modelverifier_nerves.obj
 0002:00027da0       ??1MapStringToPtr@@QAE@XZ  004e0da0 f i modelverifier_nerves.obj
 0002:00027e00       ?addnew@MapStringToPtr@@QAEHPBDPAX@Z 004e0e00 f i modelverifier_nerves.obj
 0002:00028090       ?addnew@MapStringToPtr@@QAEXAAV1@@Z 004e1090 f i modelverifier_nerves.obj
 0002:00028140       ?addnew@MapStringToPtr@@QAEXAAVStringList@@PAX@Z 004e1140 f i modelverifier_nerves.obj
 0002:00028260       ?get@MapStringToPtr@@QAEPAXPBD@Z 004e1260 f i modelverifier_nerves.obj
 0002:00028310       ?count@MapStringToPtr@@QAEHXZ 004e1310 f i modelverifier_nerves.obj
 0002:00028370       ?destroy@MapStringToPtr@@QAEXXZ 004e1370 f i modelverifier_nerves.obj
 0002:000283d0       ?getKeyByIndex@MapStringToPtr@@QAEPBDH@Z 004e13d0 f i modelverifier_nerves.obj
 0002:00028480       ?checkSpinal@ModelVerifier@@AAEXXZ 004e1480 f   modelverifier_spinal.obj
 0002:00028550       ?checkSpinal_verifyEndings@ModelVerifier@@AAE_NXZ 004e1550 f   modelverifier_spinal.obj
 0002:00028620       ?getTracts@XmlHMind@@QAEPAVXmlTracts@@XZ 004e1620 f i modelverifier_spinal.obj
 0002:00028660       ?getEndingMap@XmlTracts@@QAEAAV?$MapStringToClass@VXmlBrainEnding@@@@XZ 004e1660 f i modelverifier_spinal.obj
 0002:000286a0       ?checkSpinal_verifyEndingData@ModelVerifier@@AAE_NAAVXmlBrainEnding@@@Z 004e16a0 f   modelverifier_spinal.obj
 0002:000288d0       ?checkSpinal_verifyFibers@ModelVerifier@@AAE_NXZ 004e18d0 f   modelverifier_spinal.obj
 0002:000289a0       ?getFibers@XmlTracts@@QAEAAV?$MapStringToClass@VXmlBrainFiber@@@@XZ 004e19a0 f i modelverifier_spinal.obj
 0002:000289e0       ?checkSpinal_verifyFiberData@ModelVerifier@@AAE_NAAVXmlBrainFiber@@@Z 004e19e0 f   modelverifier_spinal.obj
 0002:00028ed0       ?checkSpinal_verifyTracts@ModelVerifier@@AAE_NXZ 004e1ed0 f   modelverifier_spinal.obj
 0002:00028fa0       ?getTracts@XmlTracts@@QAEAAV?$MapStringToClass@VXmlBrainTractSet@@@@XZ 004e1fa0 f i modelverifier_spinal.obj
 0002:00028fe0       ?checkSpinal_verifyTractSet@ModelVerifier@@AAE_NAAVXmlBrainTractSet@@@Z 004e1fe0 f   modelverifier_spinal.obj
 0002:00029090       ?checkSpinal_verifyTractData@ModelVerifier@@AAE_NAAVXmlBrainTract@@@Z 004e2090 f   modelverifier_spinal.obj
 0002:000291b0       ?checkSpinal_verifyTractPathData@ModelVerifier@@AAE_NAAVXmlBrainTract@@AAVXmlBrainTractPath@@@Z 004e21b0 f   modelverifier_spinal.obj
 0002:000298d0       ?count@?$MapStringToClass@VXmlBrainTractSet@@@@QAEHXZ 004e28d0 f i modelverifier_spinal.obj
 0002:00029930       ?getClassRefByIndex@?$MapStringToClass@VXmlBrainTractSet@@@@QAEAAVXmlBrainTractSet@@H@Z 004e2930 f i modelverifier_spinal.obj
 0002:000299f0       ?count@?$MapStringToClass@VXmlBrainFiber@@@@QAEHXZ 004e29f0 f i modelverifier_spinal.obj
 0002:00029a50       ?getClassRefByIndex@?$MapStringToClass@VXmlBrainFiber@@@@QAEAAVXmlBrainFiber@@H@Z 004e2a50 f i modelverifier_spinal.obj
 0002:00029b10       ?count@?$MapStringToClass@VXmlBrainEnding@@@@QAEHXZ 004e2b10 f i modelverifier_spinal.obj
 0002:00029b70       ?getClassRefByIndex@?$MapStringToClass@VXmlBrainEnding@@@@QAEAAVXmlBrainEnding@@H@Z 004e2b70 f i modelverifier_spinal.obj
 0002:00029c30       ?count@?$MapStringToClass@VXmlBrainTract@@@@QAEHXZ 004e2c30 f i modelverifier_spinal.obj
 0002:00029c90       ?getClassRefByIndex@?$MapStringToClass@VXmlBrainTract@@@@QAEAAVXmlBrainTract@@H@Z 004e2c90 f i modelverifier_spinal.obj
 0002:00029d50       ?count@?$MapStringToClass@VXmlBrainTractPath@@@@QAEHXZ 004e2d50 f i modelverifier_spinal.obj
 0002:00029db0       ?getClassRefByIndex@?$MapStringToClass@VXmlBrainTractPath@@@@QAEAAVXmlBrainTractPath@@H@Z 004e2db0 f i modelverifier_spinal.obj
 0002:00029e70       ??0WikiAreaPages@@QAE@PAVWikiMaker@@@Z 004e2e70 f   wikiareapages.obj
 0002:00029f30       ?getClass@WikiAreaPages@@UAEPBDXZ 004e2f30 f i wikiareapages.obj
 0002:00029f70       ??_EWikiAreaPages@@UAEPAXI@Z 004e2f70 f i wikiareapages.obj
 0002:00029f70       ??_GWikiAreaPages@@UAEPAXI@Z 004e2f70 f i wikiareapages.obj
 0002:00029fe0       ??1WikiAreaPages@@UAE@XZ   004e2fe0 f   wikiareapages.obj
 0002:0002a080       ?execute@WikiAreaPages@@QAEXXZ 004e3080 f   wikiareapages.obj
 0002:0002a320       ?createAreaPages_createArea@WikiAreaPages@@AAEXVString@@PAVMindArea@@@Z 004e3320 f   wikiareapages.obj
 0002:0002a6b0       ?createAreaPages_createAreaCircuitTable@WikiAreaPages@@AAEXAAV?$MapStringToClass@VMindLocalCircuitDef@@@@AAVStringList@@@Z 004e36b0 f   wikiareapages.obj
 0002:0002a760       ?createAreaPages_createAreaCircuitTableLine@WikiAreaPages@@AAEXPAVMindLocalCircuitDef@@AAVStringList@@@Z 004e3760 f   wikiareapages.obj
 0002:0002ac80       ?createAreaPages_createCircuitsAndReferencesTableSection@WikiAreaPages@@AAEXVString@@PAVMindArea@@@Z 004e3c80 f   wikiareapages.obj
 0002:0002b550       ?createAreaPages_getCircuitKey@WikiAreaPages@@AAE?AVString@@PAVMindArea@@AAVXmlCircuitInfo@@@Z 004e4550 f   wikiareapages.obj
 0002:0002bac0       ?createAreaPages_getCircuitLines@WikiAreaPages@@AAEXAAVXmlCircuitInfo@@AAVStringList@@@Z 004e4ac0 f   wikiareapages.obj
 0002:0002bf70       ?createAreaPages_createRegionPages@WikiAreaPages@@AAEXVString@@PAVMindArea@@@Z 004e4f70 f   wikiareapages.obj
 0002:0002c100       ?createAreaPages_createAreaCircuit@WikiAreaPages@@AAEXPAVMindArea@@AAVMindLocalCircuitDef@@AAVStringList@@@Z 004e5100 f   wikiareapages.obj
 0002:0002c3b0       ?createAreaPages_createRegionTableSection@WikiAreaPages@@AAEXPAVMindArea@@AAVMindLocalCircuitDef@@AAVStringList@@@Z 004e53b0 f   wikiareapages.obj
 0002:0002c570       ?createAreaPages_getRegionTableRow@WikiAreaPages@@AAE?AVString@@PAVMindRegionDef@@@Z 004e5570 f   wikiareapages.obj
 0002:0002cf20       ?createAreaPages_createConnectivityTableSection@WikiAreaPages@@AAEXPAVMindArea@@AAVMindLocalCircuitDef@@AAVStringList@@@Z 004e5f20 f   wikiareapages.obj
 0002:0002d1d0       ?createAreaPages_addInternalConnections@WikiAreaPages@@AAEXPAVMindArea@@AAVMindLocalCircuitDef@@AAVStringList@@AAV?$MapStringToClass@VMindLocalCircuitConnectionDef@@@@@Z 004e61d0 f   wikiareapages.obj
 0002:0002d2b0       ?createAreaPages_addExternalConnections@WikiAreaPages@@AAEXPAVMindArea@@AAVMindLocalCircuitDef@@AAVStringList@@AAV?$MapStringToClass@VMindLocalCircuitConnectionDef@@@@_N@Z 004e62b0 f   wikiareapages.obj
 0002:0002d890       ?createAreaPages_getInternalConnections@WikiAreaPages@@AAEXPAVMindArea@@AAVMindLocalCircuitDef@@AAV?$MapStringToClass@VMindLocalCircuitConnectionDef@@@@@Z 004e6890 f   wikiareapages.obj
 0002:0002db30       ?createAreaPages_getExternalConnections@WikiAreaPages@@AAEXPAVMindArea@@AAVMindLocalCircuitDef@@AAV?$MapStringToClass@VMindLocalCircuitConnectionDef@@@@_N@Z 004e6b30 f   wikiareapages.obj
 0002:0002e2f0       ?createAreaPages_addInternalConnectionTableLine@WikiAreaPages@@AAEXPAVMindArea@@AAVMindLocalCircuitDef@@PAVMindLocalCircuitConnectionDef@@AAVStringList@@@Z 004e72f0 f   wikiareapages.obj
 0002:0002e920       ?createAreaPages_getExternalConnectionTableLine@WikiAreaPages@@AAEXPAVMindArea@@AAVMindLocalCircuitDef@@PAVMindLocalCircuitConnectionDef@@AAVStringList@@_NPBD@Z 004e7920 f   wikiareapages.obj
 0002:00030120       ?getTargetLinkConnectors@WikiAreaPages@@AAEXPAVMindRegion@@0AAVMapStringToString@@@Z 004e9120 f   wikiareapages.obj
 0002:00030340       ?createDotFile_getRegionLabel@WikiAreaPages@@AAE?AVString@@PAVMindRegionDef@@@Z 004e9340 f   wikiareapages.obj
 0002:00030740       ?createDotFile@WikiAreaPages@@AAEXPAVMindArea@@AAVMindLocalCircuitDef@@AAV?$MapStringToClass@VMindLocalCircuitConnectionDef@@@@22@Z 004e9740 f   wikiareapages.obj
 0002:00031640       ?getRegionColor@WikiAreaPages@@AAE?AVString@@V2@@Z 004ea640 f   wikiareapages.obj
 0002:000318f0       ?getParent@XmlHMindElementInfo@@QBEPAV1@XZ 004ea8f0 f i wikiareapages.obj
 0002:00031930       ?createDotFile_subgraph@WikiAreaPages@@AAEXPAVMindArea@@AAVMindLocalCircuitDef@@_NAAV?$MapStringToClass@VMindLocalCircuitConnectionDef@@@@AAVStringList@@AAVString@@@Z 004ea930 f   wikiareapages.obj
 0002:00033800       ?count@?$MapStringToClass@VMindLocalCircuitDef@@@@QAEHXZ 004ec800 f i wikiareapages.obj
 0002:00033860       ?getClassByIndex@?$MapStringToClass@VMindLocalCircuitDef@@@@QAEPAVMindLocalCircuitDef@@H@Z 004ec860 f i wikiareapages.obj
 0002:00033920       ?getClassRefByIndex@?$MapStringToClass@VMindLocalCircuitDef@@@@QAEAAVMindLocalCircuitDef@@H@Z 004ec920 f i wikiareapages.obj
 0002:000339e0       ?getKeyByIndex@?$MapStringToClass@VMindRegionDef@@@@QAEPBDH@Z 004ec9e0 f i wikiareapages.obj
 0002:00033a90       ??0?$ClassList@VMindLocalCircuitConnectionDef@@@@QAE@XZ 004eca90 f i wikiareapages.obj
 0002:00033af0       ??1?$ClassList@VMindLocalCircuitConnectionDef@@@@QAE@XZ 004ecaf0 f i wikiareapages.obj
 0002:00033b50       ?count@?$ClassList@VMindLocalCircuitConnectionDef@@@@QBEHXZ 004ecb50 f i wikiareapages.obj
 0002:00033bb0       ?get@?$ClassList@VMindLocalCircuitConnectionDef@@@@QBEPAVMindLocalCircuitConnectionDef@@H@Z 004ecbb0 f i wikiareapages.obj
 0002:00033c10       ?add@?$ClassList@VMindLocalCircuitConnectionDef@@@@QAEHPAVMindLocalCircuitConnectionDef@@@Z 004ecc10 f i wikiareapages.obj
 0002:00033cb0       ?getKeyByIndex@?$MapStringToClass@VMindLocalCircuitConnectionDef@@@@QAEPBDH@Z 004eccb0 f i wikiareapages.obj
 0002:00033d60       ??0?$MapStringToClass@VMindArea@@@@QAE@XZ 004ecd60 f i wikiareapages.obj
 0002:00033dc0       ??1?$MapStringToClass@VMindArea@@@@QAE@XZ 004ecdc0 f i wikiareapages.obj
 0002:00033e20       ?add@?$MapStringToClass@VMindArea@@@@QAEHPBDPAVMindArea@@@Z 004ece20 f i wikiareapages.obj
 0002:00034030       ?get@?$MapStringToClass@VMindArea@@@@QAEPAVMindArea@@PBD@Z 004ed030 f i wikiareapages.obj
 0002:000340e0       ?count@?$MapStringToClass@VMindArea@@@@QAEHXZ 004ed0e0 f i wikiareapages.obj
 0002:00034140       ?getClassByIndex@?$MapStringToClass@VMindArea@@@@QAEPAVMindArea@@H@Z 004ed140 f i wikiareapages.obj
 0002:00034200       ??0?$MapStringToClass@VMindRegion@@@@QAE@XZ 004ed200 f i wikiareapages.obj
 0002:00034260       ??1?$MapStringToClass@VMindRegion@@@@QAE@XZ 004ed260 f i wikiareapages.obj
 0002:000342c0       ?add@?$MapStringToClass@VMindRegion@@@@QAEHPBDPAVMindRegion@@@Z 004ed2c0 f i wikiareapages.obj
 0002:000344d0       ?addnew@?$MapStringToClass@VMindRegion@@@@QAEHPBDPAVMindRegion@@@Z 004ed4d0 f i wikiareapages.obj
 0002:000345a0       ?get@?$MapStringToClass@VMindRegion@@@@QAEPAVMindRegion@@PBD@Z 004ed5a0 f i wikiareapages.obj
 0002:00034650       ?count@?$MapStringToClass@VMindRegion@@@@QAEHXZ 004ed650 f i wikiareapages.obj
 0002:000346b0       ?getClassByIndex@?$MapStringToClass@VMindRegion@@@@QAEPAVMindRegion@@H@Z 004ed6b0 f i wikiareapages.obj
 0002:00034770       ?getKeyByIndex@?$MapStringToClass@VMindRegion@@@@QAEPBDH@Z 004ed770 f i wikiareapages.obj
 0002:00034820       ??0?$MapStringToClass@V?$MapStringToClass@VMindLocalCircuitConnectionDef@@@@@@QAE@XZ 004ed820 f i wikiareapages.obj
 0002:00034880       ??1?$MapStringToClass@V?$MapStringToClass@VMindLocalCircuitConnectionDef@@@@@@QAE@XZ 004ed880 f i wikiareapages.obj
 0002:000348e0       ?add@?$MapStringToClass@V?$MapStringToClass@VMindLocalCircuitConnectionDef@@@@@@QAEHPBDPAV?$MapStringToClass@VMindLocalCircuitConnectionDef@@@@@Z 004ed8e0 f i wikiareapages.obj
 0002:00034af0       ?get@?$MapStringToClass@V?$MapStringToClass@VMindLocalCircuitConnectionDef@@@@@@QAEPAV?$MapStringToClass@VMindLocalCircuitConnectionDef@@@@PBD@Z 004edaf0 f i wikiareapages.obj
 0002:00034ba0       ?count@?$MapStringToClass@V?$MapStringToClass@VMindLocalCircuitConnectionDef@@@@@@QAEHXZ 004edba0 f i wikiareapages.obj
 0002:00034c00       ?getClassByIndex@?$MapStringToClass@V?$MapStringToClass@VMindLocalCircuitConnectionDef@@@@@@QAEPAV?$MapStringToClass@VMindLocalCircuitConnectionDef@@@@H@Z 004edc00 f i wikiareapages.obj
 0002:00034cc0       ?getKeyByIndex@?$MapStringToClass@V?$MapStringToClass@VMindLocalCircuitConnectionDef@@@@@@QAEPBDH@Z 004edcc0 f i wikiareapages.obj
 0002:00034d70       ??0?$MapStringToClass@V?$MapStringToClass@VMindRegion@@@@@@QAE@XZ 004edd70 f i wikiareapages.obj
 0002:00034dd0       ??1?$MapStringToClass@V?$MapStringToClass@VMindRegion@@@@@@QAE@XZ 004eddd0 f i wikiareapages.obj
 0002:00034e30       ?add@?$MapStringToClass@V?$MapStringToClass@VMindRegion@@@@@@QAEHPBDPAV?$MapStringToClass@VMindRegion@@@@@Z 004ede30 f i wikiareapages.obj
 0002:00035040       ?get@?$MapStringToClass@V?$MapStringToClass@VMindRegion@@@@@@QAEPAV?$MapStringToClass@VMindRegion@@@@PBD@Z 004ee040 f i wikiareapages.obj
 0002:000350f0       ?destroy@?$MapStringToClass@V?$MapStringToClass@VMindRegion@@@@@@QAEXXZ 004ee0f0 f i wikiareapages.obj
 0002:000351e0       ??0?$MapStringToClass@V?$ClassList@VMindLocalCircuitConnectionDef@@@@@@QAE@XZ 004ee1e0 f i wikiareapages.obj
 0002:00035240       ??1?$MapStringToClass@V?$ClassList@VMindLocalCircuitConnectionDef@@@@@@QAE@XZ 004ee240 f i wikiareapages.obj
 0002:000352a0       ?add@?$MapStringToClass@V?$ClassList@VMindLocalCircuitConnectionDef@@@@@@QAEHPBDPAV?$ClassList@VMindLocalCircuitConnectionDef@@@@@Z 004ee2a0 f i wikiareapages.obj
 0002:000354b0       ?get@?$MapStringToClass@V?$ClassList@VMindLocalCircuitConnectionDef@@@@@@QAEPAV?$ClassList@VMindLocalCircuitConnectionDef@@@@PBD@Z 004ee4b0 f i wikiareapages.obj
 0002:00035560       ?destroy@?$MapStringToClass@V?$ClassList@VMindLocalCircuitConnectionDef@@@@@@QAEXXZ 004ee560 f i wikiareapages.obj
 0002:00035650       ??_G?$MapStringToClass@VMindRegion@@@@QAEPAXI@Z 004ee650 f i wikiareapages.obj
 0002:000356c0       ??_G?$ClassList@VMindLocalCircuitConnectionDef@@@@QAEPAXI@Z 004ee6c0 f i wikiareapages.obj
 0002:00035730       ?sort@StringList@@QAEXXZ   004ee730 f i wikiareapages.obj
 0002:00035790       ?clear@StringList@@QAEXXZ  004ee790 f i wikiareapages.obj
 0002:000357f0       ??0MapStringToString@@QAE@XZ 004ee7f0 f i wikiareapages.obj
 0002:00035850       ??1MapStringToString@@QAE@XZ 004ee850 f i wikiareapages.obj
 0002:000358b0       ?add@MapStringToString@@QAEHPBD0@Z 004ee8b0 f i wikiareapages.obj
 0002:00035c60       ?addnew@MapStringToString@@QAEHPBD0@Z 004eec60 f i wikiareapages.obj
 0002:00035f10       ?destroy@MapStringToString@@QAEXXZ 004eef10 f i wikiareapages.obj
 0002:00035fc0       ?getServiceName@MindRegionDef@@QAE?AVString@@XZ 004eefc0 f i wikiareapages.obj
 0002:00036080       ?isTargetSensor@MindRegionDef@@QAE_NXZ 004ef080 f i wikiareapages.obj
 0002:00036100       ?isTargetEffector@MindRegionDef@@QAE_NXZ 004ef100 f i wikiareapages.obj
 0002:00036180       ?getName@MindLocalCircuitDef@@QAE?AVString@@XZ 004ef180 f i wikiareapages.obj
 0002:00036240       ?getRegions@MindLocalCircuitDef@@QAEAAV?$MapStringToClass@VMindRegionDef@@@@XZ 004ef240 f i wikiareapages.obj
 0002:00036280       ?getAreaType@MindAreaDef@@QAE?AVString@@XZ 004ef280 f i wikiareapages.obj
 0002:00036340       ?getAreaName@MindAreaDef@@QAE?AVString@@XZ 004ef340 f i wikiareapages.obj
 0002:00036400       ?getCircuits@MindAreaDef@@QAEAAV?$MapStringToClass@VMindLocalCircuitDef@@@@XZ 004ef400 f i wikiareapages.obj
 0002:00036440       ?getTypeName@MindLocalCircuitConnectionDef@@QAE?AVString@@XZ 004ef440 f i wikiareapages.obj
 0002:00036500       ?isPrimary@MindLocalCircuitConnectionDef@@QAE_NXZ 004ef500 f i wikiareapages.obj
 0002:00036540       ?getRegion@TargetRegionConnectorDef@@QAE?AVString@@XZ 004ef540 f i wikiareapages.obj
 0002:00036600       ?getAreaId@MindArea@@QAE?AVString@@XZ 004ef600 f i wikiareapages.obj
 0002:000366c0       ?isTargetArea@MindArea@@QAE_NXZ 004ef6c0 f i wikiareapages.obj
 0002:00036700       ?getMindAreaDef@MindArea@@QAEPAVMindAreaDef@@XZ 004ef700 f i wikiareapages.obj
 0002:00036740       ?getRegionType@MindRegion@@QAEPAVMindRegionTypeDef@@XZ 004ef740 f i wikiareapages.obj
 0002:00036780       ??0WikiCircuitPages@@QAE@PAVWikiMaker@@@Z 004ef780 f   wikicircuitpages.obj
 0002:00036840       ?getClass@WikiCircuitPages@@UAEPBDXZ 004ef840 f i wikicircuitpages.obj
 0002:00036880       ??_EWikiCircuitPages@@UAEPAXI@Z 004ef880 f i wikicircuitpages.obj
 0002:00036880       ??_GWikiCircuitPages@@UAEPAXI@Z 004ef880 f i wikicircuitpages.obj
 0002:000368f0       ??1WikiCircuitPages@@UAE@XZ 004ef8f0 f   wikicircuitpages.obj
 0002:00036990       ?execute@WikiCircuitPages@@QAEXXZ 004ef990 f   wikicircuitpages.obj
 0002:00036bd0       ?createCircuitPage@WikiCircuitPages@@AAEXVString@@0PAVMindGlobalCircuitDef@@@Z 004efbd0 f   wikicircuitpages.obj
 0002:00037120       ?createCircuitPage_getHeading@WikiCircuitPages@@AAEXVString@@PAVMindGlobalCircuitDef@@AAVStringList@@@Z 004f0120 f   wikicircuitpages.obj
 0002:00037540       ?createCircuitPage_getLinkList@WikiCircuitPages@@AAEXPAVMindGlobalCircuitDef@@AAV?$MapStringToClass@VMindLocalCircuitConnectionDef@@@@@Z 004f0540 f   wikicircuitpages.obj
 0002:00037770       ?createCircuitPage_getLinkSection@WikiCircuitPages@@AAEXPAVMindGlobalCircuitDef@@AAV?$MapStringToClass@VMindLocalCircuitConnectionDef@@@@AAVStringList@@@Z 004f0770 f   wikicircuitpages.obj
 0002:00037830       ?createCircuitPage_getLinksRow@WikiCircuitPages@@AAEXPAVMindGlobalCircuitDef@@PAVMindLocalCircuitConnectionDef@@AAVStringList@@@Z 004f0830 f   wikicircuitpages.obj
 0002:00037de0       ?createCircuitPage_getNodeList@WikiCircuitPages@@AAEXPAVMindGlobalCircuitDef@@AAV?$MapStringToClass@VMindRegion@@@@@Z 004f0de0 f   wikicircuitpages.obj
 0002:00038080       ?createCircuitPage_getNodeSection@WikiCircuitPages@@AAEXPAVMindGlobalCircuitDef@@AAV?$MapStringToClass@VMindRegion@@@@AAVStringList@@@Z 004f1080 f   wikicircuitpages.obj
 0002:00038140       ?createCircuitPage_getNodesRow@WikiCircuitPages@@AAEXPAVMindGlobalCircuitDef@@PAVMindRegion@@AAVStringList@@@Z 004f1140 f   wikicircuitpages.obj
 0002:00038780       ?createCircuitPage_getDiagram@WikiCircuitPages@@AAEXPAVMindGlobalCircuitDef@@AAV?$MapStringToClass@VMindRegion@@@@AAV?$MapStringToClass@VMindLocalCircuitConnectionDef@@@@AAVStringList@@@Z 004f1780 f   wikicircuitpages.obj
 0002:00039400       ?count@?$ClassList@VMindGlobalCircuitDef@@@@QBEHXZ 004f2400 f i wikicircuitpages.obj
 0002:00039460       ?get@?$ClassList@VMindGlobalCircuitDef@@@@QBEPAVMindGlobalCircuitDef@@H@Z 004f2460 f i wikicircuitpages.obj
 0002:000394c0       ?getMindGlobalCircuits@MindMap@@QAEAAV?$ClassList@VMindGlobalCircuitDef@@@@XZ 004f24c0 f i wikicircuitpages.obj
 0002:00039500       ?getId@MindGlobalCircuitDef@@QAE?AVString@@XZ 004f2500 f i wikicircuitpages.obj
 0002:000395c0       ?getName@MindGlobalCircuitDef@@QAE?AVString@@XZ 004f25c0 f i wikicircuitpages.obj
 0002:00039680       ?getConnections@MindGlobalCircuitDef@@QAEAAV?$ClassList@VMindLocalCircuitConnectionDef@@@@XZ 004f2680 f i wikicircuitpages.obj
 0002:000396c0       ??0WikiHierarchyPage@@QAE@PAVWikiMaker@@@Z 004f26c0 f   wikihierarchypage.obj
 0002:00039780       ?getClass@WikiHierarchyPage@@UAEPBDXZ 004f2780 f i wikihierarchypage.obj
 0002:000397c0       ??_GWikiHierarchyPage@@UAEPAXI@Z 004f27c0 f i wikihierarchypage.obj
 0002:000397c0       ??_EWikiHierarchyPage@@UAEPAXI@Z 004f27c0 f i wikihierarchypage.obj
 0002:00039830       ??1WikiHierarchyPage@@UAE@XZ 004f2830 f   wikihierarchypage.obj
 0002:000398d0       ?execute@WikiHierarchyPage@@QAEXXZ 004f28d0 f   wikihierarchypage.obj
 0002:00039d50       ?updateHierarchyPage_walkTree@WikiHierarchyPage@@AAEXVString@@HAAVStringList@@PAVMindArea@@PAVMindRegion@@@Z 004f2d50 f   wikihierarchypage.obj
 0002:0003a220       ?updateHierarchyPage_getArea@WikiHierarchyPage@@AAEPAVMindArea@@VString@@@Z 004f3220 f   wikihierarchypage.obj
 0002:0003a660       ?updateHierarchyPage_getRegion@WikiHierarchyPage@@AAEPAVMindRegion@@VString@@@Z 004f3660 f   wikihierarchypage.obj
 0002:0003aa90       ?updateHierarchyPage_getElementString@WikiHierarchyPage@@AAE?AVString@@V2@PAVMindArea@@PAVMindRegion@@12@Z 004f3a90 f   wikihierarchypage.obj
 0002:0003b600       ?updateHierarchyPage_walkNeocortex@WikiHierarchyPage@@AAEXVString@@00@Z 004f4600 f   wikihierarchypage.obj
 0002:0003b960       ?updateHierarchyPage_getNeocortexLobeLines@WikiHierarchyPage@@AAEXVString@@AAVStringList@@@Z 004f4960 f   wikihierarchypage.obj
 0002:0003c110       ?updateHierarchyPage_getNeocortexBrodmannLine@WikiHierarchyPage@@AAE?AVString@@V2@0@Z 004f5110 f   wikihierarchypage.obj
 0002:0003c400       ?updateHierarchyPage_walkNeocortexBrodmannLine@WikiHierarchyPage@@AAEXVString@@0AAVStringList@@@Z 004f5400 f   wikihierarchypage.obj
 0002:0003d000       ?get@MapStringToString@@QAEPBDPBD@Z 004f6000 f i wikihierarchypage.obj
 0002:0003d0b0       ??0WikiMainPage@@QAE@PAVWikiMaker@@@Z 004f60b0 f   wikimainpage.obj
 0002:0003d170       ?getClass@WikiMainPage@@UAEPBDXZ 004f6170 f i wikimainpage.obj
 0002:0003d1b0       ??_GWikiMainPage@@UAEPAXI@Z 004f61b0 f i wikimainpage.obj
 0002:0003d1b0       ??_EWikiMainPage@@UAEPAXI@Z 004f61b0 f i wikimainpage.obj
 0002:0003d220       ??1WikiMainPage@@UAE@XZ    004f6220 f   wikimainpage.obj
 0002:0003d2c0       ?execute@WikiMainPage@@QAEXXZ 004f62c0 f   wikimainpage.obj
 0002:0003d8d0       ??0?$MapStringToClass@VMindGlobalCircuitDef@@@@QAE@XZ 004f68d0 f i wikimainpage.obj
 0002:0003d930       ??1?$MapStringToClass@VMindGlobalCircuitDef@@@@QAE@XZ 004f6930 f i wikimainpage.obj
 0002:0003d990       ?add@?$MapStringToClass@VMindGlobalCircuitDef@@@@QAEHPBDPAVMindGlobalCircuitDef@@@Z 004f6990 f i wikimainpage.obj
 0002:0003dba0       ?count@?$MapStringToClass@VMindGlobalCircuitDef@@@@QAEHXZ 004f6ba0 f i wikimainpage.obj
 0002:0003dc00       ?getClassByIndex@?$MapStringToClass@VMindGlobalCircuitDef@@@@QAEPAVMindGlobalCircuitDef@@H@Z 004f6c00 f i wikimainpage.obj
 0002:0003dcc0       ??0WikiMaker@@QAE@VXml@@@Z 004f6cc0 f   wikimaker.obj
 0002:0003dde0       ?getClass@WikiMaker@@UAEPBDXZ 004f6de0 f i wikimaker.obj
 0002:0003de20       ??_EWikiMaker@@UAEPAXI@Z   004f6e20 f i wikimaker.obj
 0002:0003de20       ??_GWikiMaker@@UAEPAXI@Z   004f6e20 f i wikimaker.obj
 0002:0003de90       ??1WikiMaker@@UAE@XZ       004f6e90 f   wikimaker.obj
 0002:0003df80       ?createPages@WikiMaker@@QAEXXZ 004f6f80 f   wikimaker.obj
 0002:0003e040       ?createSpinalCordPage@WikiMaker@@AAEXXZ 004f7040 f   wikimaker.obj
 0002:0003e130       ?createTractsPages@WikiMaker@@AAEXXZ 004f7130 f   wikimaker.obj
 0002:0003e220       ?createPeripheralPage@WikiMaker@@AAEXXZ 004f7220 f   wikimaker.obj
 0002:0003e380       ?createMainPage@WikiMaker@@AAEXXZ 004f7380 f   wikimaker.obj
 0002:0003e470       ?createCircuitPages@WikiMaker@@AAEXXZ 004f7470 f   wikimaker.obj
 0002:0003e560       ?updateHierarchyPage@WikiMaker@@AAEXXZ 004f7560 f   wikimaker.obj
 0002:0003e650       ?createAreaPages@WikiMaker@@AAEXXZ 004f7650 f   wikimaker.obj
 0002:0003e740       ?createNervePages@WikiMaker@@AAEXXZ 004f7740 f   wikimaker.obj
 0002:0003e870       ?createMusclePages@WikiMaker@@AAEXXZ 004f7870 f   wikimaker.obj
 0002:0003e9a0       ?updateFileSection@WikiMaker@@QAEXVString@@00AAVStringList@@@Z 004f79a0 f   wikimaker.obj
 0002:0003fbc0       ?updateFileHeading@WikiMaker@@QAEXVString@@0AAVStringList@@@Z 004f8bc0 f   wikimaker.obj
 0002:000406c0       ?createFileContent@WikiMaker@@QAEXVString@@AAVStringList@@@Z 004f96c0 f   wikimaker.obj
 0002:00040ab0       ?setSpecialCharacters@WikiMaker@@QAE?AVString@@V2@@Z 004f9ab0 f   wikimaker.obj
 0002:00040c40       ?findReference@WikiMaker@@QAE?AVString@@PAVMindRegionLink@@@Z 004f9c40 f   wikimaker.obj
 0002:00040d80       ?findReference@WikiMaker@@QAE?AVString@@PAVMindLocalCircuitConnectionDef@@@Z 004f9d80 f   wikimaker.obj
 0002:00040eb0       ?findReference@WikiMaker@@QAE?AVString@@V2@0@Z 004f9eb0 f   wikimaker.obj
 0002:00041800       ?getAreaPage@WikiMaker@@QAE?AVString@@V2@@Z 004fa800 f   wikimaker.obj
 0002:00041910       ?getRegionPage@WikiMaker@@QAE?AVString@@V2@@Z 004fa910 f   wikimaker.obj
 0002:00041a70       ?ensureFileExists@WikiMaker@@QAEXVString@@0AAVStringList@@@Z 004faa70 f   wikimaker.obj
 0002:00041e00       ?getRegionReference@WikiMaker@@QAE?AVString@@V2@@Z 004fae00 f   wikimaker.obj
 0002:00042080       ?getComponentReferenceInfo@WikiMaker@@QAEABVXmlHMindElementInfo@@VString@@@Z 004fb080 f   wikimaker.obj
 0002:000422c0       ?getAvailableReference@WikiMaker@@QAE?AVString@@V2@@Z 004fb2c0 f   wikimaker.obj
 0002:000428c0       ?getComponentReference@WikiMaker@@QAE?AVString@@V2@@Z 004fb8c0 f   wikimaker.obj
 0002:00043440       ?getMuscleReference@WikiMaker@@QAE?AVString@@V2@0@Z 004fc440 f   wikimaker.obj
 0002:00043750       ?getAreaReference@WikiMaker@@QAE?AVString@@V2@@Z 004fc750 f   wikimaker.obj
 0002:000439d0       ?getDotColor@WikiMaker@@QAE?AVString@@V2@@Z 004fc9d0 f   wikimaker.obj
 0002:00043c50       ?getLinkProps@WikiMaker@@QAE?AVString@@PAVMindConnectionLinkTypeDef@@@Z 004fcc50 f   wikimaker.obj
 0002:00043ed0       ?clearRepeats1@WikiMaker@@QAEXAAVString@@@Z 004fced0 f   wikimaker.obj
 0002:00043f60       ?clearRepeats2@WikiMaker@@QAEXAAVString@@0@Z 004fcf60 f   wikimaker.obj
 0002:00044050       ?getNerveWikiPage@WikiMaker@@QAE?AVString@@V2@@Z 004fd050 f   wikimaker.obj
 0002:00044180       ?getTractPageLink@WikiMaker@@QAE?AVString@@V2@@Z 004fd180 f   wikimaker.obj
 0002:00044290       ?getImageWikiLink@WikiMaker@@QAE?AVString@@V2@0@Z 004fd290 f   wikimaker.obj
 0002:00044510       ?getImageWikiLink@WikiMaker@@QAE?AVString@@V2@HH@Z 004fd510 f   wikimaker.obj
 0002:00044840       ?getWikiLink@WikiMaker@@QAE?AVString@@V2@0@Z 004fd840 f   wikimaker.obj
 0002:00044ab0       ?getWikiBold@WikiMaker@@QAE?AVString@@V2@@Z 004fdab0 f   wikimaker.obj
 0002:00044c10       ?checkCreateMainPages@WikiMaker@@QAE_NXZ 004fdc10 f   wikimaker.obj
 0002:00044cf0       ?checkCreateNervePages@WikiMaker@@QAE_NXZ 004fdcf0 f   wikimaker.obj
 0002:00044dd0       ?checkCreateMusclePages@WikiMaker@@QAE_NXZ 004fddd0 f   wikimaker.obj
 0002:00044eb0       ?checkCreateOverallHierarchyPage@WikiMaker@@QAE_NXZ 004fdeb0 f   wikimaker.obj
 0002:00044f90       ?checkCreateCircuitPages@WikiMaker@@QAE_NXZ 004fdf90 f   wikimaker.obj
 0002:00045070       ?checkCreateRegionPages@WikiMaker@@QAE_NXZ 004fe070 f   wikimaker.obj
 0002:00045150       ?checkCreateAreaPages@WikiMaker@@QAE_NXZ 004fe150 f   wikimaker.obj
 0002:00045230       ?getWikiPath@WikiMaker@@QAE?AVString@@XZ 004fe230 f   wikimaker.obj
 0002:00045340       ?getWikiImagePath@WikiMaker@@QAE?AVString@@XZ 004fe340 f   wikimaker.obj
 0002:00045450       ?getWikiDotPath@WikiMaker@@QAE?AVString@@XZ 004fe450 f   wikimaker.obj
 0002:00045560       ?getDefaultDotSetup@WikiMaker@@QAE?AVString@@XZ 004fe560 f   wikimaker.obj
 0002:00045620       ?getDefaultDotRegionSetup@WikiMaker@@QAE?AVString@@XZ 004fe620 f   wikimaker.obj
 0002:000456e0       ?getMainPage@WikiMaker@@QAE?AVString@@XZ 004fe6e0 f   wikimaker.obj
 0002:000457a0       ?getOverallHierarchyPage@WikiMaker@@QAE?AVString@@XZ 004fe7a0 f   wikimaker.obj
 0002:00045860       ?getSpinalCordPage@WikiMaker@@QAE?AVString@@XZ 004fe860 f   wikimaker.obj
 0002:00045920       ?getSpinalCordPageLayoutSection@WikiMaker@@QAE?AVString@@XZ 004fe920 f   wikimaker.obj
 0002:000459e0       ?getMainTractPage@WikiMaker@@QAE?AVString@@XZ 004fe9e0 f   wikimaker.obj
 0002:00045aa0       ?getMainTractLocationSection@WikiMaker@@QAE?AVString@@XZ 004feaa0 f   wikimaker.obj
 0002:00045b60       ?getMainTractPageListSection@WikiMaker@@QAE?AVString@@XZ 004feb60 f   wikimaker.obj
 0002:00045c20       ?getMainTractPageNeuronsSection@WikiMaker@@QAE?AVString@@XZ 004fec20 f   wikimaker.obj
 0002:00045ce0       ?getMainNervePage@WikiMaker@@QAE?AVString@@XZ 004fece0 f   wikimaker.obj
 0002:00045da0       ?getMainNervePageListSection@WikiMaker@@QAE?AVString@@XZ 004feda0 f   wikimaker.obj
 0002:00045e60       ?getMainMusclePage@WikiMaker@@QAE?AVString@@XZ 004fee60 f   wikimaker.obj
 0002:00045f20       ?getMainMusclePageListSection@WikiMaker@@QAE?AVString@@XZ 004fef20 f   wikimaker.obj
 0002:00045fe0       ?getCategoryPageRegionSection@WikiMaker@@QAE?AVString@@XZ 004fefe0 f   wikimaker.obj
 0002:000460a0       ?getCategoryPageSensoryLinkSection@WikiMaker@@QAE?AVString@@XZ 004ff0a0 f   wikimaker.obj
 0002:00046160       ?getCategoryPageMotorLinkSection@WikiMaker@@QAE?AVString@@XZ 004ff160 f   wikimaker.obj
 0002:00046220       ?getCategoryPageReciprocalLinkSection@WikiMaker@@QAE?AVString@@XZ 004ff220 f   wikimaker.obj
 0002:000462e0       ?getCategoryPageGangliaLinkSection@WikiMaker@@QAE?AVString@@XZ 004ff2e0 f   wikimaker.obj
 0002:000463a0       ?getSelectedArea@WikiMaker@@QAE?AVString@@XZ 004ff3a0 f   wikimaker.obj
 0002:000464e0       ?getPeripheralPage@WikiMaker@@QAE?AVString@@XZ 004ff4e0 f   wikimaker.obj
 0002:000465a0       ?getCircuitDotPath@WikiMaker@@QAE?AVString@@AAVMindLocalCircuitDef@@@Z 004ff5a0 f   wikimaker.obj
 0002:000468d0       ?getCircuitImageRef@WikiMaker@@QAE?AVString@@AAVMindLocalCircuitDef@@@Z 004ff8d0 f   wikimaker.obj
 0002:00046cb0       ?getTableCellAttribute@WikiMaker@@QAE?AVString@@PBD0V2@_NH@Z 004ffcb0 f   wikimaker.obj
 0002:00047330       ?combine@StringList@@QAE?AVString@@V2@@Z 00500330 f i wikimaker.obj
 0002:00047540       ?getImgHeight@MindLocalCircuitDef@@QAE?AVString@@XZ 00500540 f i wikimaker.obj
 0002:00047600       ?getAreaDef@MindLocalCircuitDef@@QAEPAVMindAreaDef@@XZ 00500600 f i wikimaker.obj
 0002:00047640       ?getAreaId@MindAreaDef@@QAE?AVString@@XZ 00500640 f i wikimaker.obj
 0002:00047700       ?getNeurotransmitter@MindConnectionLinkTypeDef@@QAE?AVString@@XZ 00500700 f i wikimaker.obj
 0002:000477c0       ??0WikiMuscleMainPage@@QAE@PAVWikiMaker@@@Z 005007c0 f   wikimusclemainpage.obj
 0002:00047880       ?getClass@WikiMuscleMainPage@@UAEPBDXZ 00500880 f i wikimusclemainpage.obj
 0002:000478c0       ??_GWikiMuscleMainPage@@UAEPAXI@Z 005008c0 f i wikimusclemainpage.obj
 0002:000478c0       ??_EWikiMuscleMainPage@@UAEPAXI@Z 005008c0 f i wikimusclemainpage.obj
 0002:00047930       ??1WikiMuscleMainPage@@UAE@XZ 00500930 f   wikimusclemainpage.obj
 0002:000479d0       ?execute@WikiMuscleMainPage@@QAEXXZ 005009d0 f   wikimusclemainpage.obj
 0002:00048180       ?getDivisions@XmlMuscles@@QAEAAV?$MapStringToClass@VXmlMuscleDivision@@@@XZ 00501180 f i wikimusclemainpage.obj
 0002:000481c0       ?addMuscles@WikiMuscleMainPage@@AAEXHAAVXmlMuscleDivision@@AAV?$MapStringToClass@VXmlMuscleInfo@@@@AAVStringList@@@Z 005011c0 f   wikimusclemainpage.obj
 0002:00048740       ?count@?$MapStringToClass@VXmlMuscleInfo@@@@QAEHXZ 00501740 f i wikimusclemainpage.obj
 0002:000487a0       ?getClassRefByIndex@?$MapStringToClass@VXmlMuscleInfo@@@@QAEAAVXmlMuscleInfo@@H@Z 005017a0 f i wikimusclemainpage.obj
 0002:00048860       ?count@?$MapStringToClass@VXmlMuscleDivision@@@@QAEHXZ 00501860 f i wikimusclemainpage.obj
 0002:000488c0       ?getClassRefByIndex@?$MapStringToClass@VXmlMuscleDivision@@@@QAEAAVXmlMuscleDivision@@H@Z 005018c0 f i wikimusclemainpage.obj
 0002:00048980       ??0WikiMuscleSpecPages@@QAE@PAVWikiMaker@@@Z 00501980 f   wikimusclespecpages.obj
 0002:00048a40       ?getClass@WikiMuscleSpecPages@@UAEPBDXZ 00501a40 f i wikimusclespecpages.obj
 0002:00048a80       ??_GWikiMuscleSpecPages@@UAEPAXI@Z 00501a80 f i wikimusclespecpages.obj
 0002:00048a80       ??_EWikiMuscleSpecPages@@UAEPAXI@Z 00501a80 f i wikimusclespecpages.obj
 0002:00048af0       ??1WikiMuscleSpecPages@@UAE@XZ 00501af0 f   wikimusclespecpages.obj
 0002:00048b90       ?execute@WikiMuscleSpecPages@@QAEXXZ 00501b90 f   wikimusclespecpages.obj
 0002:00048c70       ?addMuscleDivision@WikiMuscleSpecPages@@AAEXAAVXmlMuscleDivision@@@Z 00501c70 f   wikimusclespecpages.obj
 0002:00048f10       ?getNerveList@WikiMuscleSpecPages@@AAE?AVString@@AAVXmlMuscleInfo@@@Z 00501f10 f   wikimusclespecpages.obj
 0002:000492b0       ?addMuscleList@WikiMuscleSpecPages@@AAEXHAAVXmlMuscleInfo@@AAVStringList@@@Z 005022b0 f   wikimusclespecpages.obj
 0002:00049d30       ??0WikiNerveMainPage@@QAE@PAVWikiMaker@@@Z 00502d30 f   wikinervemainpage.obj
 0002:00049df0       ?getClass@WikiNerveMainPage@@UAEPBDXZ 00502df0 f i wikinervemainpage.obj
 0002:00049e30       ??_GWikiNerveMainPage@@UAEPAXI@Z 00502e30 f i wikinervemainpage.obj
 0002:00049e30       ??_EWikiNerveMainPage@@UAEPAXI@Z 00502e30 f i wikinervemainpage.obj
 0002:00049ea0       ??1WikiNerveMainPage@@UAE@XZ 00502ea0 f   wikinervemainpage.obj
 0002:00049f40       ?execute@WikiNerveMainPage@@QAEXXZ 00502f40 f   wikinervemainpage.obj
 0002:0004a240       ?addNerve@WikiNerveMainPage@@AAEXHAAVXmlNerveInfo@@AAVStringList@@@Z 00503240 f   wikinervemainpage.obj
 0002:0004a780       ?getClassByIndex@?$MapStringToClass@VXmlNerveInfo@@@@QAEPAVXmlNerveInfo@@H@Z 00503780 f i wikinervemainpage.obj
 0002:0004a840       ??0WikiNerveSpecPages@@QAE@PAVWikiMaker@@@Z 00503840 f   wikinervespecpages.obj
 0002:0004a900       ?getClass@WikiNerveSpecPages@@UAEPBDXZ 00503900 f i wikinervespecpages.obj
 0002:0004a940       ??_GWikiNerveSpecPages@@UAEPAXI@Z 00503940 f i wikinervespecpages.obj
 0002:0004a940       ??_EWikiNerveSpecPages@@UAEPAXI@Z 00503940 f i wikinervespecpages.obj
 0002:0004a9b0       ??1WikiNerveSpecPages@@UAE@XZ 005039b0 f   wikinervespecpages.obj
 0002:0004aa50       ?execute@WikiNerveSpecPages@@QAEXXZ 00503a50 f   wikinervespecpages.obj
 0002:0004ab30       ?addNerveDivision@WikiNerveSpecPages@@AAEXAAVXmlNerveInfo@@@Z 00503b30 f   wikinervespecpages.obj
 0002:0004af20       ?addNucleiGroup@WikiNerveSpecPages@@AAEXAAVXmlNerveInfo@@VString@@AAVStringList@@2@Z 00503f20 f   wikinervespecpages.obj
 0002:0004b5d0       ?addNerveList@WikiNerveSpecPages@@AAEXHAAVXmlNerveInfo@@AAVStringList@@@Z 005045d0 f   wikinervespecpages.obj
 0002:0004c3e0       ?getNerveDivision_fibers@WikiNerveSpecPages@@AAE?AVString@@AAV?$ClassList@VXmlNerveFiberInfo@@@@@Z 005053e0 f   wikinervespecpages.obj
 0002:0004c650       ?getNerveDivision_rootNerves@WikiNerveSpecPages@@AAE?AVString@@VStringList@@@Z 00505650 f   wikinervespecpages.obj
 0002:0004c9f0       ?getNerveDivision_fiberchain@WikiNerveSpecPages@@AAE?AVString@@AAVXmlNerveFiberInfo@@@Z 005059f0 f   wikinervespecpages.obj
 0002:0004cf90       ?getNerveDivision_muscles@WikiNerveSpecPages@@AAE?AVString@@V2@@Z 00505f90 f   wikinervespecpages.obj
 0002:0004d470       ??0WikiCategoryPage@@QAE@PAVWikiMaker@@@Z 00506470 f   wikicategorypage.obj
 0002:0004d530       ?getClass@WikiCategoryPage@@UAEPBDXZ 00506530 f i wikicategorypage.obj
 0002:0004d570       ??_EWikiCategoryPage@@UAEPAXI@Z 00506570 f i wikicategorypage.obj
 0002:0004d570       ??_GWikiCategoryPage@@UAEPAXI@Z 00506570 f i wikicategorypage.obj
 0002:0004d5e0       ??1WikiCategoryPage@@UAE@XZ 005065e0 f   wikicategorypage.obj
 0002:0004d680       ?execute@WikiCategoryPage@@QAEXVString@@0@Z 00506680 f   wikicategorypage.obj
 0002:0004d870       ?createRegions@WikiCategoryPage@@AAEXPAVXmlBrainCategory@@VString@@@Z 00506870 f   wikicategorypage.obj
 0002:0004e7e0       ?createConnectivity@WikiCategoryPage@@AAEXPAVXmlBrainCategory@@VString@@@Z 005077e0 f   wikicategorypage.obj
 0002:0004ef60       ?getTractPathMap@XmlTracts@@QAEAAV?$MapStringToClass@VXmlBrainTractPath@@@@XZ 00507f60 f i wikicategorypage.obj
 0002:0004efa0       ?createConnectivity_fillSection@WikiCategoryPage@@AAEXVString@@0AAV?$MapStringToClass@VStringList@@@@@Z 00507fa0 f   wikicategorypage.obj
 0002:0004f460       ?createConnectivity_fillSectionTree@WikiCategoryPage@@AAEXAAV?$MapStringToClass@VStringList@@@@HAAVXmlHMindElementInfo@@AAV?$MapStringToClass@VXmlHMindElementInfo@@@@AAVStringList@@@Z 00508460 f   wikicategorypage.obj
 0002:0004fa60       ?createConnectivity_extractNuclei@WikiCategoryPage@@AAEXAAV?$MapStringToClass@VXmlHMindElementInfo@@@@AAVXmlBrainTractPath@@AAV?$MapStringToClass@VStringList@@@@22@Z 00508a60 f   wikicategorypage.obj
 0002:0004fe50       ?isTarget@XmlHMindElementInfo@@QBE_NXZ 00508e50 f i wikicategorypage.obj
 0002:0004fec0       ?isGanglion@XmlHMindElementInfo@@QBE_NXZ 00508ec0 f i wikicategorypage.obj
 0002:0004ff40       ?createConnectivity_addTract@WikiCategoryPage@@AAEXAAV?$MapStringToClass@VStringList@@@@AAVXmlHMindElementInfo@@AAVXmlBrainTractPath@@@Z 00508f40 f   wikicategorypage.obj
 0002:00050090       ??0?$MapStringToClass@VXmlHMindElementInfo@@@@QAE@XZ 00509090 f i wikicategorypage.obj
 0002:000500f0       ??1?$MapStringToClass@VXmlHMindElementInfo@@@@QAE@XZ 005090f0 f i wikicategorypage.obj
 0002:00050150       ?add@?$MapStringToClass@VXmlHMindElementInfo@@@@QAEHPBDPAVXmlHMindElementInfo@@@Z 00509150 f i wikicategorypage.obj
 0002:00050360       ?addnew@?$MapStringToClass@VXmlHMindElementInfo@@@@QAEHPBDPAVXmlHMindElementInfo@@@Z 00509360 f i wikicategorypage.obj
 0002:00050430       ?get@?$MapStringToClass@VXmlHMindElementInfo@@@@QAEPAVXmlHMindElementInfo@@PBD@Z 00509430 f i wikicategorypage.obj
 0002:000504e0       ?count@?$MapStringToClass@VXmlHMindElementInfo@@@@QAEHXZ 005094e0 f i wikicategorypage.obj
 0002:00050540       ?getClassRefByIndex@?$MapStringToClass@VXmlHMindElementInfo@@@@QAEAAVXmlHMindElementInfo@@H@Z 00509540 f i wikicategorypage.obj
 0002:00050600       ??0?$MapStringToClass@VStringList@@@@QAE@XZ 00509600 f i wikicategorypage.obj
 0002:00050660       ??1?$MapStringToClass@VStringList@@@@QAE@XZ 00509660 f i wikicategorypage.obj
 0002:000506c0       ?add@?$MapStringToClass@VStringList@@@@QAEHPBDPAVStringList@@@Z 005096c0 f i wikicategorypage.obj
 0002:000508d0       ?get@?$MapStringToClass@VStringList@@@@QAEPAVStringList@@PBD@Z 005098d0 f i wikicategorypage.obj
 0002:00050980       ?count@?$MapStringToClass@VStringList@@@@QAEHXZ 00509980 f i wikicategorypage.obj
 0002:000509e0       ?destroy@?$MapStringToClass@VStringList@@@@QAEXXZ 005099e0 f i wikicategorypage.obj
 0002:00050ad0       ?getClassByIndex@?$MapStringToClass@VStringList@@@@QAEPAVStringList@@H@Z 00509ad0 f i wikicategorypage.obj
 0002:00050b90       ?getKeyByIndex@?$MapStringToClass@VStringList@@@@QAEPBDH@Z 00509b90 f i wikicategorypage.obj
 0002:00050c40       ??0?$MapStringToClass@V?$MapStringToClass@V?$MapStringToClass@VXmlHMindElementInfo@@@@@@@@QAE@XZ 00509c40 f i wikicategorypage.obj
 0002:00050ca0       ??1?$MapStringToClass@V?$MapStringToClass@V?$MapStringToClass@VXmlHMindElementInfo@@@@@@@@QAE@XZ 00509ca0 f i wikicategorypage.obj
 0002:00050d00       ?add@?$MapStringToClass@V?$MapStringToClass@V?$MapStringToClass@VXmlHMindElementInfo@@@@@@@@QAEHPBDPAV?$MapStringToClass@V?$MapStringToClass@VXmlHMindElementInfo@@@@@@@Z 00509d00 f i wikicategorypage.obj
 0002:00050f10       ?get@?$MapStringToClass@V?$MapStringToClass@V?$MapStringToClass@VXmlHMindElementInfo@@@@@@@@QAEPAV?$MapStringToClass@V?$MapStringToClass@VXmlHMindElementInfo@@@@@@PBD@Z 00509f10 f i wikicategorypage.obj
 0002:00050fc0       ?count@?$MapStringToClass@V?$MapStringToClass@V?$MapStringToClass@VXmlHMindElementInfo@@@@@@@@QAEHXZ 00509fc0 f i wikicategorypage.obj
 0002:00051020       ?destroy@?$MapStringToClass@V?$MapStringToClass@V?$MapStringToClass@VXmlHMindElementInfo@@@@@@@@QAEXXZ 0050a020 f i wikicategorypage.obj
 0002:00051110       ?getClassRefByIndex@?$MapStringToClass@V?$MapStringToClass@V?$MapStringToClass@VXmlHMindElementInfo@@@@@@@@QAEAAV?$MapStringToClass@V?$MapStringToClass@VXmlHMindElementInfo@@@@@@H@Z 0050a110 f i wikicategorypage.obj
 0002:000511d0       ?getKeyByIndex@?$MapStringToClass@V?$MapStringToClass@V?$MapStringToClass@VXmlHMindElementInfo@@@@@@@@QAEPBDH@Z 0050a1d0 f i wikicategorypage.obj
 0002:00051280       ??0?$MapStringToClass@V?$MapStringToClass@VXmlHMindElementInfo@@@@@@QAE@XZ 0050a280 f i wikicategorypage.obj
 0002:000512e0       ?add@?$MapStringToClass@V?$MapStringToClass@VXmlHMindElementInfo@@@@@@QAEHPBDPAV?$MapStringToClass@VXmlHMindElementInfo@@@@@Z 0050a2e0 f i wikicategorypage.obj
 0002:000514f0       ?get@?$MapStringToClass@V?$MapStringToClass@VXmlHMindElementInfo@@@@@@QAEPAV?$MapStringToClass@VXmlHMindElementInfo@@@@PBD@Z 0050a4f0 f i wikicategorypage.obj
 0002:000515a0       ?count@?$MapStringToClass@V?$MapStringToClass@VXmlHMindElementInfo@@@@@@QAEHXZ 0050a5a0 f i wikicategorypage.obj
 0002:00051600       ?destroy@?$MapStringToClass@V?$MapStringToClass@VXmlHMindElementInfo@@@@@@QAEXXZ 0050a600 f i wikicategorypage.obj
 0002:000516f0       ?getClassRefByIndex@?$MapStringToClass@V?$MapStringToClass@VXmlHMindElementInfo@@@@@@QAEAAV?$MapStringToClass@VXmlHMindElementInfo@@@@H@Z 0050a6f0 f i wikicategorypage.obj
 0002:000517b0       ?getKeyByIndex@?$MapStringToClass@V?$MapStringToClass@VXmlHMindElementInfo@@@@@@QAEPBDH@Z 0050a7b0 f i wikicategorypage.obj
 0002:00051860       ??_GStringList@@QAEPAXI@Z  0050a860 f i wikicategorypage.obj
 0002:000518d0       ??_G?$MapStringToClass@V?$MapStringToClass@VXmlHMindElementInfo@@@@@@QAEPAXI@Z 0050a8d0 f i wikicategorypage.obj
 0002:00051940       ??_G?$MapStringToClass@VXmlHMindElementInfo@@@@QAEPAXI@Z 0050a940 f i wikicategorypage.obj
 0002:000519b0       ??1?$MapStringToClass@V?$MapStringToClass@VXmlHMindElementInfo@@@@@@QAE@XZ 0050a9b0 f i wikicategorypage.obj
 0002:00051a10       ?addnew@StringList@@QAEHPBD@Z 0050aa10 f i wikicategorypage.obj
 0002:00051b10       ?add@StringList@@QAEHPAV1@@Z 0050ab10 f i wikicategorypage.obj
 0002:00051c10       ?addnew@StringList@@QAEHPAV1@@Z 0050ac10 f i wikicategorypage.obj
 0002:00051da0       ??0WikiRegionPage@@QAE@PAVWikiMaker@@VString@@PAVMindRegion@@@Z 0050ada0 f   wikiregionpage.obj
 0002:00051f00       ?getClass@WikiRegionPage@@UAEPBDXZ 0050af00 f i wikiregionpage.obj
 0002:00051f40       ??_EWikiRegionPage@@UAEPAXI@Z 0050af40 f i wikiregionpage.obj
 0002:00051f40       ??_GWikiRegionPage@@UAEPAXI@Z 0050af40 f i wikiregionpage.obj
 0002:00051fb0       ??1WikiRegionPage@@UAE@XZ  0050afb0 f   wikiregionpage.obj
 0002:00052070       ?execute@WikiRegionPage@@QAEXXZ 0050b070 f   wikiregionpage.obj
 0002:000522c0       ?createHeading@WikiRegionPage@@AAEXXZ 0050b2c0 f   wikiregionpage.obj
 0002:000536c0       ?createChildTableSection@WikiRegionPage@@AAEXXZ 0050c6c0 f   wikiregionpage.obj
 0002:00053b40       ?createChildTableSection_addChilds@WikiRegionPage@@AAEXVXml@@VString@@AAVStringList@@@Z 0050cb40 f   wikiregionpage.obj
 0002:00054340       ?createChildTableSection_getChildNameItem@WikiRegionPage@@AAE?AVString@@VXml@@@Z 0050d340 f   wikiregionpage.obj
 0002:000549f0       ?isConnector@XmlHMindElementInfo@@QBE_NXZ 0050d9f0 f i wikiregionpage.obj
 0002:00054a40       ?createChildTableSection_getChildIdItem@WikiRegionPage@@AAE?AVString@@VXml@@@Z 0050da40 f   wikiregionpage.obj
 0002:00054ce0       ?createChildTableSection_getChildDetails@WikiRegionPage@@AAE?AVString@@VXml@@@Z 0050dce0 f   wikiregionpage.obj
 0002:00055e30       ?createConnectivitySection@WikiRegionPage@@AAEXXZ 0050ee30 f   wikiregionpage.obj
 0002:00056580       ?createConnectivitySection_getExternalConnections@WikiRegionPage@@AAEXAAV?$MapStringToClass@VMindRegionLink@@@@_N@Z 0050f580 f   wikiregionpage.obj
 0002:00056cb0       ?createConnectivitySection_getExternalConnectionTableLine@WikiRegionPage@@AAEXPAVMindRegionLink@@AAVStringList@@_N@Z 0050fcb0 f   wikiregionpage.obj
 0002:00057a30       ?createThirdpartyAndReferencesSection@WikiRegionPage@@AAEXXZ 00510a30 f   wikiregionpage.obj
 0002:00058350       ?createThirdpartyAndReferencesSection_getCircuitKey@WikiRegionPage@@AAE?AVString@@PAVMindRegion@@AAVXmlCircuitInfo@@@Z 00511350 f   wikiregionpage.obj
 0002:00058740       ?createThirdpartyAndReferencesSection_getCircuitLines@WikiRegionPage@@AAEXAAVXmlCircuitInfo@@AAVStringList@@@Z 00511740 f   wikiregionpage.obj
 0002:00058e90       ?createDotFile@WikiRegionPage@@AAEXAAV?$MapStringToClass@VMindRegion@@@@AAV?$MapStringToClass@VMindRegionLink@@@@@Z 00511e90 f   wikiregionpage.obj
 0002:0005ab20       ??0?$MapStringToClass@VMindRegionLink@@@@QAE@XZ 00513b20 f i wikiregionpage.obj
 0002:0005ab80       ??1?$MapStringToClass@VMindRegionLink@@@@QAE@XZ 00513b80 f i wikiregionpage.obj
 0002:0005abe0       ?add@?$MapStringToClass@VMindRegionLink@@@@QAEHPBDPAVMindRegionLink@@@Z 00513be0 f i wikiregionpage.obj
 0002:0005adf0       ?add@?$MapStringToClass@VMindRegionLink@@@@QAEXAAV1@@Z 00513df0 f i wikiregionpage.obj
 0002:0005aea0       ?get@?$MapStringToClass@VMindRegionLink@@@@QAEPAVMindRegionLink@@PBD@Z 00513ea0 f i wikiregionpage.obj
 0002:0005af50       ?clear@?$MapStringToClass@VMindRegionLink@@@@QAEXXZ 00513f50 f i wikiregionpage.obj
 0002:0005afb0       ?count@?$MapStringToClass@VMindRegionLink@@@@QAEHXZ 00513fb0 f i wikiregionpage.obj
 0002:0005b010       ?getClassByIndex@?$MapStringToClass@VMindRegionLink@@@@QAEPAVMindRegionLink@@H@Z 00514010 f i wikiregionpage.obj
 0002:0005b0d0       ?addnew@?$MapStringToClass@VMindArea@@@@QAEHPBDPAVMindArea@@@Z 005140d0 f i wikiregionpage.obj
 0002:0005b1a0       ?getRef@?$ClassList@VNeuroLink@@@@QBEAAVNeuroLink@@H@Z 005141a0 f i wikiregionpage.obj
 0002:0005b200       ?get@?$ClassList@VNeuroLink@@@@QBEPAVNeuroLink@@H@Z 00514200 f i wikiregionpage.obj
 0002:0005b260       ?getName@MindConnectionLinkTypeDef@@QAE?AVString@@XZ 00514260 f i wikiregionpage.obj
 0002:0005b320       ?getSource@NeuroLink@@QAEPAVNeuroLinkSource@@XZ 00514320 f i wikiregionpage.obj
 0002:0005b360       ?getTarget@NeuroLink@@QAEPAVNeuroLinkTarget@@XZ 00514360 f i wikiregionpage.obj
 0002:0005b3a0       ?getRegion@NeuroLinkSource@@QAEPAVMindRegion@@XZ 005143a0 f i wikiregionpage.obj
 0002:0005b3e0       ?getRegion@NeuroLinkTarget@@QAEPAVMindRegion@@XZ 005143e0 f i wikiregionpage.obj
 0002:0005b420       ?getConnectionType@MindRegionLink@@QAEPAVMindConnectionLinkTypeDef@@XZ 00514420 f i wikiregionpage.obj
 0002:0005b460       ??0WikiSpinalCordPage@@QAE@PAVWikiMaker@@@Z 00514460 f   wikispinalcordpage.obj
 0002:0005b520       ?getClass@WikiSpinalCordPage@@UAEPBDXZ 00514520 f i wikispinalcordpage.obj
 0002:0005b560       ??_GWikiSpinalCordPage@@UAEPAXI@Z 00514560 f i wikispinalcordpage.obj
 0002:0005b560       ??_EWikiSpinalCordPage@@UAEPAXI@Z 00514560 f i wikispinalcordpage.obj
 0002:0005b5d0       ??1WikiSpinalCordPage@@UAE@XZ 005145d0 f   wikispinalcordpage.obj
 0002:0005b670       ?execute@WikiSpinalCordPage@@QAEXXZ 00514670 f   wikispinalcordpage.obj
 0002:0005b700       ?createLayout@WikiSpinalCordPage@@AAEXXZ 00514700 f   wikispinalcordpage.obj
 0002:0005bfd0       ?getSpinalCord@XmlHMind@@QAEPAVXmlSpinalCord@@XZ 00514fd0 f i wikispinalcordpage.obj
 0002:0005c010       ?getImageSrc@XmlSpinalCord@@QAE?AVString@@XZ 00515010 f i wikispinalcordpage.obj
 0002:0005c0d0       ?getImageHeight@XmlSpinalCord@@QAE?AVString@@XZ 005150d0 f i wikispinalcordpage.obj
 0002:0005c190       ??0WikiTractsPages@@QAE@PAVWikiMaker@@@Z 00515190 f   wikitractspages.obj
 0002:0005c250       ?getClass@WikiTractsPages@@UAEPBDXZ 00515250 f i wikitractspages.obj
 0002:0005c290       ??_GWikiTractsPages@@UAEPAXI@Z 00515290 f i wikitractspages.obj
 0002:0005c290       ??_EWikiTractsPages@@UAEPAXI@Z 00515290 f i wikitractspages.obj
 0002:0005c300       ??1WikiTractsPages@@UAE@XZ 00515300 f   wikitractspages.obj
 0002:0005c3a0       ?execute@WikiTractsPages@@QAEXXZ 005153a0 f   wikitractspages.obj
 0002:0005c440       ?createTractsMain@WikiTractsPages@@AAEXXZ 00515440 f   wikitractspages.obj
 0002:0005c700       ?createTractsHirarchy@WikiTractsPages@@AAEXXZ 00515700 f   wikitractspages.obj
 0002:0005ca10       ?createTracts_addTractSetLinks@WikiTractsPages@@AAEXAAVXmlBrainTractSet@@AAVStringList@@@Z 00515a10 f   wikitractspages.obj
 0002:0005ce10       ?createTracts_addTractLinks@WikiTractsPages@@AAEXHAAVXmlBrainTract@@AAVStringList@@@Z 00515e10 f   wikitractspages.obj
 0002:0005d4d0       ?createTracts_addTractTableLines@WikiTractsPages@@AAEXAAV?$MapStringToClass@VXmlBrainTractSet@@@@AAVStringList@@@Z 005164d0 f   wikitractspages.obj
 0002:0005d590       ?createTracts_addTractSetTableLines@WikiTractsPages@@AAEXAAVXmlBrainTractSet@@AAVStringList@@@Z 00516590 f   wikitractspages.obj
 0002:0005d760       ?createTracts_addTractTableLines@WikiTractsPages@@AAEXHAAVXmlBrainTract@@AAVStringList@@@Z 00516760 f   wikitractspages.obj
 0002:0005ddd0       ?createTracts_addTractSetLines@WikiTractsPages@@AAEXAAVXmlBrainTractSet@@AAVStringList@@@Z 00516dd0 f   wikitractspages.obj
 0002:0005e0c0       ?createTracts_addTractLines@WikiTractsPages@@AAEXHAAVXmlBrainTract@@AAVStringList@@@Z 005170c0 f   wikitractspages.obj
 0002:0005ecd0       ?createTracts_addTractPathLines@WikiTractsPages@@AAEXHAAVXmlBrainTractPath@@AAVStringList@@@Z 00517cd0 f   wikitractspages.obj
 0002:0005f4a0       ?createNeurons@WikiTractsPages@@AAEXXZ 005184a0 f   wikitractspages.obj
 0002:0005f7a0       ?getEndings@XmlTracts@@QAEAAV?$MapStringToClass@VXmlBrainEndingSet@@@@XZ 005187a0 f i wikitractspages.obj
 0002:0005f7e0       ?createNeurons_addEndings@WikiTractsPages@@AAEXAAVXmlBrainEndingSet@@AAVStringList@@@Z 005187e0 f   wikitractspages.obj
 0002:0005fad0       ?createNeurons_addEndingItem@WikiTractsPages@@AAEXHAAVXmlBrainEnding@@AAVStringList@@@Z 00518ad0 f   wikitractspages.obj
 0002:00060350       ?createNeurons_addFibers@WikiTractsPages@@AAEXHAAV?$MapStringToClass@VXmlBrainFiber@@@@AAVStringList@@@Z 00519350 f   wikitractspages.obj
 0002:000603f0       ?createNeurons_addFiberInfo@WikiTractsPages@@AAEXHAAVXmlBrainFiber@@AAVStringList@@@Z 005193f0 f   wikitractspages.obj
 0002:00060e10       ?count@?$MapStringToClass@VXmlBrainEndingSet@@@@QAEHXZ 00519e10 f i wikitractspages.obj
 0002:00060e70       ?getClassRefByIndex@?$MapStringToClass@VXmlBrainEndingSet@@@@QAEAAVXmlBrainEndingSet@@H@Z 00519e70 f i wikitractspages.obj
 0002:00060f30       ??0XmlBrainCategory@@QAE@PAVXmlHMind@@@Z 00519f30 f   xmlbraincategory.obj
 0002:00061000       ?load@XmlBrainCategory@@QAEXVXml@@@Z 0051a000 f   xmlbraincategory.obj
 0002:000611d0       ?addElement@XmlBrainCategory@@QAEXPAVXmlHMindElementInfo@@@Z 0051a1d0 f   xmlbraincategory.obj
 0002:00061250       ?getMappedItems@XmlBrainCategory@@QAEXAAVStringList@@@Z 0051a250 f   xmlbraincategory.obj
 0002:000612f0       ?getKeyByIndex@?$MapStringToClass@VXmlHMindElementInfo@@@@QAEPBDH@Z 0051a2f0 f i xmlbraincategory.obj
 0002:000613a0       ??0XmlBrainEnding@@QAE@AAVXmlBrainEndingSet@@PAV0@@Z 0051a3a0 f   xmlbrainending.obj
 0002:000614e0       ??1XmlBrainEnding@@QAE@XZ  0051a4e0 f   xmlbrainending.obj
 0002:00061600       ?load@XmlBrainEnding@@QAEXVXml@@VString@@@Z 0051a600 f   xmlbrainending.obj
 0002:00061b70       ?addFiber@XmlBrainEnding@@QAEXPAVXmlBrainFiber@@@Z 0051ab70 f   xmlbrainending.obj
 0002:00061be0       ?addTract@XmlBrainEnding@@QAEXPAVXmlBrainTract@@@Z 0051abe0 f   xmlbrainending.obj
 0002:00061c50       ??0?$MapStringToClass@VXmlBrainEnding@@@@QAE@XZ 0051ac50 f i xmlbrainending.obj
 0002:00061cb0       ??1?$MapStringToClass@VXmlBrainEnding@@@@QAE@XZ 0051acb0 f i xmlbrainending.obj
 0002:00061d10       ?add@?$MapStringToClass@VXmlBrainEnding@@@@QAEHPBDPAVXmlBrainEnding@@@Z 0051ad10 f i xmlbrainending.obj
 0002:00061f20       ??0?$MapStringToClass@VXmlBrainTract@@@@QAE@XZ 0051af20 f i xmlbrainending.obj
 0002:00061f80       ??1?$MapStringToClass@VXmlBrainTract@@@@QAE@XZ 0051af80 f i xmlbrainending.obj
 0002:00061fe0       ?addnew@?$MapStringToClass@VXmlBrainTract@@@@QAEHPBDPAVXmlBrainTract@@@Z 0051afe0 f i xmlbrainending.obj
 0002:000620b0       ??0XmlBrainEndingSet@@QAE@AAVXmlTracts@@@Z 0051b0b0 f   xmlbrainendingset.obj
 0002:000621b0       ??1XmlBrainEndingSet@@QAE@XZ 0051b1b0 f   xmlbrainendingset.obj
 0002:000622a0       ?load@XmlBrainEndingSet@@QAEXVXml@@@Z 0051b2a0 f   xmlbrainendingset.obj
 0002:000628a0       ??0XmlBrainFiber@@QAE@AAVXmlTracts@@PAV0@@Z 0051b8a0 f   xmlbrainfiber.obj
 0002:00062a00       ??1XmlBrainFiber@@QAE@XZ   0051ba00 f   xmlbrainfiber.obj
 0002:00062b50       ?load@XmlBrainFiber@@QAEXVXml@@@Z 0051bb50 f   xmlbrainfiber.obj
 0002:00063450       ?addTract@XmlBrainFiber@@QAEXPAVXmlBrainTract@@@Z 0051c450 f   xmlbrainfiber.obj
 0002:000634c0       ??0?$MapStringToClass@VXmlBrainFiber@@@@QAE@XZ 0051c4c0 f i xmlbrainfiber.obj
 0002:00063520       ??1?$MapStringToClass@VXmlBrainFiber@@@@QAE@XZ 0051c520 f i xmlbrainfiber.obj
 0002:00063580       ?add@?$MapStringToClass@VXmlBrainFiber@@@@QAEHPBDPAVXmlBrainFiber@@@Z 0051c580 f i xmlbrainfiber.obj
 0002:00063790       ??0XmlBrainTract@@QAE@AAVXmlBrainTractSet@@PAV0@@Z 0051c790 f   xmlbraintract.obj
 0002:00063940       ??1XmlBrainTract@@QAE@XZ   0051c940 f   xmlbraintract.obj
 0002:00063af0       ?load@XmlBrainTract@@QAEXVXml@@@Z 0051caf0 f   xmlbraintract.obj
 0002:000647f0       ?addPath@XmlBrainTract@@QAEXPAVXmlBrainTractPath@@@Z 0051d7f0 f   xmlbraintract.obj
 0002:00064860       ?referencesRegion@XmlBrainTract@@QAE_NVString@@@Z 0051d860 f   xmlbraintract.obj
 0002:000649d0       ?add@?$MapStringToClass@VXmlBrainTract@@@@QAEHPBDPAVXmlBrainTract@@@Z 0051d9d0 f i xmlbraintract.obj
 0002:00064be0       ?destroy@?$MapStringToClass@VXmlBrainTract@@@@QAEXXZ 0051dbe0 f i xmlbraintract.obj
 0002:00064cd0       ??0?$MapStringToClass@VXmlBrainTractPath@@@@QAE@XZ 0051dcd0 f i xmlbraintract.obj
 0002:00064d30       ??1?$MapStringToClass@VXmlBrainTractPath@@@@QAE@XZ 0051dd30 f i xmlbraintract.obj
 0002:00064d90       ?add@?$MapStringToClass@VXmlBrainTractPath@@@@QAEHPBDPAVXmlBrainTractPath@@@Z 0051dd90 f i xmlbraintract.obj
 0002:00064fa0       ?destroy@?$MapStringToClass@VXmlBrainTractPath@@@@QAEXXZ 0051dfa0 f i xmlbraintract.obj
 0002:00065090       ??_GXmlBrainTract@@QAEPAXI@Z 0051e090 f i xmlbraintract.obj
 0002:00065100       ??_GXmlBrainTractPath@@QAEPAXI@Z 0051e100 f i xmlbraintract.obj
 0002:00065170       ??0XmlBrainTractPath@@QAE@AAVXmlBrainTract@@PAV0@@Z 0051e170 f   xmlbraintractpath.obj
 0002:000652b0       ??1XmlBrainTractPath@@QAE@XZ 0051e2b0 f   xmlbraintractpath.obj
 0002:000653d0       ?load@XmlBrainTractPath@@QAEXVXml@@@Z 0051e3d0 f   xmlbraintractpath.obj
 0002:00065ca0       ??0XmlBrainTractSet@@QAE@AAVXmlTracts@@@Z 0051eca0 f   xmlbraintractset.obj
 0002:00065da0       ??1XmlBrainTractSet@@QAE@XZ 0051eda0 f   xmlbraintractset.obj
 0002:00065ea0       ?load@XmlBrainTractSet@@QAEXVXml@@@Z 0051eea0 f   xmlbraintractset.obj
 0002:000663e0       ??0XmlCircuits@@QAE@XZ     0051f3e0 f   xmlcircuits.obj
 0002:000664c0       ?getClass@XmlCircuits@@UAEPBDXZ 0051f4c0 f i xmlcircuits.obj
 0002:00066500       ??_GXmlCircuits@@UAEPAXI@Z 0051f500 f i xmlcircuits.obj
 0002:00066500       ??_EXmlCircuits@@UAEPAXI@Z 0051f500 f i xmlcircuits.obj
 0002:00066570       ??1XmlCircuits@@UAE@XZ     0051f570 f   xmlcircuits.obj
 0002:00066660       ?load@XmlCircuits@@QAEXXZ  0051f660 f   xmlcircuits.obj
 0002:00066fd0       ?getCircuitFromFile@XmlCircuits@@AAE?AVXml@@VString@@0@Z 0051ffd0 f   xmlcircuits.obj
 0002:00067530       ?getCircuitList@XmlCircuits@@QAEXAAVStringList@@@Z 00520530 f   xmlcircuits.obj
 0002:00067660       ?getCircuitXml@XmlCircuits@@AAE?AVXml@@VString@@@Z 00520660 f   xmlcircuits.obj
 0002:00067940       ?getCircuitInfo@XmlCircuits@@QAEAAVXmlCircuitInfo@@VString@@@Z 00520940 f   xmlcircuits.obj
 0002:00068490       ??0XmlCircuitInfo@@QAE@XZ  00521490 f i xmlcircuits.obj
 0002:00068590       ?getCircuitLinks@XmlCircuits@@QAEXVString@@AAV?$FlatList@VXml@@@@@Z 00521590 f   xmlcircuits.obj
 0002:000687a0       ?getCircuitLinkInfo@XmlCircuits@@QAEXVXml@@AAVXmlCircuitLinkInfo@@@Z 005217a0 f   xmlcircuits.obj
 0002:00068a40       ?mapComponent@XmlCircuits@@QAE?AVString@@AAVXmlCircuitInfo@@V2@@Z 00521a40 f   xmlcircuits.obj
 0002:00068d90       ?checkRegionUsedByCircuit@XmlCircuits@@QAE_NVString@@0@Z 00521d90 f   xmlcircuits.obj
 0002:00068f30       ?getCircuitComponents@XmlCircuits@@QAEXAAVXmlCircuitInfo@@AAVStringList@@@Z 00521f30 f   xmlcircuits.obj
 0002:000690d0       ?findReferenceLink@XmlCircuits@@QAE_NAAVXmlHMind@@VString@@1AAVXmlCircuitFind@@@Z 005220d0 f   xmlcircuits.obj
 0002:00069620       ??4XmlCircuitFind@@QAEAAV0@AAV0@@Z 00522620 f i xmlcircuits.obj
 0002:000696a0       ??4XmlCircuitLinkInfo@@QAEAAV0@AAV0@@Z 005226a0 f i xmlcircuits.obj
 0002:00069730       ?findReferenceCircuitLink@XmlCircuits@@QAE_NAAVXmlHMind@@VString@@1AAVXmlCircuitInfo@@PAVXmlCircuitFind@@_N@Z 00522730 f   xmlcircuits.obj
 0002:00069db0       ??0?$MapStringToClass@VXml@@@@QAE@XZ 00522db0 f i xmlcircuits.obj
 0002:00069e10       ??1?$MapStringToClass@VXml@@@@QAE@XZ 00522e10 f i xmlcircuits.obj
 0002:00069e70       ?add@?$MapStringToClass@VXml@@@@QAEHPBDPAVXml@@@Z 00522e70 f i xmlcircuits.obj
 0002:0006a080       ?get@?$MapStringToClass@VXml@@@@QAEPAVXml@@PBD@Z 00523080 f i xmlcircuits.obj
 0002:0006a130       ?count@?$MapStringToClass@VXml@@@@QAEHXZ 00523130 f i xmlcircuits.obj
 0002:0006a190       ?destroy@?$MapStringToClass@VXml@@@@QAEXXZ 00523190 f i xmlcircuits.obj
 0002:0006a250       ?getKeyByIndex@?$MapStringToClass@VXml@@@@QAEPBDH@Z 00523250 f i xmlcircuits.obj
 0002:0006a300       ??0?$MapStringToClass@VXmlCircuitInfo@@@@QAE@XZ 00523300 f i xmlcircuits.obj
 0002:0006a360       ??1?$MapStringToClass@VXmlCircuitInfo@@@@QAE@XZ 00523360 f i xmlcircuits.obj
 0002:0006a3c0       ?add@?$MapStringToClass@VXmlCircuitInfo@@@@QAEHPBDPAVXmlCircuitInfo@@@Z 005233c0 f i xmlcircuits.obj
 0002:0006a5d0       ?get@?$MapStringToClass@VXmlCircuitInfo@@@@QAEPAVXmlCircuitInfo@@PBD@Z 005235d0 f i xmlcircuits.obj
 0002:0006a680       ?destroy@?$MapStringToClass@VXmlCircuitInfo@@@@QAEXXZ 00523680 f i xmlcircuits.obj
 0002:0006a770       ??0?$MapStringToClass@VXmlCircuitFind@@@@QAE@XZ 00523770 f i xmlcircuits.obj
 0002:0006a7d0       ??1?$MapStringToClass@VXmlCircuitFind@@@@QAE@XZ 005237d0 f i xmlcircuits.obj
 0002:0006a830       ?add@?$MapStringToClass@VXmlCircuitFind@@@@QAEHPBDPAVXmlCircuitFind@@@Z 00523830 f i xmlcircuits.obj
 0002:0006aa40       ?get@?$MapStringToClass@VXmlCircuitFind@@@@QAEPAVXmlCircuitFind@@PBD@Z 00523a40 f i xmlcircuits.obj
 0002:0006aaf0       ?add@?$FlatList@VXml@@@@QAEHABVXml@@@Z 00523af0 f i xmlcircuits.obj
 0002:0006aba0       ??_GXmlCircuitInfo@@QAEPAXI@Z 00523ba0 f i xmlcircuits.obj
 0002:0006ac10       ??1XmlCircuitInfo@@QAE@XZ  00523c10 f i xmlcircuits.obj
 0002:0006ad00       ?allocate@?$FlatList@VXml@@@@QAEXH@Z 00523d00 f i xmlcircuits.obj
 0002:0006ad80       ?allocateExact@?$FlatList@VXml@@@@QAEXH@Z 00523d80 f i xmlcircuits.obj
 0002:0006ae70       ?getService@EnvService@@SAPAV1@XZ 00523e70 f i xmlcircuits.obj
 0002:0006aed0       ??0XmlHMind@@QAE@XZ        00523ed0 f   xmlhmind.obj
 0002:0006b0c0       ?getClass@XmlHMind@@UAEPBDXZ 005240c0 f i xmlhmind.obj
 0002:0006b100       ??_EXmlHMind@@UAEPAXI@Z    00524100 f i xmlhmind.obj
 0002:0006b100       ??_GXmlHMind@@UAEPAXI@Z    00524100 f i xmlhmind.obj
 0002:0006b170       ??1XmlHMind@@UAE@XZ        00524170 f   xmlhmind.obj
 0002:0006b320       ??_GXmlSpinalCord@@QAEPAXI@Z 00524320 f i xmlhmind.obj
 0002:0006b390       ??_GXmlTracts@@QAEPAXI@Z   00524390 f i xmlhmind.obj
 0002:0006b400       ?load@XmlHMind@@QAEXXZ     00524400 f   xmlhmind.obj
 0002:0006bd60       ?loadCategories@XmlHMind@@QAEXVXml@@@Z 00524d60 f   xmlhmind.obj
 0002:0006c060       ?getId@XmlBrainCategory@@QAE?AVString@@XZ 00525060 f i xmlhmind.obj
 0002:0006c120       ?createDivisionElement@XmlHMind@@AAEXVXml@@@Z 00525120 f   xmlhmind.obj
 0002:0006c9b0       ??0XmlHMindElementInfo@@QAE@PAV0@@Z 005259b0 f i xmlhmind.obj
 0002:0006cb70       ?scanChildItems@XmlHMind@@AAEXVXml@@PAVXmlHMindElementInfo@@@Z 00525b70 f   xmlhmind.obj
 0002:0006cdb0       ?getNodeXml@XmlHMind@@QAE?AVXml@@VString@@@Z 00525db0 f   xmlhmind.obj
 0002:0006d090       ?isComponent@XmlHMind@@QAE_NVString@@@Z 00526090 f   xmlhmind.obj
 0002:0006d3a0       ?getCategory@XmlHMind@@QAEPAVXmlBrainCategory@@VString@@@Z 005263a0 f   xmlhmind.obj
 0002:0006d680       ?getDivisions@XmlHMind@@QAEXAAVStringList@@@Z 00526680 f   xmlhmind.obj
 0002:0006d720       ?getElements@XmlHMind@@QAEXVString@@AAVStringList@@@Z 00526720 f   xmlhmind.obj
 0002:0006d9e0       ?getConnectors@XmlHMind@@QAEXVString@@AAVStringList@@@Z 005269e0 f   xmlhmind.obj
 0002:0006de30       ?getIdentifiedElements@XmlHMind@@QAEXVString@@AAVStringList@@@Z 00526e30 f   xmlhmind.obj
 0002:0006e170       ?getRegionMapId@XmlHMind@@AAE?AVString@@VXml@@@Z 00527170 f   xmlhmind.obj
 0002:0006e3c0       ?createRegionElement@XmlHMind@@AAEPAVXmlHMindElementInfo@@VXml@@PAV2@@Z 005273c0 f   xmlhmind.obj
 0002:0006e5d0       ?createElementInfo@XmlHMind@@AAEXVString@@VXml@@AAVXmlHMindElementInfo@@@Z 005275d0 f   xmlhmind.obj
 0002:0006fc30       ?getElementInfo@XmlHMind@@QAEAAVXmlHMindElementInfo@@VString@@@Z 00528c30 f   xmlhmind.obj
 0002:0006ff10       ?getConnectorInfo@XmlHMind@@QAEPBVXmlHMindElementInfo@@VString@@@Z 00528f10 f   xmlhmind.obj
 0002:000701f0       ?getIndexedElement@XmlHMind@@QAEPAVXmlHMindElementInfo@@VString@@@Z 005291f0 f   xmlhmind.obj
 0002:000704d0       ?getMappedRegion@XmlHMind@@QAE?AVString@@V2@@Z 005294d0 f   xmlhmind.obj
 0002:00070730       ?getChildRegions@XmlHMind@@QAEXVString@@AAVStringList@@@Z 00529730 f   xmlhmind.obj
 0002:00070860       ?scanChildRegions@XmlHMind@@AAEXVXml@@AAVStringList@@@Z 00529860 f   xmlhmind.obj
 0002:00070bd0       ?getDotDef@XmlHMind@@QAE?AVString@@V2@@Z 00529bd0 f   xmlhmind.obj
 0002:00070e60       ?checkAbstractLinkCoveredByRegionLink@XmlHMind@@QAE_NVString@@000@Z 00529e60 f   xmlhmind.obj
 0002:000714a0       ?destroy@?$MapStringToClass@VXmlHMindElementInfo@@@@QAEXXZ 0052a4a0 f i xmlhmind.obj
 0002:00071590       ??0?$MapStringToClass@VXmlBrainCategory@@@@QAE@XZ 0052a590 f i xmlhmind.obj
 0002:000715f0       ??1?$MapStringToClass@VXmlBrainCategory@@@@QAE@XZ 0052a5f0 f i xmlhmind.obj
 0002:00071650       ?add@?$MapStringToClass@VXmlBrainCategory@@@@QAEHPBDPAVXmlBrainCategory@@@Z 0052a650 f i xmlhmind.obj
 0002:00071860       ?get@?$MapStringToClass@VXmlBrainCategory@@@@QAEPAVXmlBrainCategory@@PBD@Z 0052a860 f i xmlhmind.obj
 0002:00071910       ??_GXmlHMindElementInfo@@QAEPAXI@Z 0052a910 f i xmlhmind.obj
 0002:00071980       ??1XmlHMindElementInfo@@QAE@XZ 0052a980 f i xmlhmind.obj
 0002:00071b10       ?getNode@Xml@@QAEPAXXZ     0052ab10 f i xmlhmind.obj
 0002:00071b50       ??0XmlMuscles@@QAE@XZ      0052ab50 f   xmlmuscles.obj
 0002:00071c30       ?getClass@XmlMuscles@@UAEPBDXZ 0052ac30 f i xmlmuscles.obj
 0002:00071c70       ??_GXmlMuscles@@UAEPAXI@Z  0052ac70 f i xmlmuscles.obj
 0002:00071c70       ??_EXmlMuscles@@UAEPAXI@Z  0052ac70 f i xmlmuscles.obj
 0002:00071ce0       ??1XmlMuscles@@UAE@XZ      0052ace0 f   xmlmuscles.obj
 0002:00071df0       ?load@XmlMuscles@@QAEXXZ   0052adf0 f   xmlmuscles.obj
 0002:00072b80       ??0XmlMuscleDivision@@QAE@XZ 0052bb80 f i xmlmuscles.obj
 0002:00072c90       ?addNerveMuscles@XmlMuscles@@AAEXPAVXmlMuscleInfo@@@Z 0052bc90 f   xmlmuscles.obj
 0002:00072e90       ?addChilds@XmlMuscles@@AAEXPAVXmlMuscleDivision@@VXml@@AAV?$MapStringToClass@VXmlMuscleInfo@@@@@Z 0052be90 f   xmlmuscles.obj
 0002:00073440       ?getMusclesByNerve@XmlMuscles@@QAEXVString@@AAVStringList@@@Z 0052c440 f   xmlmuscles.obj
 0002:00073530       ?getMuscleList@XmlMuscles@@QAEXAAVStringList@@@Z 0052c530 f   xmlmuscles.obj
 0002:00073660       ?getMuscleInfo@XmlMuscles@@QAEAAVXmlMuscleInfo@@VString@@@Z 0052c660 f   xmlmuscles.obj
 0002:00073940       ?createMuscleInfo@XmlMuscles@@AAEPAVXmlMuscleInfo@@PAVXmlMuscleDivision@@VString@@VXml@@@Z 0052c940 f   xmlmuscles.obj
 0002:000745e0       ??0XmlMuscleInfo@@QAE@XZ   0052d5e0 f i xmlmuscles.obj
 0002:00074710       ?getCategories@XmlMuscles@@QAEXAAVStringList@@@Z 0052d710 f   xmlmuscles.obj
 0002:000748a0       ?findByConnector@XmlMuscles@@QAEPAVXmlMuscleInfo@@VString@@@Z 0052d8a0 f   xmlmuscles.obj
 0002:00074960       ??0?$MapStringToClass@VXmlMuscleInfo@@@@QAE@XZ 0052d960 f i xmlmuscles.obj
 0002:000749c0       ??1?$MapStringToClass@VXmlMuscleInfo@@@@QAE@XZ 0052d9c0 f i xmlmuscles.obj
 0002:00074a20       ?add@?$MapStringToClass@VXmlMuscleInfo@@@@QAEHPBDPAVXmlMuscleInfo@@@Z 0052da20 f i xmlmuscles.obj
 0002:00074c30       ?addnew@?$MapStringToClass@VXmlMuscleInfo@@@@QAEHPBDPAVXmlMuscleInfo@@@Z 0052dc30 f i xmlmuscles.obj
 0002:00074d00       ?get@?$MapStringToClass@VXmlMuscleInfo@@@@QAEPAVXmlMuscleInfo@@PBD@Z 0052dd00 f i xmlmuscles.obj
 0002:00074db0       ?destroy@?$MapStringToClass@VXmlMuscleInfo@@@@QAEXXZ 0052ddb0 f i xmlmuscles.obj
 0002:00074ea0       ?getKeyByIndex@?$MapStringToClass@VXmlMuscleInfo@@@@QAEPBDH@Z 0052dea0 f i xmlmuscles.obj
 0002:00074f50       ??0?$MapStringToClass@VXmlMuscleDivision@@@@QAE@XZ 0052df50 f i xmlmuscles.obj
 0002:00074fb0       ??1?$MapStringToClass@VXmlMuscleDivision@@@@QAE@XZ 0052dfb0 f i xmlmuscles.obj
 0002:00075010       ?add@?$MapStringToClass@VXmlMuscleDivision@@@@QAEHPBDPAVXmlMuscleDivision@@@Z 0052e010 f i xmlmuscles.obj
 0002:00075220       ?destroy@?$MapStringToClass@VXmlMuscleDivision@@@@QAEXXZ 0052e220 f i xmlmuscles.obj
 0002:00075310       ??_GXmlMuscleInfo@@QAEPAXI@Z 0052e310 f i xmlmuscles.obj
 0002:00075380       ??1XmlMuscleInfo@@QAE@XZ   0052e380 f i xmlmuscles.obj
 0002:000754a0       ??_GXmlMuscleDivision@@QAEPAXI@Z 0052e4a0 f i xmlmuscles.obj
 0002:00075510       ??1XmlMuscleDivision@@QAE@XZ 0052e510 f i xmlmuscles.obj
 0002:00075610       ?getMotorNuclei@XmlNerveInfo@@QAEXAAVStringList@@@Z 0052e610 f   xmlnerveinfo.obj
 0002:00075710       ?getSensoryNuclei@XmlNerveInfo@@QAEXAAVStringList@@@Z 0052e710 f   xmlnerveinfo.obj
 0002:00075810       ?getFiberMotorNuclei@XmlNerveInfo@@QAEXAAVXmlNerveFiberInfo@@AAVStringList@@@Z 0052e810 f   xmlnerveinfo.obj
 0002:000759e0       ?getFiberSensoryNuclei@XmlNerveInfo@@QAEXAAVXmlNerveFiberInfo@@AAVStringList@@@Z 0052e9e0 f   xmlnerveinfo.obj
 0002:00075bb0       ?getNervesByComponent@XmlNerveInfo@@QAEXVString@@AAVStringList@@@Z 0052ebb0 f   xmlnerveinfo.obj
 0002:00075de0       ?first@StringList@@QAE?AVString@@XZ 0052ede0 f i xmlnerveinfo.obj
 0002:00075fe0       ?last@StringList@@QAE?AVString@@XZ 0052efe0 f i xmlnerveinfo.obj
 0002:000761f0       ??0XmlNerves@@QAE@XZ       0052f1f0 f   xmlnerves.obj
 0002:000762c0       ?getClass@XmlNerves@@UAEPBDXZ 0052f2c0 f i xmlnerves.obj
 0002:00076300       ??_GXmlNerves@@UAEPAXI@Z   0052f300 f i xmlnerves.obj
 0002:00076300       ??_EXmlNerves@@UAEPAXI@Z   0052f300 f i xmlnerves.obj
 0002:00076370       ??1XmlNerves@@UAE@XZ       0052f370 f   xmlnerves.obj
 0002:00076460       ?load@XmlNerves@@QAEXXZ    0052f460 f   xmlnerves.obj
 0002:000770f0       ??0XmlNerveInfo@@QAE@XZ    005300f0 f i xmlnerves.obj
 0002:000772a0       ?addChilds@XmlNerves@@AAEXPAVXmlNerveInfo@@0@Z 005302a0 f   xmlnerves.obj
 0002:000778b0       ?getNerveList@XmlNerves@@QAEXAAVStringList@@@Z 005308b0 f   xmlnerves.obj
 0002:000779e0       ?getNerveXml@XmlNerves@@QAE?AVXml@@VString@@@Z 005309e0 f   xmlnerves.obj
 0002:00077cc0       ?getNerveInfo@XmlNerves@@QAEAAVXmlNerveInfo@@VString@@@Z 00530cc0 f   xmlnerves.obj
 0002:00077fa0       ?checkNerve@XmlNerves@@QAE_NVString@@@Z 00530fa0 f   xmlnerves.obj
 0002:000780a0       ?createNerveInfo@XmlNerves@@AAEPAVXmlNerveInfo@@VString@@VXml@@PAV2@@Z 005310a0 f   xmlnerves.obj
 0002:00079a70       ??0XmlNerveFiberInfo@@QAE@XZ 00532a70 f i xmlnerves.obj
 0002:00079b40       ?getNerveDivision@XmlNerves@@QAEAAVXmlNerveInfo@@VString@@@Z 00532b40 f   xmlnerves.obj
 0002:00079c50       ?addnew@?$MapStringToClass@VXml@@@@QAEHPBDPAVXml@@@Z 00532c50 f i xmlnerves.obj
 0002:00079d20       ??0?$MapStringToClass@VXmlNerveInfo@@@@QAE@XZ 00532d20 f i xmlnerves.obj
 0002:00079d80       ??1?$MapStringToClass@VXmlNerveInfo@@@@QAE@XZ 00532d80 f i xmlnerves.obj
 0002:00079de0       ?add@?$MapStringToClass@VXmlNerveInfo@@@@QAEHPBDPAVXmlNerveInfo@@@Z 00532de0 f i xmlnerves.obj
 0002:00079ff0       ?get@?$MapStringToClass@VXmlNerveInfo@@@@QAEPAVXmlNerveInfo@@PBD@Z 00532ff0 f i xmlnerves.obj
 0002:0007a0a0       ?destroy@?$MapStringToClass@VXmlNerveInfo@@@@QAEXXZ 005330a0 f i xmlnerves.obj
 0002:0007a190       ??0?$ClassList@VXmlNerveInfo@@@@QAE@XZ 00533190 f i xmlnerves.obj
 0002:0007a1f0       ??1?$ClassList@VXmlNerveInfo@@@@QAE@XZ 005331f0 f i xmlnerves.obj
 0002:0007a250       ?add@?$ClassList@VXmlNerveInfo@@@@QAEHPAVXmlNerveInfo@@@Z 00533250 f i xmlnerves.obj
 0002:0007a2f0       ??0?$ClassList@VXmlNerveFiberInfo@@@@QAE@XZ 005332f0 f i xmlnerves.obj
 0002:0007a350       ??1?$ClassList@VXmlNerveFiberInfo@@@@QAE@XZ 00533350 f i xmlnerves.obj
 0002:0007a3b0       ?add@?$ClassList@VXmlNerveFiberInfo@@@@QAEHPAVXmlNerveFiberInfo@@@Z 005333b0 f i xmlnerves.obj
 0002:0007a450       ??_GXmlNerveInfo@@QAEPAXI@Z 00533450 f i xmlnerves.obj
 0002:0007a4c0       ??1XmlNerveInfo@@QAE@XZ    005334c0 f i xmlnerves.obj
 0002:0007a660       ?destroy@?$ClassList@VXmlNerveFiberInfo@@@@QAEXXZ 00533660 f i xmlnerves.obj
 0002:0007a740       ??_GXmlNerveFiberInfo@@QAEPAXI@Z 00533740 f i xmlnerves.obj
 0002:0007a7b0       ??1XmlNerveFiberInfo@@QAE@XZ 005337b0 f i xmlnerves.obj
 0002:0007a880       ??A?$ClassList@VXmlNerveFiberInfo@@@@QAEAAPAVXmlNerveFiberInfo@@H@Z 00533880 f i xmlnerves.obj
 0002:0007a8e0       ?clear@?$ClassList@VXmlNerveFiberInfo@@@@QAEXXZ 005338e0 f i xmlnerves.obj
 0002:0007a940       ?trim@StringList@@QAEXXZ   00533940 f i xmlnerves.obj
 0002:0007a9e0       ??0XmlSpinalCord@@QAE@PAVXmlHMind@@@Z 005339e0 f   xmlspinalcord.obj
 0002:0007ac10       ??1XmlSpinalCord@@QAE@XZ   00533c10 f   xmlspinalcord.obj
 0002:0007ad30       ?load@XmlSpinalCord@@QAEXVXml@@@Z 00533d30 f   xmlspinalcord.obj
 0002:0007ad90       ?loadLayout@XmlSpinalCord@@AAEXVXml@@@Z 00533d90 f   xmlspinalcord.obj
 0002:0007b390       ?loadLayoutLevel@XmlSpinalCord@@AAEXVXml@@AAV?$MapStringToClass@VStringList@@@@@Z 00534390 f   xmlspinalcord.obj
 0002:0007ba00       ?getLayoutLevels@XmlSpinalCord@@QAEPAPBDXZ 00534a00 f   xmlspinalcord.obj
 0002:0007ba40       ?getLayoutLaminas@XmlSpinalCord@@QAEPAPBDXZ 00534a40 f   xmlspinalcord.obj
 0002:0007ba80       ?getLayoutCellItems@XmlSpinalCord@@QAEAAVStringList@@VString@@0@Z 00534a80 f   xmlspinalcord.obj
 0002:0007bb70       ?getLayoutItems@XmlSpinalCord@@QAEXAAVStringList@@@Z 00534b70 f   xmlspinalcord.obj
 0002:0007bc50       ?getLayoutItemLayers@XmlSpinalCord@@QAEXVString@@AAVStringList@@@Z 00534c50 f   xmlspinalcord.obj
 0002:0007bdf0       ?getLayoutItemLaminas@XmlSpinalCord@@QAEXVString@@AAVStringList@@@Z 00534df0 f   xmlspinalcord.obj
 0002:0007bf80       ?getRef@?$MapStringToClass@VStringList@@@@QAEAAVStringList@@PBD@Z 00534f80 f i xmlspinalcord.obj
 0002:0007c270       ??0?$MapStringToClass@V?$MapStringToClass@VStringList@@@@@@QAE@XZ 00535270 f i xmlspinalcord.obj
 0002:0007c2d0       ??1?$MapStringToClass@V?$MapStringToClass@VStringList@@@@@@QAE@XZ 005352d0 f i xmlspinalcord.obj
 0002:0007c330       ?add@?$MapStringToClass@V?$MapStringToClass@VStringList@@@@@@QAEHPBDPAV?$MapStringToClass@VStringList@@@@@Z 00535330 f i xmlspinalcord.obj
 0002:0007c540       ?getRef@?$MapStringToClass@V?$MapStringToClass@VStringList@@@@@@QAEAAV?$MapStringToClass@VStringList@@@@PBD@Z 00535540 f i xmlspinalcord.obj
 0002:0007c830       ?count@?$MapStringToClass@V?$MapStringToClass@VStringList@@@@@@QAEHXZ 00535830 f i xmlspinalcord.obj
 0002:0007c890       ?destroy@?$MapStringToClass@V?$MapStringToClass@VStringList@@@@@@QAEXXZ 00535890 f i xmlspinalcord.obj
 0002:0007c980       ?getClassRefByIndex@?$MapStringToClass@V?$MapStringToClass@VStringList@@@@@@QAEAAV?$MapStringToClass@VStringList@@@@H@Z 00535980 f i xmlspinalcord.obj
 0002:0007ca40       ?getKeyByIndex@?$MapStringToClass@V?$MapStringToClass@VStringList@@@@@@QAEPBDH@Z 00535a40 f i xmlspinalcord.obj
 0002:0007caf0       ??_G?$MapStringToClass@VStringList@@@@QAEPAXI@Z 00535af0 f i xmlspinalcord.obj
 0002:0007cb60       ?get@?$MapStringToClass@V?$MapStringToClass@VStringList@@@@@@QAEPAV?$MapStringToClass@VStringList@@@@PBD@Z 00535b60 f i xmlspinalcord.obj
 0002:0007cc10       ??0XmlTracts@@QAE@PAVXmlHMind@@@Z 00535c10 f   xmltracts.obj
 0002:0007cd50       ??1XmlTracts@@QAE@XZ       00535d50 f   xmltracts.obj
 0002:0007ce90       ?load@XmlTracts@@QAEXVXml@@@Z 00535e90 f   xmltracts.obj
 0002:0007cf30       ?loadFibers@XmlTracts@@AAEXVXml@@@Z 00535f30 f   xmltracts.obj
 0002:0007d370       ?loadEndings@XmlTracts@@AAEXVXml@@@Z 00536370 f   xmltracts.obj
 0002:0007d7b0       ?loadTracts@XmlTracts@@AAEXVXml@@@Z 005367b0 f   xmltracts.obj
 0002:0007dbf0       ?getEnding@XmlTracts@@QAEAAVXmlBrainEnding@@VString@@@Z 00536bf0 f   xmltracts.obj
 0002:0007ded0       ?getFiber@XmlTracts@@QAEAAVXmlBrainFiber@@VString@@@Z 00536ed0 f   xmltracts.obj
 0002:0007e1b0       ?findEnding@XmlTracts@@QAEPAVXmlBrainEnding@@VString@@@Z 005371b0 f   xmltracts.obj
 0002:0007e270       ?findFiber@XmlTracts@@QAEPAVXmlBrainFiber@@VString@@@Z 00537270 f   xmltracts.obj
 0002:0007e330       ?addEnding@XmlTracts@@QAEXPAVXmlBrainEnding@@@Z 00537330 f   xmltracts.obj
 0002:0007e3a0       ?addFiber@XmlTracts@@QAEXPAVXmlBrainFiber@@@Z 005373a0 f   xmltracts.obj
 0002:0007e410       ?addTract@XmlTracts@@QAEXPAVXmlBrainTract@@@Z 00537410 f   xmltracts.obj
 0002:0007e480       ?addPath@XmlTracts@@QAEXPAVXmlBrainTractPath@@@Z 00537480 f   xmltracts.obj
 0002:0007e4f0       ?linkFibers@XmlTracts@@AAEXXZ 005374f0 f   xmltracts.obj
 0002:0007e690       ?linkTracts@XmlTracts@@AAEXXZ 00537690 f   xmltracts.obj
 0002:0007e730       ?linkTractPaths@XmlTracts@@AAEXAAVXmlBrainTract@@AAV?$MapStringToClass@VXmlBrainTractPath@@@@@Z 00537730 f   xmltracts.obj
 0002:0007e990       ?getRegionTracts@XmlTracts@@QAEXVString@@AAVStringList@@@Z 00537990 f   xmltracts.obj
 0002:0007eae0       ??0?$MapStringToClass@VXmlBrainTractSet@@@@QAE@XZ 00537ae0 f i xmltracts.obj
 0002:0007eb40       ??1?$MapStringToClass@VXmlBrainTractSet@@@@QAE@XZ 00537b40 f i xmltracts.obj
 0002:0007eba0       ?add@?$MapStringToClass@VXmlBrainTractSet@@@@QAEHPBDPAVXmlBrainTractSet@@@Z 00537ba0 f i xmltracts.obj
 0002:0007edb0       ?destroy@?$MapStringToClass@VXmlBrainTractSet@@@@QAEXXZ 00537db0 f i xmltracts.obj
 0002:0007eea0       ?get@?$MapStringToClass@VXmlBrainFiber@@@@QAEPAVXmlBrainFiber@@PBD@Z 00537ea0 f i xmltracts.obj
 0002:0007ef50       ??0?$MapStringToClass@VXmlBrainEndingSet@@@@QAE@XZ 00537f50 f i xmltracts.obj
 0002:0007efb0       ??1?$MapStringToClass@VXmlBrainEndingSet@@@@QAE@XZ 00537fb0 f i xmltracts.obj
 0002:0007f010       ?add@?$MapStringToClass@VXmlBrainEndingSet@@@@QAEHPBDPAVXmlBrainEndingSet@@@Z 00538010 f i xmltracts.obj
 0002:0007f220       ?get@?$MapStringToClass@VXmlBrainEnding@@@@QAEPAVXmlBrainEnding@@PBD@Z 00538220 f i xmltracts.obj
 0002:0007f2d0       ??_GXmlBrainTractSet@@QAEPAXI@Z 005382d0 f i xmltracts.obj
 0002:0007f340       _rfc_lst_create            00538340 f   generic:_gen_lst.obj
 0002:0007f3c0       _rfc_lst_destroy           005383c0 f   generic:_gen_lst.obj
 0002:0007f460       _rfc_lst_ref               00538460 f   generic:_gen_lst.obj
 0002:0007f4b0       _rfc_lst_clear             005384b0 f   generic:_gen_lst.obj
 0002:0007f4f0       _rfc_lst_init              005384f0 f   generic:_gen_lst.obj
 0002:0007f5e0       _rfc_lst_allocate          005385e0 f   generic:_gen_lst.obj
 0002:0007f720       _rfc_lst_count             00538720 f   generic:_gen_lst.obj
 0002:0007f760       _rfc_lst_add               00538760 f   generic:_gen_lst.obj
 0002:0007f810       _rfc_lst_remove            00538810 f   generic:_gen_lst.obj
 0002:0007f910       _rfc_lst_get               00538910 f   generic:_gen_lst.obj
 0002:0007f970       _rfc_lst_replace           00538970 f   generic:_gen_lst.obj
 0002:0007fa00       _rfc_lst_sort_cmp_d        00538a00 f   generic:_gen_lst.obj
 0002:0007fa40       _rfc_lst_sort_cmp_l        00538a40 f   generic:_gen_lst.obj
 0002:0007faa0       _rfc_lst_sort_cmp_f        00538aa0 f   generic:_gen_lst.obj
 0002:0007fb10       _rfc_lst_sort_cmp_r        00538b10 f   generic:_gen_lst.obj
 0002:0007fb90       _rfc_lst_sort_cmp_m        00538b90 f   generic:_gen_lst.obj
 0002:0007fc60       _rfc_lst_sort_cmp_s        00538c60 f   generic:_gen_lst.obj
 0002:0007fcf0       _rfc_lst_sort              00538cf0 f   generic:_gen_lst.obj
 0002:0007fe50       _rfc_map_ptrcreate         00538e50 f   generic:_gen_ptr.obj
 0002:0007feb0       _rfc_map_ptralloc          00538eb0 f   generic:_gen_ptr.obj
 0002:0007ff40       _rfc_map_strcreate         00538f40 f   generic:_gen_ptr.obj
 0002:0007ffa0       _rfc_map_stralloc          00538fa0 f   generic:_gen_ptr.obj
 0002:00080030       _rfc_map_ptrdrop           00539030 f   generic:_gen_ptr.obj
 0002:000800d0       _rfc_map_ptrref            005390d0 f   generic:_gen_ptr.obj
 0002:00080120       _rfc_map_strdrop           00539120 f   generic:_gen_ptr.obj
 0002:000801c0       _rfc_map_strref            005391c0 f   generic:_gen_ptr.obj
 0002:00080210       _rfc_map_ptrcheck          00539210 f   generic:_gen_ptr.obj
 0002:00080390       _rfc_map_strcheck          00539390 f   generic:_gen_ptr.obj
 0002:00080530       _rfc_map_ptradd            00539530 f   generic:_gen_ptr.obj
 0002:00080880       _rfc_map_ptrsetkey         00539880 f   generic:_gen_ptr.obj
 0002:000808e0       _rfc_map_stradd            005398e0 f   generic:_gen_ptr.obj
 0002:00080ca0       _rfc_map_strsetkey         00539ca0 f   generic:_gen_ptr.obj
 0002:00080d00       _rfc_map_ptrremove         00539d00 f   generic:_gen_ptr.obj
 0002:00080dc0       _rfc_map_ptrremovepos      00539dc0 f   generic:_gen_ptr.obj
 0002:00080ec0       _rfc_map_strremove         00539ec0 f   generic:_gen_ptr.obj
 0002:00080f80       _rfc_map_strremovepos      00539f80 f   generic:_gen_ptr.obj
 0002:000810c0       _rfc_map_ptrclear          0053a0c0 f   generic:_gen_ptr.obj
 0002:00081100       _rfc_map_strclear          0053a100 f   generic:_gen_ptr.obj
 0002:000811b0       _rfc_map_ptrinit           0053a1b0 f   generic:_gen_ptr.obj
 0002:00081240       _rfc_map_strinit           0053a240 f   generic:_gen_ptr.obj
 0002:00081330       _rfc_map_ptrcount          0053a330 f   generic:_gen_ptr.obj
 0002:00081370       _rfc_map_strcount          0053a370 f   generic:_gen_ptr.obj
 0002:000813b0       _rfc_map_ptrget            0053a3b0 f   generic:_gen_ptr.obj
 0002:000813f0       _rfc_map_ptrsetpos         0053a3f0 f   generic:_gen_ptr.obj
 0002:00081460       _rfc_map_strget            0053a460 f   generic:_gen_ptr.obj
 0002:000814a0       _rfc_map_strsetpos         0053a4a0 f   generic:_gen_ptr.obj
 0002:00081510       _rfc_map_ptrinsertpos      0053a510 f   generic:_gen_ptr.obj
 0002:00081640       _rfc_map_strinsertpos      0053a640 f   generic:_gen_ptr.obj
 0002:000817c0       _rfc_str_create            0053a7c0 f   generic:_gen_rs.obj
 0002:000818d0       _rfc_str_allocate          0053a8d0 f   generic:_gen_rs.obj
 0002:00081a00       _rfc_str_drop              0053aa00 f   generic:_gen_rs.obj
 0002:00081a70       _rfc_str_append            0053aa70 f   generic:_gen_rs.obj
 0002:00081be0       _rfc_str_addchar           0053abe0 f   generic:_gen_rs.obj
 0002:00081ce0       _rfc_str_remove            0053ace0 f   generic:_gen_rs.obj
 0002:00081dc0       _rfc_str_clear             0053adc0 f   generic:_gen_rs.obj
 0002:00081e00       _rfc_str_extract_left      0053ae00 f   generic:_gen_rs.obj
 0002:00081eb0       _rfc_str_extract_right     0053aeb0 f   generic:_gen_rs.obj
 0002:00081f60       _rfc_str_extract_middle    0053af60 f   generic:_gen_rs.obj
 0002:00082050       _rfc_str_rchar             0053b050 f   generic:_gen_rs.obj
 0002:000820d0       _rfc_str_set               0053b0d0 f   generic:_gen_rs.obj
 0002:00082160       _rfc_str_format            0053b160 f   generic:_gen_rs.obj
 0002:000821d0       _rfc_str_format_va         0053b1d0 f   generic:_gen_rs.obj
 0002:00082990       _rfc_str_format_parse      0053b990 f   generic:_gen_rs.obj
 0002:000833e0       _rfc_str_format_parse_printf 0053c3e0 f   generic:_gen_rs.obj
 0002:00083620       _rfc_type_cnv              0053c620 f   generic:_gen_cnv.obj
 0002:00083860       _rfc_type_set              0053c860 f   generic:_gen_cnv.obj
 0002:00083a60       _rfc_type_cmp              0053ca60 f   generic:_gen_cnv.obj
 0002:00083e50       _rfc_copy_char             0053ce50 f   generic:_gen_cnv.obj
 0002:000853b0       _rfc_qsort                 0053e3b0 f   generic:_gen_qs.obj
 0002:00085850       _rfc_wstr_create           0053e850 f   generic:_gen_rsw.obj
 0002:00085970       _rfc_wstr_allocate         0053e970 f   generic:_gen_rsw.obj
 0002:00085aa0       _rfc_wstr_drop             0053eaa0 f   generic:_gen_rsw.obj
 0002:00085b10       _rfc_wstr_append           0053eb10 f   generic:_gen_rsw.obj
 0002:00085ca0       _rfc_wstr_addchar          0053eca0 f   generic:_gen_rsw.obj
 0002:00085db0       _rfc_wstr_remove           0053edb0 f   generic:_gen_rsw.obj
 0002:00085ea0       _rfc_wstr_clear            0053eea0 f   generic:_gen_rsw.obj
 0002:00085ee0       _rfc_wstr_extract_left     0053eee0 f   generic:_gen_rsw.obj
 0002:00085f90       _rfc_wstr_extract_right    0053ef90 f   generic:_gen_rsw.obj
 0002:00086040       _rfc_wstr_extract_middle   0053f040 f   generic:_gen_rsw.obj
 0002:00086130       _rfc_wstr_rchar            0053f130 f   generic:_gen_rsw.obj
 0002:000861b0       _rfc_wstr_set              0053f1b0 f   generic:_gen_rsw.obj
 0002:00086240       _rfc_wstr_format           0053f240 f   generic:_gen_rsw.obj
 0002:000862b0       _rfc_wstr_format_va        0053f2b0 f   generic:_gen_rsw.obj
 0002:000869c0       _rfc_wstr_len              0053f9c0 f   generic:_gen_rsw.obj
 0002:00086a30       _rfc_wstr_atoi             0053fa30 f   generic:_gen_rsw.obj
 0002:00086b60       _rfc_wstr_isdigit          0053fb60 f   generic:_gen_rsw.obj
 0002:00086bf0       _rfc_wstr_ncmp             0053fbf0 f   generic:_gen_rsw.obj
 0002:00086cd0       _rfc_wstr_vsprintf         0053fcd0 f   generic:_gen_rsw.obj
 0002:00087530       _rfc_wstr_cmp              00540530 f   generic:_gen_rsw.obj
 0002:000875e0       _rfc_wstr_cpy              005405e0 f   generic:_gen_rsw.obj
 0002:00087670       _rfc_wstr_chr              00540670 f   generic:_gen_rsw.obj
 0002:000876e0       _rfc_wstr_sprintf          005406e0 f   generic:_gen_rsw.obj
 0002:00087750       _rfc_wstr_str              00540750 f   generic:_gen_rsw.obj
 0002:00087810       _rfc_wstr_setutf8          00540810 f   generic:_gen_rsw.obj
 0002:00087a20       _rfc_blob_alloc            00540a20 f   generic:_gen_blb.obj
 0002:00087ac0       _rfc_blob_empty            00540ac0 f   generic:_gen_blb.obj
 0002:00087bc0       _rfc_blob_reserve          00540bc0 f   generic:_gen_blb.obj
 0002:00087c50       _rfc_blob_realloc          00540c50 f   generic:_gen_blb.obj
 0002:00087d80       _rfc_blob_copy             00540d80 f   generic:_gen_blb.obj
 0002:00087e20       _rfc_blob_size             00540e20 f   generic:_gen_blb.obj
 0002:00087e90       _rfc_blob_add              00540e90 f   generic:_gen_blb.obj
 0002:000884c0       _rfc_blob_collect          005414c0 f   generic:_gen_blb.obj
 0002:00088560       _rfc_blob_tail             00541560 f   generic:_gen_blb.obj
 0002:000885f0       _rfc_blob_extract          005415f0 f   generic:_gen_blb.obj
 0002:000889e0       _rfc_blob_free             005419e0 f   generic:_gen_blb.obj
 0002:00088a70       _rfc_dtm_format_get        00541a70 f   generic:_gen_rd.obj
 0002:00088b70       __rfc_dtm_stm2string       00541b70 f   generic:_gen_rd.obj
 0002:000892e0       _rfc_dtm_time2string       005422e0 f   generic:_gen_rd.obj
 0002:00089490       _rfc_dtm_moment            00542490 f   generic:_gen_rd.obj
 0002:00089680       _rfc_dtm_get_deformat      00542680 f   generic:_gen_rd.obj
 0002:00089740       _rfc_dtm_moment2string     00542740 f   generic:_gen_rd.obj
 0002:00089950       _rfc_dtm_get_moment        00542950 f   generic:_gen_rd.obj
 0002:00089b30       _rfc_dtm_get_days          00542b30 f   generic:_gen_rd.obj
 0002:00089ca0       _rfc_dtm_get_weekday       00542ca0 f   generic:_gen_rd.obj
 0002:00089d00       _rfc_dtm_add_days          00542d00 f   generic:_gen_rd.obj
 0002:00089da0       _rfc_money_money2string    00542da0 f   generic:_gen_rmn.obj
 0002:0008a360       _rfc_money_get_deformat    00543360 f   generic:_gen_rmn.obj
 0002:0008a3d0       _rfc_money_double2money    005433d0 f   generic:_gen_rmn.obj
 0002:0008a490       _rfc_money_money2double    00543490 f   generic:_gen_rmn.obj
 0002:0008a530       _rfc_money_mul             00543530 f   generic:_gen_rmn.obj
 0002:0008a790       _rfc_money_div             00543790 f   generic:_gen_rmn.obj
 0002:0008a940       _rfc_money_string2money    00543940 f   generic:_gen_rmn.obj
 0002:0008ab70       ??0MindEffector@@QAE@PAVEffectorArea@@@Z 00543b70 f   mind:mindeffector.obj
 0002:0008ac30       ??_EMindEffector@@UAEPAXI@Z 00543c30 f i mind:mindeffector.obj
 0002:0008ac30       ??_GMindEffector@@UAEPAXI@Z 00543c30 f i mind:mindeffector.obj
 0002:0008aca0       ?createRegion@MindEffector@@EAEXPAVMindRegionCreateInfo@@@Z 00543ca0 f   mind:mindeffector.obj
 0002:0008adb0       ?exitRegion@MindEffector@@EAEXXZ 00543db0 f   mind:mindeffector.obj
 0002:0008adf0       ?destroyRegion@MindEffector@@EAEXXZ 00543df0 f   mind:mindeffector.obj
 0002:0008ae30       ??0MindRegion@@QAE@PAVMindArea@@@Z 00543e30 f   mind:mindregion.obj
 0002:0008b040       ??_GMindRegion@@UAEPAXI@Z  00544040 f i mind:mindregion.obj
 0002:0008b040       ??_EMindRegion@@UAEPAXI@Z  00544040 f i mind:mindregion.obj
 0002:0008b0b0       ??0MindRegionLinkSet@@QAE@XZ 005440b0 f i mind:mindregion.obj
 0002:0008b170       ??1MindRegion@@UAE@XZ      00544170 f   mind:mindregion.obj
 0002:0008b250       ?exit@MindRegion@@QAEXXZ   00544250 f   mind:mindregion.obj
 0002:0008b2b0       ?destroy@MindRegion@@QAEXXZ 005442b0 f   mind:mindregion.obj
 0002:0008b3d0       ??_GMindRegionLinkSet@@QAEPAXI@Z 005443d0 f i mind:mindregion.obj
 0002:0008b440       ??1MindRegionLinkSet@@QAE@XZ 00544440 f i mind:mindregion.obj
 0002:0008b4f0       ?getFullRegionId@MindRegion@@QAE?AVString@@XZ 005444f0 f   mind:mindregion.obj
 0002:0008b650       ?addPrivateNeuroLink@MindRegion@@AAEXPAVNeuroLink@@@Z 00544650 f   mind:mindregion.obj
 0002:0008b6b0       ?getNeuroLinkSource@MindRegion@@QAEPAVNeuroLinkSource@@VString@@@Z 005446b0 f   mind:mindregion.obj
 0002:0008b780       ?getNeuroLinkTarget@MindRegion@@QAEPAVNeuroLinkTarget@@VString@@@Z 00544780 f   mind:mindregion.obj
 0002:0008b850       ?getMasterRegionLinks@MindRegion@@QAEAAV?$ClassList@VMindRegionLink@@@@XZ 00544850 f   mind:mindregion.obj
 0002:0008b8b0       ?getSlaveRegionLinks@MindRegion@@QAEAAV?$ClassList@VMindRegionLink@@@@XZ 005448b0 f   mind:mindregion.obj
 0002:0008b910       ?addSourceEntity@MindRegion@@QAEXVString@@PAVNeuroLinkSource@@@Z 00544910 f   mind:mindregion.obj
 0002:0008bcf0       ?addTargetEntity@MindRegion@@QAEXVString@@PAVNeuroLinkTarget@@@Z 00544cf0 f   mind:mindregion.obj
 0002:0008c0d0       ?sendMessage@MindRegion@@QAEXPAVMindMessage@@@Z 005450d0 f   mind:mindregion.obj
 0002:0008c110       ?addMasterRegionLink@MindRegion@@QAEXPAVMindRegionLink@@@Z 00545110 f   mind:mindregion.obj
 0002:0008c170       ?addSlaveRegionLink@MindRegion@@QAEXPAVMindRegionLink@@@Z 00545170 f   mind:mindregion.obj
 0002:0008c1d0       ?checkLinkedTo@MindRegion@@QAE_NPAV1@@Z 005451d0 f   mind:mindregion.obj
 0002:0008c270       ??0?$MapStringToClass@VNeuroLinkSource@@@@QAE@XZ 00545270 f i mind:mindregion.obj
 0002:0008c2d0       ??1?$MapStringToClass@VNeuroLinkSource@@@@QAE@XZ 005452d0 f i mind:mindregion.obj
 0002:0008c330       ?add@?$MapStringToClass@VNeuroLinkSource@@@@QAEHPBDPAVNeuroLinkSource@@@Z 00545330 f i mind:mindregion.obj
 0002:0008c540       ?get@?$MapStringToClass@VNeuroLinkSource@@@@QAEPAVNeuroLinkSource@@PBD@Z 00545540 f i mind:mindregion.obj
 0002:0008c5f0       ??0?$MapStringToClass@VNeuroLinkTarget@@@@QAE@XZ 005455f0 f i mind:mindregion.obj
 0002:0008c650       ??1?$MapStringToClass@VNeuroLinkTarget@@@@QAE@XZ 00545650 f i mind:mindregion.obj
 0002:0008c6b0       ?add@?$MapStringToClass@VNeuroLinkTarget@@@@QAEHPBDPAVNeuroLinkTarget@@@Z 005456b0 f i mind:mindregion.obj
 0002:0008c8c0       ?get@?$MapStringToClass@VNeuroLinkTarget@@@@QAEPAVNeuroLinkTarget@@PBD@Z 005458c0 f i mind:mindregion.obj
 0002:0008c970       ??0?$ClassList@VMindRegionLink@@@@QAE@XZ 00545970 f i mind:mindregion.obj
 0002:0008c9d0       ??1?$ClassList@VMindRegionLink@@@@QAE@XZ 005459d0 f i mind:mindregion.obj
 0002:0008ca30       ?getClass@MindRegion@@UAEPBDXZ 00545a30 f i mind:mindregion.obj
 0002:0008ca70       ?getClass@MindRegionLinkSet@@UAEPBDXZ 00545a70 f i mind:mindregion.obj
 0002:0008cab0       ?getLinks@MindRegionLinkSet@@QAEAAV?$ClassList@VMindRegionLink@@@@XZ 00545ab0 f i mind:mindregion.obj
 0002:0008caf0       ??0MindRegionConnectorDef@@QAE@XZ 00545af0 f   mind:mindregionconnectordef.obj
 0002:0008cbc0       ?createFromXml@MindRegionConnectorDef@@QAEXVXml@@@Z 00545bc0 f   mind:mindregionconnectordef.obj
 0002:0008cda0       ?isTarget@MindRegionConnectorDef@@QAE_NXZ 00545da0 f   mind:mindregionconnectordef.obj
 0002:0008ce00       ?getClass@MindRegionConnectorDef@@UAEPBDXZ 00545e00 f i mind:mindregionconnectordef.obj
 0002:0008ce40       ??_EMindRegionConnectorDef@@UAEPAXI@Z 00545e40 f i mind:mindregionconnectordef.obj
 0002:0008ce40       ??_GMindRegionConnectorDef@@UAEPAXI@Z 00545e40 f i mind:mindregionconnectordef.obj
 0002:0008ceb0       ??1MindRegionConnectorDef@@UAE@XZ 00545eb0 f i mind:mindregionconnectordef.obj
 0002:0008cf80       ??0NeuroLinkSource@@QAE@XZ 00545f80 f   mind:neurolinksource.obj
 0002:0008d0a0       ?create@NeuroLinkSource@@QAEXPAVMindRegion@@VString@@@Z 005460a0 f   mind:neurolinksource.obj
 0002:0008d2b0       ?setHandler@NeuroLinkSource@@QAEXP8MindRegion@@AEPAVNeuroSignal@@PAVNeuroLink@@PAV1@@Z@Z 005462b0 f   mind:neurolinksource.obj
 0002:0008d300       ?setSourcePool@NeuroLinkSource@@QAEXPAVNeuroPool@@@Z 00546300 f   mind:neurolinksource.obj
 0002:0008d350       ?addNeuroLink@NeuroLinkSource@@QAEXPAVNeuroLink@@@Z 00546350 f   mind:neurolinksource.obj
 0002:0008d3b0       ?getLinkSignal@NeuroLinkSource@@QAEPAVNeuroSignal@@PAVNeuroLink@@@Z 005463b0 f   mind:neurolinksource.obj
 0002:0008d770       ?sendMessage@NeuroLinkSource@@QAEXPAVNeuroSignal@@@Z 00546770 f   mind:neurolinksource.obj
 0002:0008da60       ??0?$ClassList@VNeuroLink@@@@QAE@XZ 00546a60 f i mind:neurolinksource.obj
 0002:0008dac0       ??1?$ClassList@VNeuroLink@@@@QAE@XZ 00546ac0 f i mind:neurolinksource.obj
 0002:0008db20       ?add@?$ClassList@VNeuroLink@@@@QAEHPAVNeuroLink@@@Z 00546b20 f i mind:neurolinksource.obj
 0002:0008dbc0       ?getId@NeuroLink@@QAE?AVString@@XZ 00546bc0 f i mind:neurolinksource.obj
 0002:0008dc80       ?getSizeX@NeuroLink@@QAEHXZ 00546c80 f i mind:neurolinksource.obj
 0002:0008dcc0       ?getSizeY@NeuroLink@@QAEHXZ 00546cc0 f i mind:neurolinksource.obj
 0002:0008dd00       ?getClass@NeuroLinkSource@@UAEPBDXZ 00546d00 f i mind:neurolinksource.obj
 0002:0008dd40       ??0NeuroLinkTarget@@QAE@XZ 00546d40 f   mind:neurolinktarget.obj
 0002:0008de30       ?create@NeuroLinkTarget@@QAEXPAVMindRegion@@VString@@@Z 00546e30 f   mind:neurolinktarget.obj
 0002:0008e040       ?setHandler@NeuroLinkTarget@@QAEXP8MindRegion@@AEPAVNeuroSignalSet@@PAVNeuroLink@@PAV1@PAVNeuroSignal@@@Z@Z 00547040 f   mind:neurolinktarget.obj
 0002:0008e090       ?addNeuroLink@NeuroLinkTarget@@QAEXPAVNeuroLink@@@Z 00547090 f   mind:neurolinktarget.obj
 0002:0008e0f0       ?execute@NeuroLinkTarget@@QAEPAVNeuroSignalSet@@PAVNeuroLink@@PAVNeuroSignal@@@Z 005470f0 f   mind:neurolinktarget.obj
 0002:0008e5c0       ?getClass@NeuroLinkTarget@@UAEPBDXZ 005475c0 f i mind:neurolinktarget.obj
 0002:0008e600       ??0MindSensor@@QAE@PAVSensorArea@@@Z 00547600 f   mind:mindsensor.obj
 0002:0008e700       ??_EMindSensor@@UAEPAXI@Z  00547700 f i mind:mindsensor.obj
 0002:0008e700       ??_GMindSensor@@UAEPAXI@Z  00547700 f i mind:mindsensor.obj
 0002:0008e770       ?configure@MindSensor@@QAEXVXml@@@Z 00547770 f   mind:mindsensor.obj
 0002:0008e800       ?setPollState@MindSensor@@QAEX_N@Z 00547800 f   mind:mindsensor.obj
 0002:0008e850       ?createRegion@MindSensor@@EAEXPAVMindRegionCreateInfo@@@Z 00547850 f   mind:mindsensor.obj
 0002:0008e960       ?exitRegion@MindSensor@@EAEXXZ 00547960 f   mind:mindsensor.obj
 0002:0008e9a0       ?destroyRegion@MindSensor@@EAEXXZ 005479a0 f   mind:mindsensor.obj
 0002:0008e9e0       ?processSensorData@MindSensor@@QAEXPAVNeuroLinkSource@@VString@@@Z 005479e0 f   mind:mindsensor.obj
 0002:0008ed20       ?getPollState@MindSensor@@QAE_NXZ 00547d20 f   mind:mindsensor.obj
 0002:0008ed60       ?getPollIntervalMs@MindSensor@@QAEHH@Z 00547d60 f   mind:mindsensor.obj
 0002:0008edb0       ?getSensorySignal@MindSensor@@QAEPAVNeuroSignal@@PAVNeuroLinkSource@@@Z 00547db0 f   mind:mindsensor.obj
 0002:0008ee30       ??0MindTarget@@QAE@XZ      00547e30 f   mind:mindtarget.obj
 0002:0008ef20       ?configureService@MindTarget@@EAEXVXml@@@Z 00547f20 f   mind:mindtarget.obj
 0002:0008efa0       ?createService@MindTarget@@EAEXXZ 00547fa0 f   mind:mindtarget.obj
 0002:0008f160       ?initService@MindTarget@@EAEXXZ 00548160 f   mind:mindtarget.obj
 0002:0008f310       ?runService@MindTarget@@EAEXXZ 00548310 f   mind:mindtarget.obj
 0002:0008f3a0       ?stopService@MindTarget@@EAEXXZ 005483a0 f   mind:mindtarget.obj
 0002:0008f430       ?exitService@MindTarget@@EAEXXZ 00548430 f   mind:mindtarget.obj
 0002:0008f490       ?destroyService@MindTarget@@EAEXXZ 00548490 f   mind:mindtarget.obj
 0002:0008f4f0       ?addSensor@MindTarget@@QAEXVString@@PAVMindSensor@@@Z 005484f0 f   mind:mindtarget.obj
 0002:0008f7e0       ?addEffector@MindTarget@@QAEXVString@@PAVMindEffector@@@Z 005487e0 f   mind:mindtarget.obj
 0002:0008fcd0       ??0Service@@QAE@XZ         00548cd0 f i mind:mindtarget.obj
 0002:0008fdd0       ??0ServiceState@@QAE@XZ    00548dd0 f i mind:mindtarget.obj
 0002:0008fe20       ?getSensorAreaDef@MindMap@@QAEPAVTargetAreaDef@@XZ 00548e20 f i mind:mindtarget.obj
 0002:0008fe60       ?getEffectorAreaDef@MindMap@@QAEPAVTargetAreaDef@@XZ 00548e60 f i mind:mindtarget.obj
 0002:0008fea0       ?setSensorId@MindSensor@@QAEXVString@@@Z 00548ea0 f i mind:mindtarget.obj
 0002:0008ff50       ?setEffectorId@MindEffector@@QAEXVString@@@Z 00548f50 f i mind:mindtarget.obj
 0002:00090000       ?getSensors@SensorArea@@QAEPAVMindSensorSet@@XZ 00549000 f i mind:mindtarget.obj
 0002:00090040       ?newService@MindService@@SAPAVService@@XZ 00549040 f   mind:mindservice.obj
 0002:00090120       ??0MindService@@IAE@XZ     00549120 f   mind:mindservice.obj
 0002:000902b0       ?configureService@MindService@@UAEXVXml@@@Z 005492b0 f   mind:mindservice.obj
 0002:000908e0       ?createService@MindService@@UAEXXZ 005498e0 f   mind:mindservice.obj
 0002:000910a0       ??0MindAreaSet@@QAE@XZ     0054a0a0 f i mind:mindservice.obj
 0002:00091170       ??0MindRegionSet@@QAE@XZ   0054a170 f i mind:mindservice.obj
 0002:00091240       ??0MindAreaLinkSet@@QAE@XZ 0054a240 f i mind:mindservice.obj
 0002:00091300       ?initService@MindService@@UAEXXZ 0054a300 f   mind:mindservice.obj
 0002:000915f0       ?runService@MindService@@UAEXXZ 0054a5f0 f   mind:mindservice.obj
 0002:00091660       ?stopService@MindService@@UAEXXZ 0054a660 f   mind:mindservice.obj
 0002:000916c0       ?exitService@MindService@@UAEXXZ 0054a6c0 f   mind:mindservice.obj
 0002:00091750       ?destroyService@MindService@@UAEXXZ 0054a750 f   mind:mindservice.obj
 0002:000919b0       ??_GMindSpace@@QAEPAXI@Z   0054a9b0 f i mind:mindservice.obj
 0002:00091a20       ??_GMindAreaSet@@QAEPAXI@Z 0054aa20 f i mind:mindservice.obj
 0002:00091a90       ??_GMindRegionSet@@QAEPAXI@Z 0054aa90 f i mind:mindservice.obj
 0002:00091b00       ??_GMindAreaLinkSet@@QAEPAXI@Z 0054ab00 f i mind:mindservice.obj
 0002:00091b70       ??_GMindActiveMemory@@QAEPAXI@Z 0054ab70 f i mind:mindservice.obj
 0002:00091be0       ??1MindAreaSet@@QAE@XZ     0054abe0 f i mind:mindservice.obj
 0002:00091ca0       ??1MindRegionSet@@QAE@XZ   0054aca0 f i mind:mindservice.obj
 0002:00091d60       ??1MindAreaLinkSet@@QAE@XZ 0054ad60 f i mind:mindservice.obj
 0002:00091e10       ?createAreas@MindService@@AAEXXZ 0054ae10 f   mind:mindservice.obj
 0002:00091ec0       ?createArea@MindService@@AAEXPAVMindAreaDef@@@Z 0054aec0 f   mind:mindservice.obj
 0002:00092230       ?addArea@MindService@@QAEXPAVMindArea@@@Z 0054b230 f   mind:mindservice.obj
 0002:000922b0       ?getMindAreas@MindService@@QAEAAV?$MapStringToClass@VMindArea@@@@XZ 0054b2b0 f   mind:mindservice.obj
 0002:00092310       ?getMindArea@MindService@@QAEPAVMindArea@@VString@@@Z 0054b310 f   mind:mindservice.obj
 0002:00092410       ?getMindRegion@MindService@@QAEPAVMindRegion@@VString@@@Z 0054b410 f   mind:mindservice.obj
 0002:00092720       ?isMindRegion@MindService@@QAE_NVString@@@Z 0054b720 f   mind:mindservice.obj
 0002:00092850       ?createRegion@MindService@@QAEPAVMindRegion@@VString@@0PAVMindArea@@PAVMindRegionCreateInfo@@@Z 0054b850 f   mind:mindservice.obj
 0002:00092ea0       ?getId@MindRegionCreateInfo@@QAE?AVString@@XZ 0054bea0 f i mind:mindservice.obj
 0002:00092f60       ?getInfo@MindRegionCreateInfo@@QAEPAVMindRegionDef@@XZ 0054bf60 f i mind:mindservice.obj
 0002:00092fa0       ?getType@MindRegionCreateInfo@@QAEPAVMindRegionTypeDef@@XZ 0054bfa0 f i mind:mindservice.obj
 0002:00092fe0       ?setMindTarget@MindService@@QAEXPAVMindTarget@@@Z 0054bfe0 f   mind:mindservice.obj
 0002:00093030       ?establishAreaLinks@MindService@@AAEXXZ 0054c030 f   mind:mindservice.obj
 0002:000930d0       ?createCircuitLinks@MindService@@QAEXPAVMindLocalCircuitDef@@@Z 0054c0d0 f   mind:mindservice.obj
 0002:00093290       ?createCircuitConnection@MindService@@AAEXPAVMindLocalCircuitDef@@PAVMindLocalCircuitConnectionDef@@@Z 0054c290 f   mind:mindservice.obj
 0002:00094190       ?createRegionConnection@MindService@@AAEXPAVMindConnectionTypeDef@@PAVMindRegion@@1_N@Z 0054d190 f   mind:mindservice.obj
 0002:00094240       ?createNeuroLink@MindService@@AAEPAVNeuroLink@@PAVMindConnectionTypeDef@@PAVMindConnectionLinkTypeDef@@PAVMindRegion@@2_N@Z 0054d240 f   mind:mindservice.obj
 0002:00094cd0       ??1NeuroLinkInfo@@QAE@XZ   0054dcd0 f i mind:mindservice.obj
 0002:00094d80       ?createRegionLink@MindService@@AAEPAVMindRegionLink@@PAVMindConnectionLinkTypeDef@@PAVMindRegion@@1_N@Z 0054dd80 f   mind:mindservice.obj
 0002:00095100       ?createAreaLink@MindService@@AAEPAVMindAreaLink@@PAVMindArea@@0@Z 0054e100 f   mind:mindservice.obj
 0002:00095800       ?createNeuroLink@MindService@@QAEPAVNeuroLink@@VString@@0PAVNeuroLinkSource@@PAVNeuroLinkTarget@@PAVNeuroLinkInfo@@@Z 0054e800 f   mind:mindservice.obj
 0002:00095ce0       ??0?$MapStringToClass@VMindConnectionTypeDef@@@@QAE@XZ 0054ece0 f i mind:mindservice.obj
 0002:00095d40       ??1?$MapStringToClass@VMindConnectionTypeDef@@@@QAE@XZ 0054ed40 f i mind:mindservice.obj
 0002:00095da0       ?add@?$MapStringToClass@VMindConnectionTypeDef@@@@QAEHPBDPAVMindConnectionTypeDef@@@Z 0054eda0 f i mind:mindservice.obj
 0002:00095fb0       ?get@?$MapStringToClass@VMindConnectionTypeDef@@@@QAEPAVMindConnectionTypeDef@@PBD@Z 0054efb0 f i mind:mindservice.obj
 0002:00096060       ??0?$MapStringToClass@VNeuroLink@@@@QAE@XZ 0054f060 f i mind:mindservice.obj
 0002:000960c0       ??1?$MapStringToClass@VNeuroLink@@@@QAE@XZ 0054f0c0 f i mind:mindservice.obj
 0002:00096120       ?add@?$MapStringToClass@VNeuroLink@@@@QAEHPBDPAVNeuroLink@@@Z 0054f120 f i mind:mindservice.obj
 0002:00096330       ?get@?$MapStringToClass@VNeuroLink@@@@QAEPAVNeuroLink@@PBD@Z 0054f330 f i mind:mindservice.obj
 0002:000963e0       ??0?$MapStringToClass@VMindAreaLink@@@@QAE@XZ 0054f3e0 f i mind:mindservice.obj
 0002:00096440       ??1?$MapStringToClass@VMindAreaLink@@@@QAE@XZ 0054f440 f i mind:mindservice.obj
 0002:000964a0       ?add@?$MapStringToClass@VMindAreaLink@@@@QAEHPBDPAVMindAreaLink@@@Z 0054f4a0 f i mind:mindservice.obj
 0002:000966b0       ?get@?$MapStringToClass@VMindAreaLink@@@@QAEPAVMindAreaLink@@PBD@Z 0054f6b0 f i mind:mindservice.obj
 0002:00096760       ?count@?$ClassList@VMindAreaDef@@@@QBEHXZ 0054f760 f i mind:mindservice.obj
 0002:000967c0       ?get@?$ClassList@VMindAreaDef@@@@QBEPAVMindAreaDef@@H@Z 0054f7c0 f i mind:mindservice.obj
 0002:00096820       ?count@?$ClassList@VMindConnectionLinkTypeDef@@@@QBEHXZ 0054f820 f i mind:mindservice.obj
 0002:00096880       ??0?$ClassList@VMindArea@@@@QAE@XZ 0054f880 f i mind:mindservice.obj
 0002:000968e0       ??1?$ClassList@VMindArea@@@@QAE@XZ 0054f8e0 f i mind:mindservice.obj
 0002:00096940       ??0?$ClassList@VMindRegion@@@@QAE@XZ 0054f940 f i mind:mindservice.obj
 0002:000969a0       ??1?$ClassList@VMindRegion@@@@QAE@XZ 0054f9a0 f i mind:mindservice.obj
 0002:00096a00       ??0?$ClassList@VMindAreaLink@@@@QAE@XZ 0054fa00 f i mind:mindservice.obj
 0002:00096a60       ??1?$ClassList@VMindAreaLink@@@@QAE@XZ 0054fa60 f i mind:mindservice.obj
 0002:00096ac0       ?getServiceName@MindService@@UAEPBDXZ 0054fac0 f i mind:mindservice.obj
 0002:00096b00       ??1MindSpace@@QAE@XZ       0054fb00 f i mind:mindservice.obj
 0002:00096ba0       ?getClass@MindSpace@@UAEPBDXZ 0054fba0 f i mind:mindservice.obj
 0002:00096be0       ?getMindAreas@MindMap@@QAEAAV?$ClassList@VMindAreaDef@@@@XZ 0054fbe0 f i mind:mindservice.obj
 0002:00096c20       ?runEnabled@MindAreaDef@@QAE_NXZ 0054fc20 f i mind:mindservice.obj
 0002:00096c60       ?getLinks@MindConnectionTypeDef@@QAEAAV?$ClassList@VMindConnectionLinkTypeDef@@@@XZ 0054fc60 f i mind:mindservice.obj
 0002:00096ca0       ?getImplementation@MindConnectionLinkTypeDef@@QAE?AVString@@XZ 0054fca0 f i mind:mindservice.obj
 0002:00096d60       ?getType@MindConnectionLinkTypeDef@@QAE?AVString@@XZ 0054fd60 f i mind:mindservice.obj
 0002:00096e20       ?getSrcConnector@MindConnectionLinkTypeDef@@QAE?AVString@@XZ 0054fe20 f i mind:mindservice.obj
 0002:00096ee0       ?getDstConnector@MindConnectionLinkTypeDef@@QAE?AVString@@XZ 0054fee0 f i mind:mindservice.obj
 0002:00096fa0       ?isBackward@MindConnectionLinkTypeDef@@QAE_NXZ 0054ffa0 f i mind:mindservice.obj
 0002:00096fe0       ?getType@MindLocalCircuitConnectionDef@@QAEPAVMindConnectionTypeDef@@XZ 0054ffe0 f i mind:mindservice.obj
 0002:00097020       ?getRegionSet@MindArea@@QAEPAVMindRegionSet@@XZ 00550020 f i mind:mindservice.obj
 0002:00097060       ?getClass@MindAreaSet@@UAEPBDXZ 00550060 f i mind:mindservice.obj
 0002:000970a0       ?getMindAreas@MindAreaSet@@QAEAAV?$MapStringToClass@VMindArea@@@@XZ 005500a0 f i mind:mindservice.obj
 0002:000970e0       ?setRegionInfo@MindRegion@@QAEXPAVMindRegionDef@@@Z 005500e0 f i mind:mindservice.obj
 0002:00097130       ?setRegionType@MindRegion@@QAEXPAVMindRegionTypeDef@@@Z 00550130 f i mind:mindservice.obj
 0002:00097180       ?setRegionId@MindRegion@@QAEXVString@@@Z 00550180 f i mind:mindservice.obj
 0002:00097230       ?getClass@MindRegionSet@@UAEPBDXZ 00550230 f i mind:mindservice.obj
 0002:00097270       ?setPrimary@NeuroLink@@QAEX_N@Z 00550270 f i mind:mindservice.obj
 0002:000972c0       ?getClass@MindAreaLinkSet@@UAEPBDXZ 005502c0 f i mind:mindservice.obj
 0002:00097300       ?setPrimary@MindRegionLink@@QAEX_N@Z 00550300 f i mind:mindservice.obj
 0002:00097350       ?get@?$ClassList@VMindConnectionLinkTypeDef@@@@QBEPAVMindConnectionLinkTypeDef@@H@Z 00550350 f i mind:mindservice.obj
 0002:000973b0       ??0NeuroSignalSet@@QAE@XZ  005503b0 f   mind:neurosignalset.obj
 0002:00097470       ??1NeuroSignalSet@@QAE@XZ  00550470 f   mind:neurosignalset.obj
 0002:00097530       ?addSetItem@NeuroSignalSet@@QAEXPAVNeuroSignal@@@Z 00550530 f   mind:neurosignalset.obj
 0002:00097590       ?addSetItem@NeuroSignalSet@@QAEXPAVNeuroLinkSource@@PAVNeuroSignal@@@Z 00550590 f   mind:neurosignalset.obj
 0002:000977c0       ?addSetItem@NeuroSignalSet@@QAEXPAVMindRegion@@VString@@PAVNeuroSignal@@@Z 005507c0 f   mind:neurosignalset.obj
 0002:00097ae0       ?addSet@NeuroSignalSet@@QAEXPAV1@@Z 00550ae0 f   mind:neurosignalset.obj
 0002:00097b40       ?moveTo@NeuroSignalSet@@QAEXPAV1@@Z 00550b40 f   mind:neurosignalset.obj
 0002:00097bb0       ?clear@NeuroSignalSet@@QAEXXZ 00550bb0 f   mind:neurosignalset.obj
 0002:00097c10       ?isEmpty@NeuroSignalSet@@QAE_NXZ 00550c10 f   mind:neurosignalset.obj
 0002:00097c70       ?destroy@NeuroSignalSet@@QAEXXZ 00550c70 f   mind:neurosignalset.obj
 0002:00097cd0       ??0?$ClassList@VNeuroSignal@@@@QAE@XZ 00550cd0 f i mind:neurosignalset.obj
 0002:00097d30       ??1?$ClassList@VNeuroSignal@@@@QAE@XZ 00550d30 f i mind:neurosignalset.obj
 0002:00097d90       ?add@?$ClassList@VNeuroSignal@@@@QAEHPAVNeuroSignal@@@Z 00550d90 f i mind:neurosignalset.obj
 0002:00097e30       ?add@?$ClassList@VNeuroSignal@@@@QAEXPAV1@@Z 00550e30 f i mind:neurosignalset.obj
 0002:00097f10       ?clear@?$ClassList@VNeuroSignal@@@@QAEXXZ 00550f10 f i mind:neurosignalset.obj
 0002:00097f70       ?destroy@?$ClassList@VNeuroSignal@@@@QAEXXZ 00550f70 f i mind:neurosignalset.obj
 0002:00098050       ??_GNeuroSignal@@QAEPAXI@Z 00551050 f i mind:neurosignalset.obj
 0002:000980c0       ??A?$ClassList@VNeuroSignal@@@@QAEAAPAVNeuroSignal@@H@Z 005510c0 f i mind:neurosignalset.obj
 0002:00098120       ?getClass@NeuroSignalSet@@UAEPBDXZ 00551120 f i mind:neurosignalset.obj
 0002:00098160       ??0MindArea@@QAE@XZ        00551160 f   mind:mindarea.obj
 0002:000983e0       ??_GMindArea@@UAEPAXI@Z    005513e0 f i mind:mindarea.obj
 0002:000983e0       ??_EMindArea@@UAEPAXI@Z    005513e0 f i mind:mindarea.obj
 0002:00098450       ??1MindArea@@UAE@XZ        00551450 f   mind:mindarea.obj
 0002:00098650       ?configure@MindArea@@QAEXPAVMindAreaDef@@@Z 00551650 f   mind:mindarea.obj
 0002:00098760       ?getRegions@MindArea@@QAEAAV?$MapStringToClass@VMindRegion@@@@XZ 00551760 f   mind:mindarea.obj
 0002:000987c0       ?getInternalRegionLinks@MindArea@@QAEAAV?$ClassList@VMindRegionLink@@@@XZ 005517c0 f   mind:mindarea.obj
 0002:00098820       ?getMasterAreaLinks@MindArea@@QAEAAV?$ClassList@VMindAreaLink@@@@XZ 00551820 f   mind:mindarea.obj
 0002:00098880       ?getSlaveAreaLinks@MindArea@@QAEAAV?$ClassList@VMindAreaLink@@@@XZ 00551880 f   mind:mindarea.obj
 0002:000988e0       ?createRegions@MindArea@@QAEXPAVMindTarget@@@Z 005518e0 f   mind:mindarea.obj
 0002:00098990       ?createRegion@MindArea@@AAEXPAVMindTarget@@PAVMindRegionDef@@@Z 00551990 f   mind:mindarea.obj
 0002:00098c10       ?wakeupArea@MindArea@@QAEXPAVMindActiveMemory@@@Z 00551c10 f   mind:mindarea.obj
 0002:00098c50       ?suspendArea@MindArea@@QAEXXZ 00551c50 f   mind:mindarea.obj
 0002:00098c90       ?exit@MindArea@@QAEXXZ     00551c90 f   mind:mindarea.obj
 0002:00098d10       ?destroy@MindArea@@QAEXXZ  00551d10 f   mind:mindarea.obj
 0002:00098d90       ?getRegion@MindArea@@QAEPAVMindRegion@@VString@@0@Z 00551d90 f   mind:mindarea.obj
 0002:00098f60       ?addRegion@MindArea@@QAEXPAVMindRegion@@@Z 00551f60 f   mind:mindarea.obj
 0002:00098fc0       ?addInternalRegionLink@MindArea@@QAEXPAVMindRegionLink@@@Z 00551fc0 f   mind:mindarea.obj
 0002:00099020       ?addMasterLink@MindArea@@QAEXPAVMindAreaLink@@@Z 00552020 f   mind:mindarea.obj
 0002:00099080       ?addSlaveLink@MindArea@@QAEXPAVMindAreaLink@@@Z 00552080 f   mind:mindarea.obj
 0002:000990e0       ?followLinks@MindArea@@QAEXVString@@PAVMindRegion@@PAVNeuroSignalSet@@@Z 005520e0 f   mind:mindarea.obj
 0002:00099600       ?followLinksInternalSet@MindArea@@AAEXVString@@AAHPAVNeuroSignalSet@@AAV?$MapStringToClass@VMindRegion@@@@AAV3@AAV?$ClassList@VMindMessage@@@@@Z 00552600 f   mind:mindarea.obj
 0002:00099940       ?followLinksInternalOne@MindArea@@AAEXVString@@AAHPAVNeuroSignal@@AAV?$ClassList@VNeuroLink@@@@AAV?$MapStringToClass@VMindRegion@@@@AAVNeuroSignalSet@@AAV?$ClassList@VMindMessage@@@@@Z 00552940 f   mind:mindarea.obj
 0002:0009a950       ??_GNeuroSignalSet@@QAEPAXI@Z 00553950 f i mind:mindarea.obj
 0002:0009a9c0       ?count@?$ClassList@VMindRegionDef@@@@QBEHXZ 005539c0 f i mind:mindarea.obj
 0002:0009aa20       ?get@?$ClassList@VMindRegionDef@@@@QBEPAVMindRegionDef@@H@Z 00553a20 f i mind:mindarea.obj
 0002:0009aa80       ??0?$ClassList@VMindMessage@@@@QAE@XZ 00553a80 f i mind:mindarea.obj
 0002:0009aae0       ??1?$ClassList@VMindMessage@@@@QAE@XZ 00553ae0 f i mind:mindarea.obj
 0002:0009ab40       ?count@?$ClassList@VMindMessage@@@@QBEHXZ 00553b40 f i mind:mindarea.obj
 0002:0009aba0       ?get@?$ClassList@VMindMessage@@@@QBEPAVMindMessage@@H@Z 00553ba0 f i mind:mindarea.obj
 0002:0009ac00       ?add@?$ClassList@VMindMessage@@@@QAEHPAVMindMessage@@@Z 00553c00 f i mind:mindarea.obj
 0002:0009aca0       ?clear@?$ClassList@VMindMessage@@@@QAEXXZ 00553ca0 f i mind:mindarea.obj
 0002:0009ad00       ?getName@MindRegionTypeDef@@QAE?AVString@@XZ 00553d00 f i mind:mindarea.obj
 0002:0009adc0       ?getImplementation@MindRegionTypeDef@@QAE?AVString@@XZ 00553dc0 f i mind:mindarea.obj
 0002:0009ae80       ?getRegions@MindAreaDef@@QAEAAV?$ClassList@VMindRegionDef@@@@XZ 00553e80 f i mind:mindarea.obj
 0002:0009aec0       ?getClass@MindArea@@UAEPBDXZ 00553ec0 f i mind:mindarea.obj
 0002:0009af00       ?getRegions@MindRegionSet@@QAEAAV?$MapStringToClass@VMindRegion@@@@XZ 00553f00 f i mind:mindarea.obj
 0002:0009af40       ?getSource@NeuroSignal@@QAEPAVNeuroLinkSource@@XZ 00553f40 f i mind:mindarea.obj
 0002:0009af80       ?getLinks@MindAreaLinkSet@@QAEAAV?$ClassList@VMindAreaLink@@@@XZ 00553f80 f i mind:mindarea.obj
 0002:0009afc0       ??0NeuroSignal@@QAE@XZ     00553fc0 f   mind:neurosignal.obj
 0002:0009b0d0       ??0NeuroSignal@@QAE@HH@Z   005540d0 f   mind:neurosignal.obj
 0002:0009b1f0       ??0NeuroSignal@@QAE@PAV0@@Z 005541f0 f   mind:neurosignal.obj
 0002:0009b330       ??1NeuroSignal@@QAE@XZ     00554330 f   mind:neurosignal.obj
 0002:0009b400       ?copyDataFromSignal@NeuroSignal@@QAEXPAV1@@Z 00554400 f   mind:neurosignal.obj
 0002:0009b460       ?getIndexRawData@NeuroSignal@@QAEPAHXZ 00554460 f   mind:neurosignal.obj
 0002:0009b4c0       ?create@NeuroSignal@@QAEXHH@Z 005544c0 f   mind:neurosignal.obj
 0002:0009b540       ?setTs@NeuroSignal@@QAEX_J@Z 00554540 f   mind:neurosignal.obj
 0002:0009b590       ?setId@NeuroSignal@@QAEXVString@@@Z 00554590 f   mind:neurosignal.obj
 0002:0009b660       ?setSource@NeuroSignal@@QAEXPAVNeuroLinkSource@@@Z 00554660 f   mind:neurosignal.obj
 0002:0009b6b0       ?getSizeInfo@NeuroSignal@@QAEXPAH0@Z 005546b0 f   mind:neurosignal.obj
 0002:0009b710       ?getMaxSize@NeuroSignal@@QAEHXZ 00554710 f   mind:neurosignal.obj
 0002:0009b760       ?getDataSize@NeuroSignal@@QAEHXZ 00554760 f   mind:neurosignal.obj
 0002:0009b7c0       ?createFromPool@NeuroSignal@@QAEXPAVNeuroPool@@@Z 005547c0 f   mind:neurosignal.obj
 0002:0009b9e0       ?getBinaryDataString@NeuroSignal@@QAE?AVString@@XZ 005549e0 f   mind:neurosignal.obj
 0002:0009bc50       ?getNumberDataString@NeuroSignal@@QAE?AVString@@XZ 00554c50 f   mind:neurosignal.obj
 0002:0009bdd0       ?clearData@NeuroSignal@@QAEXXZ 00554dd0 f   mind:neurosignal.obj
 0002:0009be30       ?addIndexData@NeuroSignal@@QAEXH@Z 00554e30 f   mind:neurosignal.obj
 0002:0009be90       ?arrangeNormal@NeuroSignal@@QAEXXZ 00554e90 f   mind:neurosignal.obj
 0002:0009bf00       ?removeNotFiringIndexData@NeuroSignal@@QAEXXZ 00554f00 f   mind:neurosignal.obj
 0002:0009bf60       ?addIndexDataSorted@NeuroSignal@@QAEXPAV1@@Z 00554f60 f   mind:neurosignal.obj
 0002:0009c1d0       ?setIndexData@NeuroSignal@@QAEXPAHH@Z 005551d0 f   mind:neurosignal.obj
 0002:0009c3f0       ?getCombinedState@NeuroSignal@@QAE?AVString@@PAV1@0@Z 005553f0 f   mind:neurosignal.obj
 0002:0009c7e0       ??0?$FlatList@H@@QAE@XZ    005557e0 f i mind:neurosignal.obj
 0002:0009c840       ??1?$FlatList@H@@QAE@XZ    00555840 f i mind:neurosignal.obj
 0002:0009c8b0       ?count@?$FlatList@H@@QBEHXZ 005558b0 f i mind:neurosignal.obj
 0002:0009c8f0       ?size@?$FlatList@H@@QBEHXZ 005558f0 f i mind:neurosignal.obj
 0002:0009c930       ?setCount@?$FlatList@H@@QAEXH@Z 00555930 f i mind:neurosignal.obj
 0002:0009c9a0       ?getAll@?$FlatList@H@@QBEPAHXZ 005559a0 f i mind:neurosignal.obj
 0002:0009c9e0       ?get@?$FlatList@H@@QBEHH@Z 005559e0 f i mind:neurosignal.obj
 0002:0009cbb0       ?copy@?$FlatList@H@@QAEXAAV1@@Z 00555bb0 f i mind:neurosignal.obj
 0002:0009cc20       ?add@?$FlatList@H@@QAEHABH@Z 00555c20 f i mind:neurosignal.obj
 0002:0009ccc0       ?clear@?$FlatList@H@@QAEXXZ 00555cc0 f i mind:neurosignal.obj
 0002:0009cd40       ?set@?$FlatList@H@@QAEXPBHH@Z 00555d40 f i mind:neurosignal.obj
 0002:0009cde0       ?sort@?$FlatList@H@@QAEXXZ 00555de0 f i mind:neurosignal.obj
 0002:0009ce90       ?removeValue@?$FlatList@H@@QAEXH@Z 00555e90 f i mind:neurosignal.obj
 0002:0009cf80       ?removeDuplicates@?$FlatList@H@@QAEXXZ 00555f80 f i mind:neurosignal.obj
 0002:0009d080       ?allocate@?$FlatList@H@@QAEXH@Z 00556080 f i mind:neurosignal.obj
 0002:0009d100       ?getData@?$TwoIndexArray@UNEURON_DATA@@@@QAEPAUNEURON_DATA@@XZ 00556100 f i mind:neurosignal.obj
 0002:0009d140       ?create@?$FlatList@H@@QAEXH@Z 00556140 f i mind:neurosignal.obj
 0002:0009d310       ?allocateExact@?$FlatList@H@@QAEXH@Z 00556310 f i mind:neurosignal.obj
 0002:0009d400       ?getClass@NeuroSignal@@UAEPBDXZ 00556400 f i mind:neurosignal.obj
 0002:0009d440       ??0MindMap@@QAE@XZ         00556440 f   mind:mindmap.obj
 0002:0009d5e0       ??_EMindMap@@UAEPAXI@Z     005565e0 f i mind:mindmap.obj
 0002:0009d5e0       ??_GMindMap@@UAEPAXI@Z     005565e0 f i mind:mindmap.obj
 0002:0009d650       ??1MindMap@@UAE@XZ         00556650 f   mind:mindmap.obj
 0002:0009d800       ?createFromXml@MindMap@@QAEXVXml@@@Z 00556800 f   mind:mindmap.obj
 0002:0009dbd0       ?createRegionTypeDefSet@MindMap@@AAEXVXml@@@Z 00556bd0 f   mind:mindmap.obj
 0002:0009e320       ?createAreaDefSet@MindMap@@AAEXVXml@@@Z 00557320 f   mind:mindmap.obj
 0002:0009ead0       ?createConnectionTypeDefSet@MindMap@@AAEXVXml@@@Z 00557ad0 f   mind:mindmap.obj
 0002:0009ed80       ?createCircuitDefSet@MindMap@@AAEXVXml@@@Z 00557d80 f   mind:mindmap.obj
 0002:0009f150       ?createRegionMap@MindMap@@AAEXPAVMindAreaDef@@@Z 00558150 f   mind:mindmap.obj
 0002:0009f4c0       ?getConnectionTypeDefByName@MindMap@@QAEPAVMindConnectionTypeDef@@VString@@@Z 005584c0 f   mind:mindmap.obj
 0002:0009f580       ?getServiceByName@MindMap@@QAEPAVMindServiceDef@@VString@@@Z 00558580 f   mind:mindmap.obj
 0002:0009f860       ?getRegionTypeDefByName@MindMap@@QAEPAVMindRegionTypeDef@@VString@@@Z 00558860 f   mind:mindmap.obj
 0002:0009fb40       ?getRegionDefById@MindMap@@QAEPAVMindRegionDef@@VString@@@Z 00558b40 f   mind:mindmap.obj
 0002:0009fe20       ?getAreaDefById@MindMap@@QAEPAVMindAreaDef@@VString@@@Z 00558e20 f   mind:mindmap.obj
 0002:000a0100       ?getMapRegions@MindMap@@QAEXAAV?$MapStringToClass@VMindRegionDef@@@@@Z 00559100 f   mind:mindmap.obj
 0002:000a0280       ?createTargetMeta_defineCircuit@MindMap@@AAEXVXml@@PAVTargetAreaDef@@_N@Z 00559280 f   mind:mindmap.obj
 0002:000a0790       ?createTargetMeta@MindMap@@QAEXVXml@@@Z 00559790 f   mind:mindmap.obj
 0002:000a0930       ?getTargetRegionDefById@MindMap@@QAEPAVTargetRegionDef@@VString@@@Z 00559930 f   mind:mindmap.obj
 0002:000a0c10       ??0?$ClassList@VMindRegionTypeDef@@@@QAE@XZ 00559c10 f i mind:mindmap.obj
 0002:000a0c70       ??1?$ClassList@VMindRegionTypeDef@@@@QAE@XZ 00559c70 f i mind:mindmap.obj
 0002:000a0cd0       ?count@?$ClassList@VMindRegionTypeDef@@@@QBEHXZ 00559cd0 f i mind:mindmap.obj
 0002:000a0d30       ?get@?$ClassList@VMindRegionTypeDef@@@@QBEPAVMindRegionTypeDef@@H@Z 00559d30 f i mind:mindmap.obj
 0002:000a0d90       ?add@?$ClassList@VMindRegionTypeDef@@@@QAEHPAVMindRegionTypeDef@@@Z 00559d90 f i mind:mindmap.obj
 0002:000a0e30       ?destroy@?$ClassList@VMindRegionTypeDef@@@@QAEXXZ 00559e30 f i mind:mindmap.obj
 0002:000a0f20       ??0?$ClassList@VMindAreaDef@@@@QAE@XZ 00559f20 f i mind:mindmap.obj
 0002:000a0f80       ??1?$ClassList@VMindAreaDef@@@@QAE@XZ 00559f80 f i mind:mindmap.obj
 0002:000a0fe0       ?add@?$ClassList@VMindAreaDef@@@@QAEHPAVMindAreaDef@@@Z 00559fe0 f i mind:mindmap.obj
 0002:000a1080       ?destroy@?$ClassList@VMindAreaDef@@@@QAEXXZ 0055a080 f i mind:mindmap.obj
 0002:000a1170       ??0?$ClassList@VMindConnectionTypeDef@@@@QAE@XZ 0055a170 f i mind:mindmap.obj
 0002:000a11d0       ??1?$ClassList@VMindConnectionTypeDef@@@@QAE@XZ 0055a1d0 f i mind:mindmap.obj
 0002:000a1230       ?count@?$ClassList@VMindConnectionTypeDef@@@@QBEHXZ 0055a230 f i mind:mindmap.obj
 0002:000a1290       ?get@?$ClassList@VMindConnectionTypeDef@@@@QBEPAVMindConnectionTypeDef@@H@Z 0055a290 f i mind:mindmap.obj
 0002:000a12f0       ?add@?$ClassList@VMindConnectionTypeDef@@@@QAEHPAVMindConnectionTypeDef@@@Z 0055a2f0 f i mind:mindmap.obj
 0002:000a1390       ?destroy@?$ClassList@VMindConnectionTypeDef@@@@QAEXXZ 0055a390 f i mind:mindmap.obj
 0002:000a1480       ??0?$ClassList@VMindGlobalCircuitDef@@@@QAE@XZ 0055a480 f i mind:mindmap.obj
 0002:000a14e0       ??1?$ClassList@VMindGlobalCircuitDef@@@@QAE@XZ 0055a4e0 f i mind:mindmap.obj
 0002:000a1540       ?add@?$ClassList@VMindGlobalCircuitDef@@@@QAEHPAVMindGlobalCircuitDef@@@Z 0055a540 f i mind:mindmap.obj
 0002:000a15e0       ??0?$ClassList@VMindLocalCircuitDef@@@@QAE@XZ 0055a5e0 f i mind:mindmap.obj
 0002:000a1640       ??1?$ClassList@VMindLocalCircuitDef@@@@QAE@XZ 0055a640 f i mind:mindmap.obj
 0002:000a16a0       ?add@?$ClassList@VMindLocalCircuitDef@@@@QAEHPAVMindLocalCircuitDef@@@Z 0055a6a0 f i mind:mindmap.obj
 0002:000a1740       ?add@?$ClassList@VMindLocalCircuitDef@@@@QAEXPAV?$MapStringToClass@VMindLocalCircuitDef@@@@@Z 0055a740 f i mind:mindmap.obj
 0002:000a1820       ??0?$MapStringToClass@VMindRegionTypeDef@@@@QAE@XZ 0055a820 f i mind:mindmap.obj
 0002:000a1880       ??1?$MapStringToClass@VMindRegionTypeDef@@@@QAE@XZ 0055a880 f i mind:mindmap.obj
 0002:000a18e0       ?add@?$MapStringToClass@VMindRegionTypeDef@@@@QAEHPBDPAVMindRegionTypeDef@@@Z 0055a8e0 f i mind:mindmap.obj
 0002:000a1af0       ?get@?$MapStringToClass@VMindRegionTypeDef@@@@QAEPAVMindRegionTypeDef@@PBD@Z 0055aaf0 f i mind:mindmap.obj
 0002:000a1ba0       ??0?$MapStringToClass@VMindAreaDef@@@@QAE@XZ 0055aba0 f i mind:mindmap.obj
 0002:000a1c00       ??1?$MapStringToClass@VMindAreaDef@@@@QAE@XZ 0055ac00 f i mind:mindmap.obj
 0002:000a1c60       ?add@?$MapStringToClass@VMindAreaDef@@@@QAEHPBDPAVMindAreaDef@@@Z 0055ac60 f i mind:mindmap.obj
 0002:000a1e70       ?get@?$MapStringToClass@VMindAreaDef@@@@QAEPAVMindAreaDef@@PBD@Z 0055ae70 f i mind:mindmap.obj
 0002:000a1f20       ?count@?$MapStringToClass@VMindAreaDef@@@@QAEHXZ 0055af20 f i mind:mindmap.obj
 0002:000a1f80       ?getClassByIndex@?$MapStringToClass@VMindAreaDef@@@@QAEPAVMindAreaDef@@H@Z 0055af80 f i mind:mindmap.obj
 0002:000a2040       ??0?$MapStringToClass@VMindLocalCircuitDef@@@@QAE@XZ 0055b040 f i mind:mindmap.obj
 0002:000a20a0       ??1?$MapStringToClass@VMindLocalCircuitDef@@@@QAE@XZ 0055b0a0 f i mind:mindmap.obj
 0002:000a2100       ?add@?$MapStringToClass@VMindLocalCircuitDef@@@@QAEXAAV1@@Z 0055b100 f i mind:mindmap.obj
 0002:000a21b0       ??0?$MapStringToClass@VMindServiceDef@@@@QAE@XZ 0055b1b0 f i mind:mindmap.obj
 0002:000a2210       ??1?$MapStringToClass@VMindServiceDef@@@@QAE@XZ 0055b210 f i mind:mindmap.obj
 0002:000a2270       ?add@?$MapStringToClass@VMindServiceDef@@@@QAEXAAV1@@Z 0055b270 f i mind:mindmap.obj
 0002:000a2320       ?get@?$MapStringToClass@VMindServiceDef@@@@QAEPAVMindServiceDef@@PBD@Z 0055b320 f i mind:mindmap.obj
 0002:000a23d0       ??A?$ClassList@VMindRegionTypeDef@@@@QAEAAPAVMindRegionTypeDef@@H@Z 0055b3d0 f i mind:mindmap.obj
 0002:000a2430       ?clear@?$ClassList@VMindRegionTypeDef@@@@QAEXXZ 0055b430 f i mind:mindmap.obj
 0002:000a2490       ??A?$ClassList@VMindAreaDef@@@@QAEAAPAVMindAreaDef@@H@Z 0055b490 f i mind:mindmap.obj
 0002:000a24f0       ?clear@?$ClassList@VMindAreaDef@@@@QAEXXZ 0055b4f0 f i mind:mindmap.obj
 0002:000a2550       ??A?$ClassList@VMindConnectionTypeDef@@@@QAEAAPAVMindConnectionTypeDef@@H@Z 0055b550 f i mind:mindmap.obj
 0002:000a25b0       ?clear@?$ClassList@VMindConnectionTypeDef@@@@QAEXXZ 0055b5b0 f i mind:mindmap.obj
 0002:000a2610       ?getClass@MindMap@@UAEPBDXZ 0055b610 f i mind:mindmap.obj
 0002:000a2650       ?getServices@MindAreaDef@@QAEAAV?$MapStringToClass@VMindServiceDef@@@@XZ 0055b650 f i mind:mindmap.obj
 0002:000a2690       ?getName@MindConnectionTypeDef@@QAE?AVString@@XZ 0055b690 f i mind:mindmap.obj
 0002:000a2750       ?setCircuitDef@TargetRegionDef@@QAEXPAVTargetCircuitDef@@@Z 0055b750 f i mind:mindmap.obj
 0002:000a27a0       ?getCircuitInfo@TargetRegionTypeDef@@QAEPAVTargetCircuitDef@@XZ 0055b7a0 f i mind:mindmap.obj
 0002:000a27e0       ??0MindRegionLink@@QAE@PAVMindAreaLink@@@Z 0055b7e0 f   mind:mindregionlink.obj
 0002:000a28f0       ?getSrcRegion@MindRegionLink@@QAEPAVMindRegion@@XZ 0055b8f0 f   mind:mindregionlink.obj
 0002:000a2930       ?getDstRegion@MindRegionLink@@QAEPAVMindRegion@@XZ 0055b930 f   mind:mindregionlink.obj
 0002:000a2970       ?createRegionLink@MindRegionLink@@QAEXPAVMindConnectionLinkTypeDef@@PAVMindRegion@@1@Z 0055b970 f   mind:mindregionlink.obj
 0002:000a2d70       ?addNeuroLink@MindRegionLink@@QAEXPAVNeuroLink@@@Z 0055bd70 f   mind:mindregionlink.obj
 0002:000a2dd0       ?exitRegionLink@MindRegionLink@@QAEXXZ 0055bdd0 f   mind:mindregionlink.obj
 0002:000a2e10       ?destroyRegionLink@MindRegionLink@@QAEXXZ 0055be10 f   mind:mindregionlink.obj
 0002:000a2e70       ?destroy@?$ClassList@VNeuroLink@@@@QAEXXZ 0055be70 f i mind:mindregionlink.obj
 0002:000a2f50       ??_GNeuroLink@@QAEPAXI@Z   0055bf50 f i mind:mindregionlink.obj
 0002:000a2fc0       ??1NeuroLink@@QAE@XZ       0055bfc0 f i mind:mindregionlink.obj
 0002:000a3080       ??A?$ClassList@VNeuroLink@@@@QAEAAPAVNeuroLink@@H@Z 0055c080 f i mind:mindregionlink.obj
 0002:000a30e0       ?clear@?$ClassList@VNeuroLink@@@@QAEXXZ 0055c0e0 f i mind:mindregionlink.obj
 0002:000a3140       ?getClass@MindRegionLink@@UAEPBDXZ 0055c140 f i mind:mindregionlink.obj
 0002:000a3180       ??0MindAreaDef@@QAE@XZ     0055c180 f   mind:mindareadef.obj
 0002:000a3310       ??_GMindAreaDef@@UAEPAXI@Z 0055c310 f i mind:mindareadef.obj
 0002:000a3310       ??_EMindAreaDef@@UAEPAXI@Z 0055c310 f i mind:mindareadef.obj
 0002:000a3380       ??1MindAreaDef@@UAE@XZ     0055c380 f   mind:mindareadef.obj
 0002:000a3530       ?createFromXml@MindAreaDef@@QAEXVXml@@@Z 0055c530 f   mind:mindareadef.obj
 0002:000a3d00       ?resolveReferences@MindAreaDef@@QAEXPAVMindMap@@@Z 0055cd00 f   mind:mindareadef.obj
 0002:000a3da0       ?findRegion@MindAreaDef@@QAEPAVMindRegionDef@@VString@@@Z 0055cda0 f   mind:mindareadef.obj
 0002:000a3e60       ?addRegion@MindAreaDef@@QAEXPAVMindRegionDef@@@Z 0055ce60 f   mind:mindareadef.obj
 0002:000a3f60       ?addConnection@MindAreaDef@@QAEXPAVMindLocalCircuitConnectionDef@@@Z 0055cf60 f   mind:mindareadef.obj
 0002:000a3fc0       ?addCircuit@MindAreaDef@@QAEXPAVMindLocalCircuitDef@@@Z 0055cfc0 f   mind:mindareadef.obj
 0002:000a40c0       ?destroy@?$ClassList@VMindLocalCircuitDef@@@@QAEXXZ 0055d0c0 f i mind:mindareadef.obj
 0002:000a41b0       ?add@?$MapStringToClass@VMindLocalCircuitDef@@@@QAEHPBDPAVMindLocalCircuitDef@@@Z 0055d1b0 f i mind:mindareadef.obj
 0002:000a43c0       ?add@?$MapStringToClass@VMindServiceDef@@@@QAEHPBDPAVMindServiceDef@@@Z 0055d3c0 f i mind:mindareadef.obj
 0002:000a45d0       ?destroy@?$ClassList@VMindLocalCircuitConnectionDef@@@@QAEXXZ 0055d5d0 f i mind:mindareadef.obj
 0002:000a46c0       ??0?$ClassList@VMindServiceDef@@@@QAE@XZ 0055d6c0 f i mind:mindareadef.obj
 0002:000a4720       ??1?$ClassList@VMindServiceDef@@@@QAE@XZ 0055d720 f i mind:mindareadef.obj
 0002:000a4780       ?add@?$ClassList@VMindServiceDef@@@@QAEHPAVMindServiceDef@@@Z 0055d780 f i mind:mindareadef.obj
 0002:000a4820       ?destroy@?$ClassList@VMindServiceDef@@@@QAEXXZ 0055d820 f i mind:mindareadef.obj
 0002:000a4910       ??0?$ClassList@VMindRegionDef@@@@QAE@XZ 0055d910 f i mind:mindareadef.obj
 0002:000a4970       ??1?$ClassList@VMindRegionDef@@@@QAE@XZ 0055d970 f i mind:mindareadef.obj
 0002:000a49d0       ?add@?$ClassList@VMindRegionDef@@@@QAEHPAVMindRegionDef@@@Z 0055d9d0 f i mind:mindareadef.obj
 0002:000a4a70       ?destroy@?$ClassList@VMindRegionDef@@@@QAEXXZ 0055da70 f i mind:mindareadef.obj
 0002:000a4b60       ??A?$ClassList@VMindLocalCircuitDef@@@@QAEAAPAVMindLocalCircuitDef@@H@Z 0055db60 f i mind:mindareadef.obj
 0002:000a4bc0       ?clear@?$ClassList@VMindLocalCircuitDef@@@@QAEXXZ 0055dbc0 f i mind:mindareadef.obj
 0002:000a4c20       ??A?$ClassList@VMindLocalCircuitConnectionDef@@@@QAEAAPAVMindLocalCircuitConnectionDef@@H@Z 0055dc20 f i mind:mindareadef.obj
 0002:000a4c80       ?clear@?$ClassList@VMindLocalCircuitConnectionDef@@@@QAEXXZ 0055dc80 f i mind:mindareadef.obj
 0002:000a4ce0       ?count@?$ClassList@VMindServiceDef@@@@QBEHXZ 0055dce0 f i mind:mindareadef.obj
 0002:000a4d40       ??A?$ClassList@VMindServiceDef@@@@QAEAAPAVMindServiceDef@@H@Z 0055dd40 f i mind:mindareadef.obj
 0002:000a4da0       ?clear@?$ClassList@VMindServiceDef@@@@QAEXXZ 0055dda0 f i mind:mindareadef.obj
 0002:000a4e00       ??A?$ClassList@VMindRegionDef@@@@QAEAAPAVMindRegionDef@@H@Z 0055de00 f i mind:mindareadef.obj
 0002:000a4e60       ?clear@?$ClassList@VMindRegionDef@@@@QAEXXZ 0055de60 f i mind:mindareadef.obj
 0002:000a4ec0       ?getServiceId@MindServiceDef@@QAE?AVString@@XZ 0055dec0 f i mind:mindareadef.obj
 0002:000a4f80       ?getClass@MindAreaDef@@UAEPBDXZ 0055df80 f i mind:mindareadef.obj
 0002:000a4fc0       ??0MindLocalCircuitDef@@QAE@PAVMindAreaDef@@@Z 0055dfc0 f   mind:mindlocalcircuitdef.obj
 0002:000a50f0       ??_GMindLocalCircuitDef@@UAEPAXI@Z 0055e0f0 f i mind:mindlocalcircuitdef.obj
 0002:000a50f0       ??_EMindLocalCircuitDef@@UAEPAXI@Z 0055e0f0 f i mind:mindlocalcircuitdef.obj
 0002:000a5160       ??1MindLocalCircuitDef@@UAE@XZ 0055e160 f   mind:mindlocalcircuitdef.obj
 0002:000a5260       ?createFromXml@MindLocalCircuitDef@@QAEXVXml@@@Z 0055e260 f   mind:mindlocalcircuitdef.obj
 0002:000a59c0       ?resolveReferences@MindLocalCircuitDef@@QAEXPAVMindMap@@@Z 0055e9c0 f   mind:mindlocalcircuitdef.obj
 0002:000a5a60       ?getInternalConnections@MindLocalCircuitDef@@QAEXAAV?$ClassList@VMindLocalCircuitConnectionDef@@@@@Z 0055ea60 f   mind:mindlocalcircuitdef.obj
 0002:000a5cb0       ?getExternalConnections@MindLocalCircuitDef@@QAEXAAV?$ClassList@VMindLocalCircuitConnectionDef@@@@_N@Z 0055ecb0 f   mind:mindlocalcircuitdef.obj
 0002:000a60f0       ?getClass@MindLocalCircuitDef@@UAEPBDXZ 0055f0f0 f i mind:mindlocalcircuitdef.obj
 0002:000a6130       ??0MindLocalCircuitConnectionDef@@QAE@PAVMindLocalCircuitDef@@@Z 0055f130 f   mind:mindlocalcircuitconnectiondef.obj
 0002:000a6230       ?createFromXml@MindLocalCircuitConnectionDef@@QAEXVXml@@@Z 0055f230 f   mind:mindlocalcircuitconnectiondef.obj
 0002:000a65d0       ?getId@MindLocalCircuitConnectionDef@@QAE?AVString@@XZ 0055f5d0 f   mind:mindlocalcircuitconnectiondef.obj
 0002:000a6690       ?getPrimaryLinkType@MindLocalCircuitConnectionDef@@QAEPAVMindConnectionLinkTypeDef@@XZ 0055f690 f   mind:mindlocalcircuitconnectiondef.obj
 0002:000a66f0       ?resolveReferences@MindLocalCircuitConnectionDef@@QAEXPAVMindMap@@@Z 0055f6f0 f   mind:mindlocalcircuitconnectiondef.obj
 0002:000a7570       ?getSrcRegionType@MindConnectionTypeDef@@QAE?AVString@@XZ 00560570 f i mind:mindlocalcircuitconnectiondef.obj
 0002:000a7630       ?getDstRegionType@MindConnectionTypeDef@@QAE?AVString@@XZ 00560630 f i mind:mindlocalcircuitconnectiondef.obj
 0002:000a76f0       ?getPrimaryLink@MindConnectionTypeDef@@QAEPAVMindConnectionLinkTypeDef@@XZ 005606f0 f i mind:mindlocalcircuitconnectiondef.obj
 0002:000a7750       ?getClass@MindLocalCircuitConnectionDef@@UAEPBDXZ 00560750 f i mind:mindlocalcircuitconnectiondef.obj
 0002:000a7790       ??_EMindLocalCircuitConnectionDef@@UAEPAXI@Z 00560790 f i mind:mindlocalcircuitconnectiondef.obj
 0002:000a7790       ??_GMindLocalCircuitConnectionDef@@UAEPAXI@Z 00560790 f i mind:mindlocalcircuitconnectiondef.obj
 0002:000a7800       ??1MindLocalCircuitConnectionDef@@UAE@XZ 00560800 f i mind:mindlocalcircuitconnectiondef.obj
 0002:000a78e0       ??0MindRegionDef@@QAE@PAVMindAreaDef@@PAVMindLocalCircuitDef@@@Z 005608e0 f   mind:mindregiondef.obj
 0002:000a7a00       ??_GMindRegionDef@@UAEPAXI@Z 00560a00 f i mind:mindregiondef.obj
 0002:000a7a00       ??_EMindRegionDef@@UAEPAXI@Z 00560a00 f i mind:mindregiondef.obj
 0002:000a7a70       ??1MindRegionDef@@UAE@XZ   00560a70 f   mind:mindregiondef.obj
 0002:000a7b50       ?createFromXml@MindRegionDef@@QAEXVXml@@@Z 00560b50 f   mind:mindregiondef.obj
 0002:000a82f0       ?resolveReferences@MindRegionDef@@QAEXPAVMindMap@@@Z 005612f0 f   mind:mindregiondef.obj
 0002:000a8440       ?getRoleName@MindRegionDef@@QAE?AVString@@XZ 00561440 f   mind:mindregiondef.obj
 0002:000a86e0       ?getClass@MindRegionDef@@UAEPBDXZ 005616e0 f i mind:mindregiondef.obj
 0002:000a8720       ?addSetItem@NeuroLinkSet@@QAEXPAVNeuroLink@@@Z 00561720 f   mind:neurolinkset.obj
 0002:000a8780       ??0MindRegionTypeDef@@QAE@XZ 00561780 f   mind:mindregiontypedef.obj
 0002:000a8880       ??_GMindRegionTypeDef@@UAEPAXI@Z 00561880 f i mind:mindregiontypedef.obj
 0002:000a8880       ??_EMindRegionTypeDef@@UAEPAXI@Z 00561880 f i mind:mindregiontypedef.obj
 0002:000a88f0       ??1MindRegionTypeDef@@UAE@XZ 005618f0 f   mind:mindregiontypedef.obj
 0002:000a89f0       ?createFromXml@MindRegionTypeDef@@QAEXVXml@@@Z 005619f0 f   mind:mindregiontypedef.obj
 0002:000a8c00       ?resolveReferences@MindRegionTypeDef@@QAEXPAVMindMap@@@Z 00561c00 f   mind:mindregiontypedef.obj
 0002:000a8d00       ?createConnectorSetFromXml@MindRegionTypeDef@@AAEXVXml@@@Z 00561d00 f   mind:mindregiontypedef.obj
 0002:000a9200       ?getConnector@MindRegionTypeDef@@QAEPAVMindRegionConnectorDef@@VString@@@Z 00562200 f   mind:mindregiontypedef.obj
 0002:000a94e0       ??0?$ClassList@VMindRegionConnectorDef@@@@QAE@XZ 005624e0 f i mind:mindregiontypedef.obj
 0002:000a9540       ??1?$ClassList@VMindRegionConnectorDef@@@@QAE@XZ 00562540 f i mind:mindregiontypedef.obj
 0002:000a95a0       ?add@?$ClassList@VMindRegionConnectorDef@@@@QAEHPAVMindRegionConnectorDef@@@Z 005625a0 f i mind:mindregiontypedef.obj
 0002:000a9640       ?destroy@?$ClassList@VMindRegionConnectorDef@@@@QAEXXZ 00562640 f i mind:mindregiontypedef.obj
 0002:000a9730       ??0?$MapStringToClass@VMindRegionConnectorDef@@@@QAE@XZ 00562730 f i mind:mindregiontypedef.obj
 0002:000a9790       ??1?$MapStringToClass@VMindRegionConnectorDef@@@@QAE@XZ 00562790 f i mind:mindregiontypedef.obj
 0002:000a97f0       ?add@?$MapStringToClass@VMindRegionConnectorDef@@@@QAEHPBDPAVMindRegionConnectorDef@@@Z 005627f0 f i mind:mindregiontypedef.obj
 0002:000a9a00       ?get@?$MapStringToClass@VMindRegionConnectorDef@@@@QAEPAVMindRegionConnectorDef@@PBD@Z 00562a00 f i mind:mindregiontypedef.obj
 0002:000a9ab0       ??A?$ClassList@VMindRegionConnectorDef@@@@QAEAAPAVMindRegionConnectorDef@@H@Z 00562ab0 f i mind:mindregiontypedef.obj
 0002:000a9b10       ?clear@?$ClassList@VMindRegionConnectorDef@@@@QAEXXZ 00562b10 f i mind:mindregiontypedef.obj
 0002:000a9b70       ?getClass@MindRegionTypeDef@@UAEPBDXZ 00562b70 f i mind:mindregiontypedef.obj
 0002:000a9bb0       ?exitRegionLinkSet@MindRegionLinkSet@@QAEXXZ 00562bb0 f   mind:mindregionlinkset.obj
 0002:000a9c40       ?destroyRegionLinkSet@MindRegionLinkSet@@QAEXXZ 00562c40 f   mind:mindregionlinkset.obj
 0002:000a9cd0       ?addSetItem@MindRegionLinkSet@@QAEXPAVMindRegionLink@@@Z 00562cd0 f   mind:mindregionlinkset.obj
 0002:000a9d30       ?getCount@MindRegionLinkSet@@QAEHXZ 00562d30 f   mind:mindregionlinkset.obj
 0002:000a9d90       ?getSetItem@MindRegionLinkSet@@QAEPAVMindRegionLink@@H@Z 00562d90 f   mind:mindregionlinkset.obj
 0002:000a9df0       ?checkLinked@MindRegionLinkSet@@QAE_NPAVMindRegion@@0@Z 00562df0 f   mind:mindregionlinkset.obj
 0002:000a9eb0       ?add@?$ClassList@VMindRegionLink@@@@QAEHPAVMindRegionLink@@@Z 00562eb0 f i mind:mindregionlinkset.obj
 0002:000a9f50       ??0MindMessage@@QAE@PAVNeuroLink@@@Z 00562f50 f   mind:mindmessage.obj
 0002:000aa050       ??_GMindMessage@@UAEPAXI@Z 00563050 f i mind:mindmessage.obj
 0002:000aa050       ??_EMindMessage@@UAEPAXI@Z 00563050 f i mind:mindmessage.obj
 0002:000aa0c0       ??0MindMessage@@QAE@PAVNeuroLink@@PAVNeuroSignal@@@Z 005630c0 f   mind:mindmessage.obj
 0002:000aa1c0       ??1MindMessage@@UAE@XZ     005631c0 f   mind:mindmessage.obj
 0002:000aa2c0       ?getMsgData@MindMessage@@QAEPAVNeuroSignal@@XZ 005632c0 f   mind:mindmessage.obj
 0002:000aa5f0       ?send@MindMessage@@QAEXXZ  005635f0 f   mind:mindmessage.obj
 0002:000aa650       ?postExecute@Message@@UAEXXZ 00563650 f i mind:mindmessage.obj
 0002:000aa690       ?getRegionLink@NeuroLink@@QAEPAVMindRegionLink@@XZ 00563690 f i mind:mindmessage.obj
 0002:000aa6d0       ?getAreaLink@MindRegionLink@@QAEPAVMindAreaLink@@XZ 005636d0 f i mind:mindmessage.obj
 0002:000aa710       ?getClass@MindMessage@@UAEPBDXZ 00563710 f i mind:mindmessage.obj
 0002:000aa750       ??0EffectorArea@@QAE@PAVMindTarget@@@Z 00563750 f   mind:effectorarea.obj
 0002:000aa830       ??_EEffectorArea@@UAEPAXI@Z 00563830 f i mind:effectorarea.obj
 0002:000aa830       ??_GEffectorArea@@UAEPAXI@Z 00563830 f i mind:effectorarea.obj
 0002:000aa8a0       ??1EffectorArea@@UAE@XZ    005638a0 f   mind:effectorarea.obj
 0002:000aa940       ?createEffectorArea@EffectorArea@@QAEXXZ 00563940 f   mind:effectorarea.obj
 0002:000aaab0       ?startEffectorArea@EffectorArea@@QAEXXZ 00563ab0 f   mind:effectorarea.obj
 0002:000aab10       ?stopEffectorArea@EffectorArea@@QAEXXZ 00563b10 f   mind:effectorarea.obj
 0002:000aab70       ?initEffectorArea@EffectorArea@@QAEXXZ 00563b70 f   mind:effectorarea.obj
 0002:000aac20       ?addEffector@EffectorArea@@QAEXPAVMindEffector@@_N@Z 00563c20 f   mind:effectorarea.obj
 0002:000aaf00       ?getEffector@EffectorArea@@QAEPAVMindEffector@@VString@@@Z 00563f00 f   mind:effectorarea.obj
 0002:000ab000       ?createEffector@EffectorArea@@AAEXPAVMindEffector@@@Z 00564000 f   mind:effectorarea.obj
 0002:000ab380       ?createEffectorLinks@EffectorArea@@AAEXPAVMindEffector@@@Z 00564380 f   mind:effectorarea.obj
 0002:000ab410       ?getCircuitDef@TargetRegionDef@@QAEPAVTargetCircuitDef@@XZ 00564410 f i mind:effectorarea.obj
 0002:000ab450       ?getEffectorId@MindEffector@@QAE?AVString@@XZ 00564450 f i mind:effectorarea.obj
 0002:000ab510       ?setEffectorInfo@MindEffector@@QAEXPAVTargetRegionDef@@@Z 00564510 f i mind:effectorarea.obj
 0002:000ab560       ?getClass@EffectorArea@@UAEPBDXZ 00564560 f i mind:effectorarea.obj
 0002:000ab5a0       ??0SensorArea@@QAE@PAVMindTarget@@@Z 005645a0 f   mind:sensorarea.obj
 0002:000ab680       ??_GSensorArea@@UAEPAXI@Z  00564680 f i mind:sensorarea.obj
 0002:000ab680       ??_ESensorArea@@UAEPAXI@Z  00564680 f i mind:sensorarea.obj
 0002:000ab6f0       ??1SensorArea@@UAE@XZ      005646f0 f   mind:sensorarea.obj
 0002:000ab790       ?createSensorArea@SensorArea@@QAEXXZ 00564790 f   mind:sensorarea.obj
 0002:000ab900       ?startSensorArea@SensorArea@@QAEXXZ 00564900 f   mind:sensorarea.obj
 0002:000ab960       ?stopSensorArea@SensorArea@@QAEXXZ 00564960 f   mind:sensorarea.obj
 0002:000ab9c0       ?initSensorArea@SensorArea@@QAEXXZ 005649c0 f   mind:sensorarea.obj
 0002:000aba70       ?addSensor@SensorArea@@QAEXPAVMindSensor@@_N@Z 00564a70 f   mind:sensorarea.obj
 0002:000abd50       ?getSensor@SensorArea@@QAEPAVMindSensor@@VString@@@Z 00564d50 f   mind:sensorarea.obj
 0002:000abe50       ?createSensor@SensorArea@@AAEXPAVMindSensor@@@Z 00564e50 f   mind:sensorarea.obj
 0002:000ac1d0       ?createSensorLinks@SensorArea@@AAEXPAVMindSensor@@@Z 005651d0 f   mind:sensorarea.obj
 0002:000ac260       ?setSensorInfo@MindSensor@@QAEXPAVTargetRegionDef@@@Z 00565260 f i mind:sensorarea.obj
 0002:000ac2b0       ?getSensorId@MindSensor@@QAE?AVString@@XZ 005652b0 f i mind:sensorarea.obj
 0002:000ac370       ?getClass@SensorArea@@UAEPBDXZ 00565370 f i mind:sensorarea.obj
 0002:000ac3b0       ??0MindSensorSetTracker@@QAE@PAVMindSensorSet@@@Z 005653b0 f   mind:mindsensorsettracker.obj
 0002:000ac480       ?getClass@MindSensorSetTracker@@UAEPBDXZ 00565480 f i mind:mindsensorsettracker.obj
 0002:000ac4c0       ?startTracker@MindSensorSetTracker@@QAEXXZ 005654c0 f   mind:mindsensorsettracker.obj
 0002:000ac5c0       ?stopTracker@MindSensorSetTracker@@QAEXXZ 005655c0 f   mind:mindsensorsettracker.obj
 0002:000ac650       ?threadSensesTrackerMain@MindSensorSetTracker@@AAEXPAX@Z 00565650 f   mind:mindsensorsettracker.obj
 0002:000ac710       ?pollIteration@MindSensorSetTracker@@AAEXAAH@Z 00565710 f   mind:mindsensorsettracker.obj
 0002:000ac830       ?getService@ThreadService@@SAPAV1@XZ 00565830 f i mind:mindsensorsettracker.obj
 0002:000ac890       ??0MindSpace@@QAE@XZ       00565890 f   mind:mindspace.obj
 0002:000ac940       ?createFromXml@MindSpace@@QAEXVXml@@@Z 00565940 f   mind:mindspace.obj
 0002:000ac980       ??0MindActiveMemory@@QAE@XZ 00565980 f   mind:mindactivememory.obj
 0002:000aca60       ??1MindActiveMemory@@QAE@XZ 00565a60 f   mind:mindactivememory.obj
 0002:000acb40       ?create@MindActiveMemory@@QAEXVXml@@@Z 00565b40 f   mind:mindactivememory.obj
 0002:000acec0       ?start@MindActiveMemory@@QAEXXZ 00565ec0 f   mind:mindactivememory.obj
 0002:000acf90       ?stop@MindActiveMemory@@QAEXXZ 00565f90 f   mind:mindactivememory.obj
 0002:000ad060       ?execute@MindActiveMemory@@QAEXPAVMindMessage@@@Z 00566060 f   mind:mindactivememory.obj
 0002:000ad790       ??0?$ClassList@VMindActiveMemoryObject@@@@QAE@XZ 00566790 f i mind:mindactivememory.obj
 0002:000ad7f0       ??1?$ClassList@VMindActiveMemoryObject@@@@QAE@XZ 005667f0 f i mind:mindactivememory.obj
 0002:000ad850       ?add@?$ClassList@VMindActiveMemoryObject@@@@QAEHPAVMindActiveMemoryObject@@@Z 00566850 f i mind:mindactivememory.obj
 0002:000ad8f0       ?destroy@?$ClassList@VMindActiveMemoryObject@@@@QAEXXZ 005668f0 f i mind:mindactivememory.obj
 0002:000ad9e0       ?count@?$ClassList@VMindActiveMemoryObject@@@@QBEHXZ 005669e0 f i mind:mindactivememory.obj
 0002:000ada40       ??A?$ClassList@VMindActiveMemoryObject@@@@QAEAAPAVMindActiveMemoryObject@@H@Z 00566a40 f i mind:mindactivememory.obj
 0002:000adaa0       ?clear@?$ClassList@VMindActiveMemoryObject@@@@QAEXXZ 00566aa0 f i mind:mindactivememory.obj
 0002:000adb00       ?getSourceMessageId@Message@@QAEABVString@@XZ 00566b00 f i mind:mindactivememory.obj
 0002:000adb40       ?getChannelMessageId@Message@@QAEABVString@@XZ 00566b40 f i mind:mindactivememory.obj
 0002:000adb80       ?getClass@MindActiveMemory@@UAEPBDXZ 00566b80 f i mind:mindactivememory.obj
 0002:000adbc0       ?getNeuroLink@MindMessage@@QAEPAVNeuroLink@@XZ 00566bc0 f i mind:mindactivememory.obj
 0002:000adc00       ?addMindArea@MindAreaSet@@QAEXPAVMindArea@@@Z 00566c00 f   mind:mindareaset.obj
 0002:000add10       ?getMindArea@MindAreaSet@@QAEPAVMindArea@@VString@@@Z 00566d10 f   mind:mindareaset.obj
 0002:000addd0       ?wakeupAreaSet@MindAreaSet@@QAEXPAVMindActiveMemory@@@Z 00566dd0 f   mind:mindareaset.obj
 0002:000ade70       ?suspendAreaSet@MindAreaSet@@QAEXXZ 00566e70 f   mind:mindareaset.obj
 0002:000adf00       ?exitAreaSet@MindAreaSet@@QAEXXZ 00566f00 f   mind:mindareaset.obj
 0002:000adf90       ?destroyAreaSet@MindAreaSet@@QAEXXZ 00566f90 f   mind:mindareaset.obj
 0002:000ae040       ?count@?$ClassList@VMindArea@@@@QBEHXZ 00567040 f i mind:mindareaset.obj
 0002:000ae0a0       ?get@?$ClassList@VMindArea@@@@QBEPAVMindArea@@H@Z 005670a0 f i mind:mindareaset.obj
 0002:000ae100       ?add@?$ClassList@VMindArea@@@@QAEHPAVMindArea@@@Z 00567100 f i mind:mindareaset.obj
 0002:000ae1a0       ?destroy@?$ClassList@VMindArea@@@@QAEXXZ 005671a0 f i mind:mindareaset.obj
 0002:000ae290       ?clear@?$MapStringToClass@VMindArea@@@@QAEXXZ 00567290 f i mind:mindareaset.obj
 0002:000ae2f0       ??A?$ClassList@VMindArea@@@@QAEAAPAVMindArea@@H@Z 005672f0 f i mind:mindareaset.obj
 0002:000ae350       ?clear@?$ClassList@VMindArea@@@@QAEXXZ 00567350 f i mind:mindareaset.obj
 0002:000ae3b0       ?getSetItemById@MindRegionSet@@QAEPAVMindRegion@@VString@@@Z 005673b0 f   mind:mindregionset.obj
 0002:000ae470       ?addSetItem@MindRegionSet@@QAEXPAVMindRegion@@@Z 00567470 f   mind:mindregionset.obj
 0002:000ae570       ?addRegionSet@MindRegionSet@@QAEXPAV1@@Z 00567570 f   mind:mindregionset.obj
 0002:000ae730       ?exitRegionSet@MindRegionSet@@QAEXXZ 00567730 f   mind:mindregionset.obj
 0002:000ae7c0       ?destroyRegionSet@MindRegionSet@@QAEXXZ 005677c0 f   mind:mindregionset.obj
 0002:000ae850       ?getCount@MindRegionSet@@QAEHXZ 00567850 f   mind:mindregionset.obj
 0002:000ae8b0       ?getSetItem@MindRegionSet@@QAEPAVMindRegion@@H@Z 005678b0 f   mind:mindregionset.obj
 0002:000ae910       ?count@?$ClassList@VMindRegion@@@@QBEHXZ 00567910 f i mind:mindregionset.obj
 0002:000ae970       ?get@?$ClassList@VMindRegion@@@@QBEPAVMindRegion@@H@Z 00567970 f i mind:mindregionset.obj
 0002:000ae9d0       ?add@?$ClassList@VMindRegion@@@@QAEHPAVMindRegion@@@Z 005679d0 f i mind:mindregionset.obj
 0002:000aea70       ??0MockRegion@@QAE@VString@@PAVMindArea@@@Z 00567a70 f   mind:mockregion.obj
 0002:000aebb0       ?getClass@MockRegion@@UAEPBDXZ 00567bb0 f i mind:mockregion.obj
 0002:000aebf0       ??_EMockRegion@@UAEPAXI@Z  00567bf0 f i mind:mockregion.obj
 0002:000aebf0       ??_GMockRegion@@UAEPAXI@Z  00567bf0 f i mind:mockregion.obj
 0002:000aec60       ??1MockRegion@@UAE@XZ      00567c60 f i mind:mockregion.obj
 0002:000aed30       ?getRegionType@MockRegion@@UAE?AVString@@XZ 00567d30 f   mind:mockregion.obj
 0002:000aedf0       ?createRegion@MockRegion@@UAEXPAVMindRegionCreateInfo@@@Z 00567df0 f   mind:mockregion.obj
 0002:000af210       ?getSourceSizes@MockRegion@@UAEXVString@@PAH1@Z 00568210 f   mind:mockregion.obj
 0002:000af2c0       ?exitRegion@MockRegion@@UAEXXZ 005682c0 f   mind:mockregion.obj
 0002:000af300       ?destroyRegion@MockRegion@@UAEXXZ 00568300 f   mind:mockregion.obj
 0002:000af340       ?handleApplyNeuroLinkMessage@MockRegion@@AAEPAVNeuroSignalSet@@PAVNeuroLink@@PAVNeuroLinkTarget@@PAVNeuroSignal@@@Z 00568340 f   mind:mockregion.obj
 0002:000affe0       ?handleGetNeuroLinkMessage@MockRegion@@AAEPAVNeuroSignal@@PAVNeuroLink@@PAVNeuroLinkSource@@@Z 00568fe0 f   mind:mockregion.obj
 0002:000b00d0       ??0?$ClassList@VNeuroLinkSource@@@@QAE@XZ 005690d0 f i mind:mockregion.obj
 0002:000b0130       ??1?$ClassList@VNeuroLinkSource@@@@QAE@XZ 00569130 f i mind:mockregion.obj
 0002:000b0190       ?add@?$ClassList@VNeuroLinkSource@@@@QAEHPAVNeuroLinkSource@@@Z 00569190 f i mind:mockregion.obj
 0002:000b0230       ??0?$ClassList@VNeuroLinkTarget@@@@QAE@XZ 00569230 f i mind:mockregion.obj
 0002:000b0290       ??1?$ClassList@VNeuroLinkTarget@@@@QAE@XZ 00569290 f i mind:mockregion.obj
 0002:000b02f0       ?add@?$ClassList@VNeuroLinkTarget@@@@QAEHPAVNeuroLinkTarget@@@Z 005692f0 f i mind:mockregion.obj
 0002:000b0390       ?getOriginalTypeDef@MindRegionTypeDef@@QAEPAV1@XZ 00569390 f i mind:mockregion.obj
 0002:000b03d0       ?getType@MindRegionConnectorDef@@QAE?AVString@@XZ 005693d0 f i mind:mockregion.obj
 0002:000b0490       ?getEntity@NeuroLinkTarget@@QAE?AVString@@XZ 00569490 f i mind:mockregion.obj
 0002:000b0550       ??0NucleiRegion@@QAE@PAVMindArea@@@Z 00569550 f   mind:nucleiregion.obj
 0002:000b0680       ?getClass@NucleiRegion@@UAEPBDXZ 00569680 f i mind:nucleiregion.obj
 0002:000b06c0       ??_GNucleiRegion@@UAEPAXI@Z 005696c0 f i mind:nucleiregion.obj
 0002:000b06c0       ??_ENucleiRegion@@UAEPAXI@Z 005696c0 f i mind:nucleiregion.obj
 0002:000b0730       ??1NeuroLinkSource@@QAE@XZ 00569730 f i mind:nucleiregion.obj
 0002:000b07f0       ??1NeuroLinkTarget@@QAE@XZ 005697f0 f i mind:nucleiregion.obj
 0002:000b08b0       ??1NucleiRegion@@UAE@XZ    005698b0 f i mind:nucleiregion.obj
 0002:000b09b0       ?getRegionType@NucleiRegion@@UAE?AVString@@XZ 005699b0 f   mind:nucleiregion.obj
 0002:000b0a70       ?createRegion@NucleiRegion@@UAEXPAVMindRegionCreateInfo@@@Z 00569a70 f   mind:nucleiregion.obj
 0002:000b0ff0       ?getSourceSizes@NucleiRegion@@UAEXVString@@PAH1@Z 00569ff0 f   mind:nucleiregion.obj
 0002:000b10b0       ?exitRegion@NucleiRegion@@UAEXXZ 0056a0b0 f   mind:nucleiregion.obj
 0002:000b10f0       ?destroyRegion@NucleiRegion@@UAEXXZ 0056a0f0 f   mind:nucleiregion.obj
 0002:000b11b0       ?handleSubTargetMessage@NucleiRegion@@AAEXPAVNeuroLink@@PAVNeuroLinkTarget@@PAVNeuroSignal@@@Z 0056a1b0 f   mind:nucleiregion.obj
 0002:000b16e0       ?handleInterNeuronsTargetMessage@NucleiRegion@@AAEXPAVNeuroLink@@PAVNeuroLinkTarget@@PAVNeuroSignal@@@Z 0056a6e0 f   mind:nucleiregion.obj
 0002:000b1d80       ??0AllocortexRegion@@QAE@PAVMindArea@@@Z 0056ad80 f   mind:allocortexregion.obj
 0002:000b1e40       ?getClass@AllocortexRegion@@UAEPBDXZ 0056ae40 f i mind:allocortexregion.obj
 0002:000b1e80       ??_EAllocortexRegion@@UAEPAXI@Z 0056ae80 f i mind:allocortexregion.obj
 0002:000b1e80       ??_GAllocortexRegion@@UAEPAXI@Z 0056ae80 f i mind:allocortexregion.obj
 0002:000b1ef0       ??1AllocortexRegion@@UAE@XZ 0056aef0 f i mind:allocortexregion.obj
 0002:000b1f90       ?getRegionType@AllocortexRegion@@UAE?AVString@@XZ 0056af90 f   mind:allocortexregion.obj
 0002:000b2050       ?createRegion@AllocortexRegion@@UAEXPAVMindRegionCreateInfo@@@Z 0056b050 f   mind:allocortexregion.obj
 0002:000b2140       ?getSourceSizes@AllocortexRegion@@UAEXVString@@PAH1@Z 0056b140 f   mind:allocortexregion.obj
 0002:000b21f0       ?exitRegion@AllocortexRegion@@UAEXXZ 0056b1f0 f   mind:allocortexregion.obj
 0002:000b2230       ?destroyRegion@AllocortexRegion@@UAEXXZ 0056b230 f   mind:allocortexregion.obj
 0002:000b2270       ?handleFeedForwardNeuroLinkMessage@AllocortexRegion@@AAEXPAVNeuroLink@@PAVNeuroLinkTarget@@PAVNeuroSignal@@@Z 0056b270 f   mind:allocortexregion.obj
 0002:000b22b0       ??0NeocortexRegion@@QAE@PAVMindArea@@@Z 0056b2b0 f   mind:neocortexregion.obj
 0002:000b2520       ?getClass@NeocortexRegion@@UAEPBDXZ 0056b520 f i mind:neocortexregion.obj
 0002:000b2560       ??_ENeocortexRegion@@UAEPAXI@Z 0056b560 f i mind:neocortexregion.obj
 0002:000b2560       ??_GNeocortexRegion@@UAEPAXI@Z 0056b560 f i mind:neocortexregion.obj
 0002:000b25d0       ??1NeocortexRegion@@UAE@XZ 0056b5d0 f i mind:neocortexregion.obj
 0002:000b26f0       ?getRegionType@NeocortexRegion@@UAE?AVString@@XZ 0056b6f0 f   mind:neocortexregion.obj
 0002:000b27b0       ?createRegion@NeocortexRegion@@UAEXPAVMindRegionCreateInfo@@@Z 0056b7b0 f   mind:neocortexregion.obj
 0002:000b2d40       ?getSpatialPoolerSize@MindRegionCreateInfo@@QAEHXZ 0056bd40 f i mind:neocortexregion.obj
 0002:000b2d80       ?getTemporalPoolerSize@MindRegionCreateInfo@@QAEHXZ 0056bd80 f i mind:neocortexregion.obj
 0002:000b2dc0       ?isUsingSpatialPooler@MindRegionCreateInfo@@QAE_NXZ 0056bdc0 f i mind:neocortexregion.obj
 0002:000b2e00       ?isUsingTemporalPooler@MindRegionCreateInfo@@QAE_NXZ 0056be00 f i mind:neocortexregion.obj
 0002:000b2e40       ?getTemporalDepth@MindRegionCreateInfo@@QAEHXZ 0056be40 f i mind:neocortexregion.obj
 0002:000b2e80       ?getSourceSizes@NeocortexRegion@@UAEXVString@@PAH1@Z 0056be80 f   mind:neocortexregion.obj
 0002:000b2f40       ?exitRegion@NeocortexRegion@@UAEXXZ 0056bf40 f   mind:neocortexregion.obj
 0002:000b2f80       ?destroyRegion@NeocortexRegion@@UAEXXZ 0056bf80 f   mind:neocortexregion.obj
 0002:000b30c0       ?handleFeedForwardNeuroLinkMessage@NeocortexRegion@@AAEPAVNeuroSignalSet@@PAVNeuroLink@@PAVNeuroLinkTarget@@PAVNeuroSignal@@@Z 0056c0c0 f   mind:neocortexregion.obj
 0002:000b4070       ?handleFeedBackNeuroLinkMessage@NeocortexRegion@@AAEPAVNeuroSignalSet@@PAVNeuroLink@@PAVNeuroLinkTarget@@PAVNeuroSignal@@@Z 0056d070 f   mind:neocortexregion.obj
 0002:000b40b0       ?getService@StatService@@SAPAV1@XZ 0056d0b0 f i mind:neocortexregion.obj
 0002:000b4110       ??0NeuroLinkInfo@@QAE@XZ   0056d110 f   mind:neurolinkinfo.obj
 0002:000b41e0       ?setNeuroTransmitter@NeuroLinkInfo@@QAEXVString@@@Z 0056d1e0 f   mind:neurolinkinfo.obj
 0002:000b4290       ?setLinkDef@NeuroLinkInfo@@QAEXPAVMindConnectionLinkTypeDef@@@Z 0056d290 f   mind:neurolinkinfo.obj
 0002:000b42e0       ?setRegionLink@NeuroLinkInfo@@QAEXPAVMindRegionLink@@@Z 0056d2e0 f   mind:neurolinkinfo.obj
 0002:000b4330       ?getClass@NeuroLinkInfo@@UAEPBDXZ 0056d330 f i mind:neurolinkinfo.obj
 0002:000b4370       ??0MindAreaLink@@QAE@XZ    0056d370 f   mind:mindarealink.obj
 0002:000b44f0       ??1MindAreaLink@@QAE@XZ    0056d4f0 f   mind:mindarealink.obj
 0002:000b45f0       ?create@MindAreaLink@@QAEXPAVMindArea@@0@Z 0056d5f0 f   mind:mindarealink.obj
 0002:000b47e0       ?open@MindAreaLink@@QAEXPAVMessageSession@@VString@@@Z 0056d7e0 f   mind:mindarealink.obj
 0002:000b4bd0       ?sendMessage@MindAreaLink@@QAEXPAVMindMessage@@@Z 0056dbd0 f   mind:mindarealink.obj
 0002:000b4c50       ?onMessage@MindAreaLink@@UAEXPAVMessage@@@Z 0056dc50 f   mind:mindarealink.obj
 0002:000b4f40       ?addRegionLink@MindAreaLink@@QAEXPAVMindRegionLink@@@Z 0056df40 f   mind:mindarealink.obj
 0002:000b4fa0       ?getRegionLinks@MindAreaLink@@QAEAAV?$ClassList@VMindRegionLink@@@@XZ 0056dfa0 f   mind:mindarealink.obj
 0002:000b5000       ?getActiveMemory@MindService@@QAEPAVMindActiveMemory@@XZ 0056e000 f i mind:mindarealink.obj
 0002:000b5040       ?getClass@MindAreaLink@@UAEPBDXZ 0056e040 f i mind:mindarealink.obj
 0002:000b5080       ?getAreaLink@MindMessage@@QAEPAVMindAreaLink@@XZ 0056e080 f i mind:mindarealink.obj
 0002:000b50c0       ?addSetItem@MindAreaLinkSet@@QAEXPAVMindAreaLink@@@Z 0056e0c0 f   mind:mindarealinkset.obj
 0002:000b5120       ?add@?$ClassList@VMindAreaLink@@@@QAEHPAVMindAreaLink@@@Z 0056e120 f i mind:mindarealinkset.obj
 0002:000b51c0       ??0MockLink@@QAE@VString@@PAVNeuroLinkSource@@PAVNeuroLinkTarget@@@Z 0056e1c0 f   mind:mocklink.obj
 0002:000b52c0       ?getClass@MockLink@@UAEPBDXZ 0056e2c0 f i mind:mocklink.obj
 0002:000b5300       ?createNeuroLink@MockLink@@UAEXPAVNeuroLinkInfo@@@Z 0056e300 f   mind:mocklink.obj
 0002:000b5360       ?apply@MockLink@@UAEPAVNeuroSignal@@PAV2@PAVNeuroPool@@@Z 0056e360 f   mind:mocklink.obj
 0002:000b5650       ??0ModulatoryLink@@QAE@PAVNeuroLinkSource@@PAVNeuroLinkTarget@@@Z 0056e650 f   mind:modulatorylink.obj
 0002:000b5710       ?getClass@ModulatoryLink@@UAEPBDXZ 0056e710 f i mind:modulatorylink.obj
 0002:000b5750       ?createNeuroLink@ModulatoryLink@@UAEXPAVNeuroLinkInfo@@@Z 0056e750 f   mind:modulatorylink.obj
 0002:000b5790       ?apply@ModulatoryLink@@UAEPAVNeuroSignal@@PAV2@PAVNeuroPool@@@Z 0056e790 f   mind:modulatorylink.obj
 0002:000b57f0       ??0InhibitoryLink@@QAE@PAVNeuroLinkSource@@PAVNeuroLinkTarget@@@Z 0056e7f0 f   mind:inhibitorylink.obj
 0002:000b58c0       ?getClass@InhibitoryLink@@UAEPBDXZ 0056e8c0 f i mind:inhibitorylink.obj
 0002:000b5900       ?createNeuroLink@InhibitoryLink@@UAEXPAVNeuroLinkInfo@@@Z 0056e900 f   mind:inhibitorylink.obj
 0002:000b5940       ?apply@InhibitoryLink@@UAEPAVNeuroSignal@@PAV2@PAVNeuroPool@@@Z 0056e940 f   mind:inhibitorylink.obj
 0002:000b6370       ??0ExcitatoryLink@@QAE@PAVNeuroLinkSource@@PAVNeuroLinkTarget@@@Z 0056f370 f   mind:excitatorylink.obj
 0002:000b6440       ?getClass@ExcitatoryLink@@UAEPBDXZ 0056f440 f i mind:excitatorylink.obj
 0002:000b6480       ?createNeuroLink@ExcitatoryLink@@UAEXPAVNeuroLinkInfo@@@Z 0056f480 f   mind:excitatorylink.obj
 0002:000b64e0       ?apply@ExcitatoryLink@@UAEPAVNeuroSignal@@PAV2@PAVNeuroPool@@@Z 0056f4e0 f   mind:excitatorylink.obj
 0002:000b6dd0       ?recalculateActionPotential@ExcitatoryLink@@AAEXPAVNeuroSignal@@PAVNeuroPool@@@Z 0056fdd0 f   mind:excitatorylink.obj
 0002:000b7540       ?activateMembranePotential@ExcitatoryLink@@AAEXPAVNeuroSignal@@PAVNeuroPool@@@Z 00570540 f   mind:excitatorylink.obj
 0002:000b80e0       ??0MindRegionCreateInfo@@QAE@XZ 005710e0 f   mind:mindregioncreateinfo.obj
 0002:000b81d0       ?getClass@MindRegionCreateInfo@@UAEPBDXZ 005711d0 f i mind:mindregioncreateinfo.obj
 0002:000b8210       ??_EMindRegionCreateInfo@@UAEPAXI@Z 00571210 f i mind:mindregioncreateinfo.obj
 0002:000b8210       ??_GMindRegionCreateInfo@@UAEPAXI@Z 00571210 f i mind:mindregioncreateinfo.obj
 0002:000b8280       ??1MindRegionCreateInfo@@UAE@XZ 00571280 f   mind:mindregioncreateinfo.obj
 0002:000b8340       ?setId@MindRegionCreateInfo@@QAEXVString@@@Z 00571340 f   mind:mindregioncreateinfo.obj
 0002:000b8410       ?setInfo@MindRegionCreateInfo@@QAEXPAVMindRegionDef@@@Z 00571410 f   mind:mindregioncreateinfo.obj
 0002:000b8460       ?setType@MindRegionCreateInfo@@QAEXPAVMindRegionTypeDef@@@Z 00571460 f   mind:mindregioncreateinfo.obj
 0002:000b84b0       ?setUsingSpatialPooler@MindRegionCreateInfo@@QAEX_N@Z 005714b0 f   mind:mindregioncreateinfo.obj
 0002:000b8500       ?setUsingTemporalPooler@MindRegionCreateInfo@@QAEX_N@Z 00571500 f   mind:mindregioncreateinfo.obj
 0002:000b8550       ?setTemporalDepth@MindRegionCreateInfo@@QAEXH@Z 00571550 f   mind:mindregioncreateinfo.obj
 0002:000b85a0       ?setSizeInfo@MindRegionCreateInfo@@QAEXHH@Z 005715a0 f   mind:mindregioncreateinfo.obj
 0002:000b85f0       ?getSizeInfo@MindRegionCreateInfo@@QAEXPAH0@Z 005715f0 f   mind:mindregioncreateinfo.obj
 0002:000b8650       ?setSpatialPoolerSize@MindRegionCreateInfo@@QAEXH@Z 00571650 f   mind:mindregioncreateinfo.obj
 0002:000b86a0       ?setTemporalPoolerSize@MindRegionCreateInfo@@QAEXH@Z 005716a0 f   mind:mindregioncreateinfo.obj
 0002:000b86f0       ??0NeuroPool@@QAE@XZ       005716f0 f   mind:neuropool.obj
 0002:000b87d0       ??_GNeuroPool@@UAEPAXI@Z   005717d0 f i mind:neuropool.obj
 0002:000b87d0       ??_ENeuroPool@@UAEPAXI@Z   005717d0 f i mind:neuropool.obj
 0002:000b8840       ??1NeuroPool@@UAE@XZ       00571840 f   mind:neuropool.obj
 0002:000b8910       ?createNeurons@NeuroPool@@QAEXHH@Z 00571910 f   mind:neuropool.obj
 0002:000b8a30       ?setDefaultThreshold@NeuroPool@@QAEXXZ 00571a30 f   mind:neuropool.obj
 0002:000b8af0       ?setParent@NeuroPool@@QAEXPAVMindRegion@@@Z 00571af0 f   mind:neuropool.obj
 0002:000b8b40       ?getRegion@NeuroPool@@QAEPAVMindRegion@@XZ 00571b40 f   mind:neuropool.obj
 0002:000b8b80       ?setId@NeuroPool@@QAEXVString@@@Z 00571b80 f   mind:neuropool.obj
 0002:000b8c30       ?getId@NeuroPool@@QAE?AVString@@XZ 00571c30 f   mind:neuropool.obj
 0002:000b8cf0       ?getNeuronDimensions@NeuroPool@@QAEXPAH0@Z 00571cf0 f   mind:neuropool.obj
 0002:000b8d60       ?getNeuronData@NeuroPool@@QAEAAV?$TwoIndexArray@UNEURON_DATA@@@@XZ 00571d60 f   mind:neuropool.obj
 0002:000b8da0       ?getNeuronDataSize@NeuroPool@@QAEHXZ 00571da0 f   mind:neuropool.obj
 0002:000b8e00       ?fire@NeuroPool@@QAEPAVNeuroSignal@@PAV2@@Z 00571e00 f   mind:neuropool.obj
 0002:000b9980       ??0?$TwoIndexArray@UNEURON_DATA@@@@QAE@XZ 00572980 f i mind:neuropool.obj
 0002:000b99e0       ?create@?$TwoIndexArray@UNEURON_DATA@@@@QAEXHH@Z 005729e0 f i mind:neuropool.obj
 0002:000b9a90       ??1?$TwoIndexArray@UNEURON_DATA@@@@QAE@XZ 00572a90 f i mind:neuropool.obj
 0002:000b9b00       ?getN1@?$TwoIndexArray@UNEURON_DATA@@@@QAEHXZ 00572b00 f i mind:neuropool.obj
 0002:000b9b40       ?getN2@?$TwoIndexArray@UNEURON_DATA@@@@QAEHXZ 00572b40 f i mind:neuropool.obj
 0002:000b9b80       ?count@?$TwoIndexArray@UNEURON_DATA@@@@QAEHXZ 00572b80 f i mind:neuropool.obj
 0002:000b9bd0       ?getClass@NeuroPool@@UAEPBDXZ 00572bd0 f i mind:neuropool.obj
 0002:000b9c10       ??0MindGlobalCircuitDef@@QAE@XZ 00572c10 f   mind:mindglobalcircuitdef.obj
 0002:000b9d20       ??_GMindGlobalCircuitDef@@UAEPAXI@Z 00572d20 f i mind:mindglobalcircuitdef.obj
 0002:000b9d20       ??_EMindGlobalCircuitDef@@UAEPAXI@Z 00572d20 f i mind:mindglobalcircuitdef.obj
 0002:000b9d90       ??1MindGlobalCircuitDef@@UAE@XZ 00572d90 f   mind:mindglobalcircuitdef.obj
 0002:000b9e90       ?createFromXml@MindGlobalCircuitDef@@QAEXVXml@@@Z 00572e90 f   mind:mindglobalcircuitdef.obj
 0002:000ba300       ?resolveReferences@MindGlobalCircuitDef@@QAEXPAVMindMap@@@Z 00573300 f   mind:mindglobalcircuitdef.obj
 0002:000ba470       ?addConnectons@MindGlobalCircuitDef@@AAEXPAVMindMap@@VString@@@Z 00573470 f   mind:mindglobalcircuitdef.obj
 0002:000ba720       ??0?$MapStringToClass@VMindGlobalCircuitRegionDef@@@@QAE@XZ 00573720 f i mind:mindglobalcircuitdef.obj
 0002:000ba780       ??1?$MapStringToClass@VMindGlobalCircuitRegionDef@@@@QAE@XZ 00573780 f i mind:mindglobalcircuitdef.obj
 0002:000ba7e0       ?add@?$MapStringToClass@VMindGlobalCircuitRegionDef@@@@QAEHPBDPAVMindGlobalCircuitRegionDef@@@Z 005737e0 f i mind:mindglobalcircuitdef.obj
 0002:000ba9f0       ?get@?$MapStringToClass@VMindGlobalCircuitRegionDef@@@@QAEPAVMindGlobalCircuitRegionDef@@PBD@Z 005739f0 f i mind:mindglobalcircuitdef.obj
 0002:000baaa0       ?count@?$MapStringToClass@VMindGlobalCircuitRegionDef@@@@QAEHXZ 00573aa0 f i mind:mindglobalcircuitdef.obj
 0002:000bab00       ?getClassByIndex@?$MapStringToClass@VMindGlobalCircuitRegionDef@@@@QAEPAVMindGlobalCircuitRegionDef@@H@Z 00573b00 f i mind:mindglobalcircuitdef.obj
 0002:000babc0       ?addnew@?$MapStringToClass@VMindLocalCircuitConnectionDef@@@@QAEHPBDPAVMindLocalCircuitConnectionDef@@@Z 00573bc0 f i mind:mindglobalcircuitdef.obj
 0002:000bac90       ?getCircuit@MindRegionDef@@QAEPAVMindLocalCircuitDef@@XZ 00573c90 f i mind:mindglobalcircuitdef.obj
 0002:000bacd0       ?getId@MindGlobalCircuitRegionDef@@QAE?AVString@@XZ 00573cd0 f i mind:mindglobalcircuitdef.obj
 0002:000bad90       ?getClass@MindGlobalCircuitDef@@UAEPBDXZ 00573d90 f i mind:mindglobalcircuitdef.obj
 0002:000badd0       ??0MindConnectionTypeDef@@QAE@XZ 00573dd0 f   mind:mindconnectiontypedef.obj
 0002:000baee0       ??_EMindConnectionTypeDef@@UAEPAXI@Z 00573ee0 f i mind:mindconnectiontypedef.obj
 0002:000baee0       ??_GMindConnectionTypeDef@@UAEPAXI@Z 00573ee0 f i mind:mindconnectiontypedef.obj
 0002:000baf50       ??1MindConnectionTypeDef@@UAE@XZ 00573f50 f   mind:mindconnectiontypedef.obj
 0002:000bb050       ?createFromXml@MindConnectionTypeDef@@QAEXVXml@@@Z 00574050 f   mind:mindconnectiontypedef.obj
 0002:000bb500       ?resolveReferences@MindConnectionTypeDef@@QAEXPAVMindMap@@@Z 00574500 f   mind:mindconnectiontypedef.obj
 0002:000bb540       ??0?$ClassList@VMindConnectionLinkTypeDef@@@@QAE@XZ 00574540 f i mind:mindconnectiontypedef.obj
 0002:000bb5a0       ??1?$ClassList@VMindConnectionLinkTypeDef@@@@QAE@XZ 005745a0 f i mind:mindconnectiontypedef.obj
 0002:000bb600       ?add@?$ClassList@VMindConnectionLinkTypeDef@@@@QAEHPAVMindConnectionLinkTypeDef@@@Z 00574600 f i mind:mindconnectiontypedef.obj
 0002:000bb6a0       ??0?$MapStringToClass@VMindConnectionLinkTypeDef@@@@QAE@XZ 005746a0 f i mind:mindconnectiontypedef.obj
 0002:000bb700       ??1?$MapStringToClass@VMindConnectionLinkTypeDef@@@@QAE@XZ 00574700 f i mind:mindconnectiontypedef.obj
 0002:000bb760       ?add@?$MapStringToClass@VMindConnectionLinkTypeDef@@@@QAEHPBDPAVMindConnectionLinkTypeDef@@@Z 00574760 f i mind:mindconnectiontypedef.obj
 0002:000bb970       ?getClass@MindConnectionTypeDef@@UAEPBDXZ 00574970 f i mind:mindconnectiontypedef.obj
 0002:000bb9b0       ??0TargetAreaDef@@QAE@XZ   005749b0 f   mind:targetareadef.obj
 0002:000bba60       ??_GTargetAreaDef@@UAEPAXI@Z 00574a60 f i mind:targetareadef.obj
 0002:000bba60       ??_ETargetAreaDef@@UAEPAXI@Z 00574a60 f i mind:targetareadef.obj
 0002:000bbad0       ??1TargetAreaDef@@UAE@XZ   00574ad0 f   mind:targetareadef.obj
 0002:000bbb70       ?defineSensorArea@TargetAreaDef@@QAEXXZ 00574b70 f   mind:targetareadef.obj
 0002:000bbc10       ?defineEffectorArea@TargetAreaDef@@QAEXXZ 00574c10 f   mind:targetareadef.obj
 0002:000bbcb0       ?addRegion@TargetAreaDef@@QAEXPAVTargetRegionDef@@@Z 00574cb0 f   mind:targetareadef.obj
 0002:000bbdb0       ?getClass@TargetAreaDef@@UAEPBDXZ 00574db0 f i mind:targetareadef.obj
 0002:000bbdf0       ??0TargetRegionDef@@QAE@PAVTargetAreaDef@@@Z 00574df0 f   mind:targetregiondef.obj
 0002:000bbec0       ??_GTargetRegionDef@@UAEPAXI@Z 00574ec0 f i mind:targetregiondef.obj
 0002:000bbec0       ??_ETargetRegionDef@@UAEPAXI@Z 00574ec0 f i mind:targetregiondef.obj
 0002:000bbf30       ??1TargetRegionDef@@UAE@XZ 00574f30 f   mind:targetregiondef.obj
 0002:000bc040       ?defineSensorRegion@TargetRegionDef@@QAEXVXml@@@Z 00575040 f   mind:targetregiondef.obj
 0002:000bc3a0       ?defineEffectorRegion@TargetRegionDef@@QAEXVXml@@@Z 005753a0 f   mind:targetregiondef.obj
 0002:000bc700       ?getClass@TargetRegionDef@@UAEPBDXZ 00575700 f i mind:targetregiondef.obj
 0002:000bc740       ??0MindServiceDef@@QAE@PAVMindAreaDef@@@Z 00575740 f   mind:mindservicedef.obj
 0002:000bc840       ??_EMindServiceDef@@UAEPAXI@Z 00575840 f i mind:mindservicedef.obj
 0002:000bc840       ??_GMindServiceDef@@UAEPAXI@Z 00575840 f i mind:mindservicedef.obj
 0002:000bc8b0       ??1MindServiceDef@@UAE@XZ  005758b0 f   mind:mindservicedef.obj
 0002:000bc990       ?createFromXml@MindServiceDef@@QAEXVXml@@@Z 00575990 f   mind:mindservicedef.obj
 0002:000bcb70       ?getClass@MindServiceDef@@UAEPBDXZ 00575b70 f i mind:mindservicedef.obj
 0002:000bcbb0       ??0MindEffectorSet@@QAE@PAVEffectorArea@@@Z 00575bb0 f   mind:mindeffectorset.obj
 0002:000bcca0       ?createEffectorSet@MindEffectorSet@@QAEXXZ 00575ca0 f   mind:mindeffectorset.obj
 0002:000bceb0       ?startEffectorSet@MindEffectorSet@@QAEXXZ 00575eb0 f   mind:mindeffectorset.obj
 0002:000bd060       ?stopEffectorSet@MindEffectorSet@@QAEXXZ 00576060 f   mind:mindeffectorset.obj
 0002:000bd210       ?getCount@MindEffectorSet@@QAEHXZ 00576210 f   mind:mindeffectorset.obj
 0002:000bd270       ?getSetItem@MindEffectorSet@@QAEPAVMindEffector@@H@Z 00576270 f   mind:mindeffectorset.obj
 0002:000bd2d0       ?addSetItem@MindEffectorSet@@QAEXPAVMindEffector@@@Z 005762d0 f   mind:mindeffectorset.obj
 0002:000bd360       ?getEffector@MindEffectorSet@@QAEPAVMindEffector@@VString@@@Z 00576360 f   mind:mindeffectorset.obj
 0002:000bd420       ??0?$ClassList@VMindEffector@@@@QAE@XZ 00576420 f i mind:mindeffectorset.obj
 0002:000bd480       ??1?$ClassList@VMindEffector@@@@QAE@XZ 00576480 f i mind:mindeffectorset.obj
 0002:000bd4e0       ?count@?$ClassList@VMindEffector@@@@QBEHXZ 005764e0 f i mind:mindeffectorset.obj
 0002:000bd540       ?get@?$ClassList@VMindEffector@@@@QBEPAVMindEffector@@H@Z 00576540 f i mind:mindeffectorset.obj
 0002:000bd5a0       ?add@?$ClassList@VMindEffector@@@@QAEHPAVMindEffector@@@Z 005765a0 f i mind:mindeffectorset.obj
 0002:000bd640       ??0?$MapStringToClass@VMindEffector@@@@QAE@XZ 00576640 f i mind:mindeffectorset.obj
 0002:000bd6a0       ??1?$MapStringToClass@VMindEffector@@@@QAE@XZ 005766a0 f i mind:mindeffectorset.obj
 0002:000bd700       ?add@?$MapStringToClass@VMindEffector@@@@QAEHPBDPAVMindEffector@@@Z 00576700 f i mind:mindeffectorset.obj
 0002:000bd910       ?get@?$MapStringToClass@VMindEffector@@@@QAEPAVMindEffector@@PBD@Z 00576910 f i mind:mindeffectorset.obj
 0002:000bd9c0       ?getClass@MindEffectorSet@@UAEPBDXZ 005769c0 f i mind:mindeffectorset.obj
 0002:000bda00       ??0MindSensorSet@@QAE@PAVSensorArea@@@Z 00576a00 f   mind:mindsensorset.obj
 0002:000bdaf0       ?getCount@MindSensorSet@@QAEHXZ 00576af0 f   mind:mindsensorset.obj
 0002:000bdb50       ?getSetItem@MindSensorSet@@QAEPAVMindSensor@@H@Z 00576b50 f   mind:mindsensorset.obj
 0002:000bdbb0       ?addSetItem@MindSensorSet@@QAEXPAVMindSensor@@@Z 00576bb0 f   mind:mindsensorset.obj
 0002:000bdc40       ?getSensor@MindSensorSet@@QAEPAVMindSensor@@VString@@@Z 00576c40 f   mind:mindsensorset.obj
 0002:000bdd00       ?createSensorSet@MindSensorSet@@QAEXXZ 00576d00 f   mind:mindsensorset.obj
 0002:000bdf10       ?startSensorSet@MindSensorSet@@QAEXXZ 00576f10 f   mind:mindsensorset.obj
 0002:000be0c0       ?stopSensorSet@MindSensorSet@@QAEXXZ 005770c0 f   mind:mindsensorset.obj
 0002:000be270       ?pollSensorSet@MindSensorSet@@QAEXHPAH@Z 00577270 f   mind:mindsensorset.obj
 0002:000be380       ??0?$ClassList@VMindSensor@@@@QAE@XZ 00577380 f i mind:mindsensorset.obj
 0002:000be3e0       ??1?$ClassList@VMindSensor@@@@QAE@XZ 005773e0 f i mind:mindsensorset.obj
 0002:000be440       ?count@?$ClassList@VMindSensor@@@@QBEHXZ 00577440 f i mind:mindsensorset.obj
 0002:000be4a0       ?get@?$ClassList@VMindSensor@@@@QBEPAVMindSensor@@H@Z 005774a0 f i mind:mindsensorset.obj
 0002:000be500       ?add@?$ClassList@VMindSensor@@@@QAEHPAVMindSensor@@@Z 00577500 f i mind:mindsensorset.obj
 0002:000be5a0       ??0?$MapStringToClass@VMindSensor@@@@QAE@XZ 005775a0 f i mind:mindsensorset.obj
 0002:000be600       ??1?$MapStringToClass@VMindSensor@@@@QAE@XZ 00577600 f i mind:mindsensorset.obj
 0002:000be660       ?add@?$MapStringToClass@VMindSensor@@@@QAEHPBDPAVMindSensor@@@Z 00577660 f i mind:mindsensorset.obj
 0002:000be870       ?get@?$MapStringToClass@VMindSensor@@@@QAEPAVMindSensor@@PBD@Z 00577870 f i mind:mindsensorset.obj
 0002:000be920       ?getClass@MindSensorSet@@UAEPBDXZ 00577920 f i mind:mindsensorset.obj
 0002:000be960       ??0MindActiveMemoryObject@@QAE@H@Z 00577960 f   mind:mindactivememoryobject.obj
 0002:000beaf0       ?getClass@MindActiveMemoryObject@@UAEPBDXZ 00577af0 f i mind:mindactivememoryobject.obj
 0002:000beb30       ??_GMindActiveMemoryObject@@UAEPAXI@Z 00577b30 f i mind:mindactivememoryobject.obj
 0002:000beb30       ??_EMindActiveMemoryObject@@UAEPAXI@Z 00577b30 f i mind:mindactivememoryobject.obj
 0002:000beba0       ??1MindActiveMemoryObject@@UAE@XZ 00577ba0 f   mind:mindactivememoryobject.obj
 0002:000bec60       ?setTargetItem@MindActiveMemoryObject@@QAEXPAVNeuroLink@@@Z 00577c60 f   mind:mindactivememoryobject.obj
 0002:000becb0       ?execute@MindActiveMemoryObject@@UAEXXZ 00577cb0 f   mind:mindactivememoryobject.obj
 0002:000bed40       ?needExecution@MindActiveMemoryObject@@UAE_NXZ 00577d40 f   mind:mindactivememoryobject.obj
 0002:000bed80       ?finished@MindActiveMemoryObject@@UAE_NXZ 00577d80 f   mind:mindactivememoryobject.obj
 0002:000bedc0       ??0ThreadPoolTask@@QAE@XZ  00577dc0 f i mind:mindactivememoryobject.obj
 0002:000bee80       ?needExecution@ThreadPoolTask@@UAE_NXZ 00577e80 f i mind:mindactivememoryobject.obj
 0002:000beec0       ?finished@ThreadPoolTask@@UAE_NXZ 00577ec0 f i mind:mindactivememoryobject.obj
 0002:000bef00       ??1ThreadPoolTask@@UAE@XZ  00577f00 f i mind:mindactivememoryobject.obj
 0002:000befa0       ??_GThreadPoolTask@@UAEPAXI@Z 00577fa0 f i mind:mindactivememoryobject.obj
 0002:000befa0       ??_EThreadPoolTask@@UAEPAXI@Z 00577fa0 f i mind:mindactivememoryobject.obj
 0002:000bf010       ??0CortexTemporalPooler@@QAE@XZ 00578010 f   mind:cortextemporalpooler.obj
 0002:000bf140       ?getClass@CortexTemporalPooler@@UAEPBDXZ 00578140 f i mind:cortextemporalpooler.obj
 0002:000bf180       ??_GCortexTemporalPooler@@UAEPAXI@Z 00578180 f i mind:cortextemporalpooler.obj
 0002:000bf180       ??_ECortexTemporalPooler@@UAEPAXI@Z 00578180 f i mind:cortextemporalpooler.obj
 0002:000bf1f0       ??1CortexTemporalPooler@@UAE@XZ 005781f0 f   mind:cortextemporalpooler.obj
 0002:000bf2d0       ?create@CortexTemporalPooler@@QAEXHH@Z 005782d0 f   mind:cortextemporalpooler.obj
 0002:000bf3a0       ?forgetSpatialPattern@CortexTemporalPooler@@QAEXH@Z 005783a0 f   mind:cortextemporalpooler.obj
 0002:000bf4e0       ?matchPattern@CortexTemporalPooler@@QAEHHPAH00@Z 005784e0 f   mind:cortextemporalpooler.obj
 0002:000bf690       ?matchFillPattern@CortexTemporalPooler@@QAEPAVCortexTemporalPoolerItem@@PAHHH0@Z 00578690 f   mind:cortextemporalpooler.obj
 0002:000bf910       ?findBestMatch@CortexTemporalPooler@@QAEPAVCortexTemporalPoolerItem@@HPAHH00@Z 00578910 f   mind:cortextemporalpooler.obj
 0002:000bfa50       ?findPartialBestMatch@CortexTemporalPooler@@QAEPAVCortexTemporalPoolerItem@@HPAHH00@Z 00578a50 f   mind:cortextemporalpooler.obj
 0002:000bfb90       ?findLeastUsed@CortexTemporalPooler@@QAEPAVCortexTemporalPoolerItem@@XZ 00578b90 f   mind:cortextemporalpooler.obj
 0002:000bfc60       ?predictPattern@CortexTemporalPooler@@QAEHPAHH00@Z 00578c60 f   mind:cortextemporalpooler.obj
 0002:000bfe60       ?setMatchTolerance@CortexTemporalPooler@@QAEXH@Z 00578e60 f   mind:cortextemporalpooler.obj
 0002:000bfeb0       ?setProtectedUsage@CortexTemporalPooler@@QAEXH@Z 00578eb0 f   mind:cortextemporalpooler.obj
 0002:000bff00       ?setPredictionProbabilityTolerance@CortexTemporalPooler@@QAEXH@Z 00578f00 f   mind:cortextemporalpooler.obj
 0002:000bff50       ?setPredictionMatchTolerance@CortexTemporalPooler@@QAEXH@Z 00578f50 f   mind:cortextemporalpooler.obj
 0002:000bffa0       ?logItems@CortexTemporalPooler@@QAEXXZ 00578fa0 f   mind:cortextemporalpooler.obj
 0002:000c0280       ??0?$ClassList@VCortexTemporalPoolerItem@@@@QAE@XZ 00579280 f i mind:cortextemporalpooler.obj
 0002:000c02e0       ??1?$ClassList@VCortexTemporalPoolerItem@@@@QAE@XZ 005792e0 f i mind:cortextemporalpooler.obj
 0002:000c0340       ?count@?$ClassList@VCortexTemporalPoolerItem@@@@QBEHXZ 00579340 f i mind:cortextemporalpooler.obj
 0002:000c03a0       ?get@?$ClassList@VCortexTemporalPoolerItem@@@@QBEPAVCortexTemporalPoolerItem@@H@Z 005793a0 f i mind:cortextemporalpooler.obj
 0002:000c0400       ??A?$ClassList@VCortexTemporalPoolerItem@@@@QAEAAPAVCortexTemporalPoolerItem@@H@Z 00579400 f i mind:cortextemporalpooler.obj
 0002:000c0460       ?add@?$ClassList@VCortexTemporalPoolerItem@@@@QAEHPAVCortexTemporalPoolerItem@@@Z 00579460 f i mind:cortextemporalpooler.obj
 0002:000c0500       ??0CortexSpatialPooler@@QAE@XZ 00579500 f   mind:cortexspatialpooler.obj
 0002:000c0610       ?getClass@CortexSpatialPooler@@UAEPBDXZ 00579610 f i mind:cortexspatialpooler.obj
 0002:000c0650       ??_ECortexSpatialPooler@@UAEPAXI@Z 00579650 f i mind:cortexspatialpooler.obj
 0002:000c0650       ??_GCortexSpatialPooler@@UAEPAXI@Z 00579650 f i mind:cortexspatialpooler.obj
 0002:000c06c0       ??1CortexSpatialPooler@@UAE@XZ 005796c0 f   mind:cortexspatialpooler.obj
 0002:000c0780       ?create@CortexSpatialPooler@@QAEXHHH@Z 00579780 f   mind:cortexspatialpooler.obj
 0002:000c07e0       ?setMatchTolerance@CortexSpatialPooler@@QAEXHH@Z 005797e0 f   mind:cortexspatialpooler.obj
 0002:000c0830       ?setProtectedUsage@CortexSpatialPooler@@QAEXH@Z 00579830 f   mind:cortexspatialpooler.obj
 0002:000c0880       ?matchPattern@CortexSpatialPooler@@QAEHPAVNeuroSignal@@PAH1@Z 00579880 f   mind:cortexspatialpooler.obj
 0002:000c1430       ??_GCortexSpatialPoolerItem@@QAEPAXI@Z 0057a430 f i mind:cortexspatialpooler.obj
 0002:000c14a0       ??1CortexSpatialPoolerItem@@QAE@XZ 0057a4a0 f i mind:cortexspatialpooler.obj
 0002:000c1550       ?getPattern@CortexSpatialPooler@@QAE_NHPAVNeuroSignal@@@Z 0057a550 f   mind:cortexspatialpooler.obj
 0002:000c15e0       ?findBestMatch@CortexSpatialPooler@@QAEPAVCortexSpatialPoolerItem@@PAV2@PAH@Z 0057a5e0 f   mind:cortexspatialpooler.obj
 0002:000c16d0       ?findLeastUsed@CortexSpatialPooler@@QAEPAVCortexSpatialPoolerItem@@XZ 0057a6d0 f   mind:cortexspatialpooler.obj
 0002:000c17a0       ?logItems@CortexSpatialPooler@@QAEXXZ 0057a7a0 f   mind:cortexspatialpooler.obj
 0002:000c1930       ??0?$ClassList@VCortexSpatialPoolerItem@@@@QAE@XZ 0057a930 f i mind:cortexspatialpooler.obj
 0002:000c1990       ??1?$ClassList@VCortexSpatialPoolerItem@@@@QAE@XZ 0057a990 f i mind:cortexspatialpooler.obj
 0002:000c19f0       ?count@?$ClassList@VCortexSpatialPoolerItem@@@@QBEHXZ 0057a9f0 f i mind:cortexspatialpooler.obj
 0002:000c1a50       ?set@?$ClassList@VCortexSpatialPoolerItem@@@@QAEXHPAVCortexSpatialPoolerItem@@@Z 0057aa50 f i mind:cortexspatialpooler.obj
 0002:000c1ac0       ??A?$ClassList@VCortexSpatialPoolerItem@@@@QAEAAPAVCortexSpatialPoolerItem@@H@Z 0057aac0 f i mind:cortexspatialpooler.obj
 0002:000c1b20       ?add@?$ClassList@VCortexSpatialPoolerItem@@@@QAEHPAVCortexSpatialPoolerItem@@@Z 0057ab20 f i mind:cortexspatialpooler.obj
 0002:000c1bc0       ?destroy@?$ClassList@VCortexSpatialPoolerItem@@@@QAEXXZ 0057abc0 f i mind:cortexspatialpooler.obj
 0002:000c1ca0       ?clear@?$ClassList@VCortexSpatialPoolerItem@@@@QAEXXZ 0057aca0 f i mind:cortexspatialpooler.obj
 0002:000c1d00       ??0NeuroLink@@QAE@PAVNeuroLinkSource@@PAVNeuroLinkTarget@@@Z 0057ad00 f   mind:neurolink.obj
 0002:000c1e30       ?createNeuroLink@NeuroLink@@UAEXPAVNeuroLinkInfo@@@Z 0057ae30 f   mind:neurolink.obj
 0002:000c2060       ?getSize@NeuroLink@@QAEHXZ 0057b060 f   mind:neurolink.obj
 0002:000c20b0       ?getClass@NeuroLink@@UAEPBDXZ 0057b0b0 f i mind:neurolink.obj
 0002:000c20f0       ?getSizeX@NeuroLinkSource@@QAEHXZ 0057b0f0 f i mind:neurolink.obj
 0002:000c2130       ?getSizeY@NeuroLinkSource@@QAEHXZ 0057b130 f i mind:neurolink.obj
 0002:000c2170       ?getLinkDef@NeuroLinkInfo@@QAEPAVMindConnectionLinkTypeDef@@XZ 0057b170 f i mind:neurolink.obj
 0002:000c21b0       ?getRegionLink@NeuroLinkInfo@@QAEPAVMindRegionLink@@XZ 0057b1b0 f i mind:neurolink.obj
 0002:000c21f0       ??0MindGlobalCircuitRegionDef@@QAE@PAVMindGlobalCircuitDef@@@Z 0057b1f0 f   mind:mindglobalcircuitregiondef.obj
 0002:000c22d0       ?createFromXml@MindGlobalCircuitRegionDef@@QAEXVXml@@@Z 0057b2d0 f   mind:mindglobalcircuitregiondef.obj
 0002:000c24a0       ?getClass@MindGlobalCircuitRegionDef@@UAEPBDXZ 0057b4a0 f i mind:mindglobalcircuitregiondef.obj
 0002:000c24e0       ??_GMindGlobalCircuitRegionDef@@UAEPAXI@Z 0057b4e0 f i mind:mindglobalcircuitregiondef.obj
 0002:000c24e0       ??_EMindGlobalCircuitRegionDef@@UAEPAXI@Z 0057b4e0 f i mind:mindglobalcircuitregiondef.obj
 0002:000c2550       ??1MindGlobalCircuitRegionDef@@UAE@XZ 0057b550 f i mind:mindglobalcircuitregiondef.obj
 0002:000c2620       ??0MindConnectionLinkTypeDef@@QAE@PAVMindConnectionTypeDef@@@Z 0057b620 f   mind:mindconnectionlinktypedef.obj
 0002:000c2750       ??_EMindConnectionLinkTypeDef@@UAEPAXI@Z 0057b750 f i mind:mindconnectionlinktypedef.obj
 0002:000c2750       ??_GMindConnectionLinkTypeDef@@UAEPAXI@Z 0057b750 f i mind:mindconnectionlinktypedef.obj
 0002:000c27c0       ??1MindConnectionLinkTypeDef@@UAE@XZ 0057b7c0 f   mind:mindconnectionlinktypedef.obj
 0002:000c28d0       ?createFromXml@MindConnectionLinkTypeDef@@QAEXVXml@@@Z 0057b8d0 f   mind:mindconnectionlinktypedef.obj
 0002:000c2db0       ?getClass@MindConnectionLinkTypeDef@@UAEPBDXZ 0057bdb0 f i mind:mindconnectionlinktypedef.obj
 0002:000c2df0       ??0TargetRegionTypeDef@@QAE@XZ 0057bdf0 f   mind:targetregiontypedef.obj
 0002:000c2ea0       ??_ETargetRegionTypeDef@@UAEPAXI@Z 0057bea0 f i mind:targetregiontypedef.obj
 0002:000c2ea0       ??_GTargetRegionTypeDef@@UAEPAXI@Z 0057bea0 f i mind:targetregiontypedef.obj
 0002:000c2f10       ??1TargetRegionTypeDef@@UAE@XZ 0057bf10 f   mind:targetregiontypedef.obj
 0002:000c3020       ?defineSensorRegionType@TargetRegionTypeDef@@QAEXPAVTargetRegionDef@@VXml@@@Z 0057c020 f   mind:targetregiontypedef.obj
 0002:000c3090       ?defineEffectorRegionType@TargetRegionTypeDef@@QAEXPAVTargetRegionDef@@VXml@@@Z 0057c090 f   mind:targetregiontypedef.obj
 0002:000c3100       ?defineRegionType@TargetRegionTypeDef@@QAEXPAVTargetRegionDef@@_NVXml@@@Z 0057c100 f   mind:targetregiontypedef.obj
 0002:000c3310       ?defineConnectorSet@TargetRegionTypeDef@@QAEXVXml@@@Z 0057c310 f   mind:targetregiontypedef.obj
 0002:000c3800       ?getTargetArea@TargetRegionDef@@QAEPAVTargetAreaDef@@XZ 0057c800 f i mind:targetregiontypedef.obj
 0002:000c3840       ?getClass@TargetRegionTypeDef@@UAEPBDXZ 0057c840 f i mind:targetregiontypedef.obj
 0002:000c3880       ??0CortexTemporalPoolerItem@@QAE@H@Z 0057c880 f   mind:cortextemporalpooleritem.obj
 0002:000c39d0       ?getClass@CortexTemporalPoolerItem@@UAEPBDXZ 0057c9d0 f i mind:cortextemporalpooleritem.obj
 0002:000c3a10       ??_ECortexTemporalPoolerItem@@UAEPAXI@Z 0057ca10 f i mind:cortextemporalpooleritem.obj
 0002:000c3a10       ??_GCortexTemporalPoolerItem@@UAEPAXI@Z 0057ca10 f i mind:cortextemporalpooleritem.obj
 0002:000c3a80       ??1CortexTemporalPoolerItem@@UAE@XZ 0057ca80 f   mind:cortextemporalpooleritem.obj
 0002:000c3b50       ?getId@CortexTemporalPoolerItem@@QAEHXZ 0057cb50 f   mind:cortextemporalpooleritem.obj
 0002:000c3b90       ?setId@CortexTemporalPoolerItem@@QAEXH@Z 0057cb90 f   mind:cortextemporalpooleritem.obj
 0002:000c3be0       ?deleteSpatialPatternIfAny@CortexTemporalPoolerItem@@QAEXH@Z 0057cbe0 f   mind:cortextemporalpooleritem.obj
 0002:000c3cc0       ?getDifferencePercentage@CortexTemporalPoolerItem@@QAEHPAHH@Z 0057ccc0 f   mind:cortextemporalpooleritem.obj
 0002:000c3da0       ?getPartialDifferencePercentage@CortexTemporalPoolerItem@@QAEHPAHH@Z 0057cda0 f   mind:cortextemporalpooleritem.obj
 0002:000c3e80       ?addUsage@CortexTemporalPoolerItem@@QAEXXZ 0057ce80 f   mind:cortextemporalpooleritem.obj
 0002:000c3ed0       ?getUsage@CortexTemporalPoolerItem@@QAEHXZ 0057ced0 f   mind:cortextemporalpooleritem.obj
 0002:000c3f10       ?setUsage@CortexTemporalPoolerItem@@QAEXH@Z 0057cf10 f   mind:cortextemporalpooleritem.obj
 0002:000c3f60       ?setData@CortexTemporalPoolerItem@@QAEXPAHH@Z 0057cf60 f   mind:cortextemporalpooleritem.obj
 0002:000c4020       ?getDataSize@CortexTemporalPoolerItem@@QAEHXZ 0057d020 f   mind:cortextemporalpooleritem.obj
 0002:000c4060       ?getSpatialPattern@CortexTemporalPoolerItem@@QAEHH@Z 0057d060 f   mind:cortextemporalpooleritem.obj
 0002:000c4280       ?logItem@CortexTemporalPoolerItem@@QAEXXZ 0057d280 f   mind:cortextemporalpooleritem.obj
 0002:000c4550       ?getNumberedState@CortexTemporalPoolerItem@@QAE?AVString@@XZ 0057d550 f   mind:cortextemporalpooleritem.obj
 0002:000c46b0       ??0CortexSpatialPoolerItem@@QAE@XZ 0057d6b0 f   mind:cortexspatialpooleritem.obj
 0002:000c4790       ?getClass@CortexSpatialPoolerItem@@UAEPBDXZ 0057d790 f i mind:cortexspatialpooleritem.obj
 0002:000c47d0       ?setId@CortexSpatialPoolerItem@@QAEXH@Z 0057d7d0 f   mind:cortexspatialpooleritem.obj
 0002:000c4820       ?setStateFromPool@CortexSpatialPoolerItem@@QAEHPAVNeuroPool@@@Z 0057d820 f   mind:cortexspatialpooleritem.obj
 0002:000c4930       ?setStateFromSignal@CortexSpatialPoolerItem@@QAEXPAVNeuroSignal@@@Z 0057d930 f   mind:cortexspatialpooleritem.obj
 0002:000c4b70       ?getDifferencePercentage@CortexSpatialPoolerItem@@QAEHPAV1@F@Z 0057db70 f   mind:cortexspatialpooleritem.obj
 0002:000c4ec0       ?getId@CortexSpatialPoolerItem@@QAEHXZ 0057dec0 f   mind:cortexspatialpooleritem.obj
 0002:000c4f00       ?getUsage@CortexSpatialPoolerItem@@QAEHXZ 0057df00 f   mind:cortexspatialpooleritem.obj
 0002:000c4f40       ?addUsage@CortexSpatialPoolerItem@@QAEXXZ 0057df40 f   mind:cortexspatialpooleritem.obj
 0002:000c4f90       ?setPoolState@CortexSpatialPoolerItem@@QAEXPAVNeuroPool@@@Z 0057df90 f   mind:cortexspatialpooleritem.obj
 0002:000c50a0       ?getSignalFromState@CortexSpatialPoolerItem@@QAEXPAVNeuroSignal@@@Z 0057e0a0 f   mind:cortexspatialpooleritem.obj
 0002:000c5120       ?logItem@CortexSpatialPoolerItem@@QAEXXZ 0057e120 f   mind:cortexspatialpooleritem.obj
 0002:000c53f0       ?getBinaryState@CortexSpatialPoolerItem@@QAE?AVString@@XZ 0057e3f0 f   mind:cortexspatialpooleritem.obj
 0002:000c5680       ?getNumberedState@CortexSpatialPoolerItem@@QAE?AVString@@XZ 0057e680 f   mind:cortexspatialpooleritem.obj
 0002:000c5810       ??0TargetCircuitDef@@QAE@PAVTargetAreaDef@@PAVTargetRegionDef@@@Z 0057e810 f   mind:targetcircuitdef.obj
 0002:000c58e0       ??_ETargetCircuitDef@@UAEPAXI@Z 0057e8e0 f i mind:targetcircuitdef.obj
 0002:000c58e0       ??_GTargetCircuitDef@@UAEPAXI@Z 0057e8e0 f i mind:targetcircuitdef.obj
 0002:000c5950       ??1TargetCircuitDef@@UAE@XZ 0057e950 f   mind:targetcircuitdef.obj
 0002:000c5a10       ?defineCircuit@TargetCircuitDef@@QAEX_NVXml@@@Z 0057ea10 f   mind:targetcircuitdef.obj
 0002:000c5cc0       ?defineCircuitConnection@TargetCircuitDef@@QAEXPAVTargetRegionConnectorDef@@VXml@@@Z 0057ecc0 f   mind:targetcircuitdef.obj
 0002:000c5e40       ?getClass@TargetCircuitDef@@UAEPBDXZ 0057ee40 f i mind:targetcircuitdef.obj
 0002:000c5e80       ??0TargetRegionConnectorDef@@QAE@XZ 0057ee80 f   mind:targetregionconnectordef.obj
 0002:000c5f50       ??_GTargetRegionConnectorDef@@UAEPAXI@Z 0057ef50 f i mind:targetregionconnectordef.obj
 0002:000c5f50       ??_ETargetRegionConnectorDef@@UAEPAXI@Z 0057ef50 f i mind:targetregionconnectordef.obj
 0002:000c5fc0       ??1TargetRegionConnectorDef@@UAE@XZ 0057efc0 f   mind:targetregionconnectordef.obj
 0002:000c6090       ?defineRegionConnectorDef@TargetRegionConnectorDef@@QAEXVXml@@PAVTargetCircuitDef@@@Z 0057f090 f   mind:targetregionconnectordef.obj
 0002:000c63e0       ?getClass@TargetRegionConnectorDef@@UAEPBDXZ 0057f3e0 f i mind:targetregionconnectordef.obj
 0002:000c6420       ??0TargetCircuitConnectionDef@@QAE@PAVTargetCircuitDef@@@Z 0057f420 f   mind:targetcircuitconnectiondef.obj
 0002:000c64f0       ??_ETargetCircuitConnectionDef@@UAEPAXI@Z 0057f4f0 f i mind:targetcircuitconnectiondef.obj
 0002:000c64f0       ??_GTargetCircuitConnectionDef@@UAEPAXI@Z 0057f4f0 f i mind:targetcircuitconnectiondef.obj
 0002:000c6560       ??1TargetCircuitConnectionDef@@UAE@XZ 0057f560 f   mind:targetcircuitconnectiondef.obj
 0002:000c6670       ?defineCircuitConnectorDef@TargetCircuitConnectionDef@@QAEXPAVTargetRegionConnectorDef@@VXml@@@Z 0057f670 f   mind:targetcircuitconnectiondef.obj
 0002:000c6ab0       ?getActuatorId@TargetCircuitDef@@QAE?AVString@@XZ 0057fab0 f i mind:targetcircuitconnectiondef.obj
 0002:000c6b70       ?getClass@TargetCircuitConnectionDef@@UAEPBDXZ 0057fb70 f i mind:targetcircuitconnectiondef.obj
 0002:000c6bb0       ??0TargetConnectionTypeDef@@QAE@XZ 0057fbb0 f   mind:targetconnectiontypedef.obj
 0002:000c6c60       ??_ETargetConnectionTypeDef@@UAEPAXI@Z 0057fc60 f i mind:targetconnectiontypedef.obj
 0002:000c6c60       ??_GTargetConnectionTypeDef@@UAEPAXI@Z 0057fc60 f i mind:targetconnectiontypedef.obj
 0002:000c6cd0       ??1TargetConnectionTypeDef@@UAE@XZ 0057fcd0 f   mind:targetconnectiontypedef.obj
 0002:000c6d70       ?defineConnectionTypeDef@TargetConnectionTypeDef@@QAEXPAVTargetCircuitDef@@PAVTargetRegionConnectorDef@@VXml@@@Z 0057fd70 f   mind:targetconnectiontypedef.obj
 0002:000c7170       ?getConnector@TargetRegionConnectorDef@@QAE?AVString@@XZ 00580170 f i mind:targetconnectiontypedef.obj
 0002:000c7230       ?getClass@TargetConnectionTypeDef@@UAEPBDXZ 00580230 f i mind:targetconnectiontypedef.obj
 0002:000c7270       ??0TargetConnectionLinkTypeDef@@QAE@PAVTargetConnectionTypeDef@@@Z 00580270 f   mind:targetconnectionlinktypedef.obj
 0002:000c7320       ??_GTargetConnectionLinkTypeDef@@UAEPAXI@Z 00580320 f i mind:targetconnectionlinktypedef.obj
 0002:000c7320       ??_ETargetConnectionLinkTypeDef@@UAEPAXI@Z 00580320 f i mind:targetconnectionlinktypedef.obj
 0002:000c7390       ??1TargetConnectionLinkTypeDef@@UAE@XZ 00580390 f   mind:targetconnectionlinktypedef.obj
 0002:000c7430       ?defineConnectionLinkTypeDef@TargetConnectionLinkTypeDef@@QAEXPAVTargetCircuitDef@@PAVTargetRegionConnectorDef@@PAVTargetConnectionTypeDef@@VXml@@@Z 00580430 f   mind:targetconnectionlinktypedef.obj
 0002:000c79e0       ?getClass@TargetConnectionLinkTypeDef@@UAEPBDXZ 005809e0 f i mind:targetconnectionlinktypedef.obj
 0002:000c7a20       ?getClass@Object@@UAEPBDXZ 00580a20 f   platform:object.obj
 0002:000c7aa0       ?serialize@Object@@UAEXAAVSerializeObject@@@Z 00580aa0 f   platform:object.obj
 0002:000c7b30       ?deserialize@Object@@UAEXPAV1@AAVSerializeObject@@@Z 00580b30 f   platform:object.obj
 0002:000c7bc0       ?getPK@Object@@UAE?AVString@@XZ 00580bc0 f   platform:object.obj
 0002:000c7c50       ?getInstance@Object@@QAEPBDXZ 00580c50 f   platform:object.obj
 0002:000c7cb0       ?setLoggerName@Object@@QAEXVString@@@Z 00580cb0 f   platform:object.obj
 0002:000c7d80       ?getLoggerName@Object@@QAEPBDXZ 00580d80 f   platform:object.obj
 0002:000c7e10       ?setInstance@Object@@QAEXPBD@Z 00580e10 f   platform:object.obj
 0002:000c7e80       ?attachLogger@Object@@QAEXXZ 00580e80 f   platform:object.obj
 0002:000c7f10       ?createObject@Object@@SAPAV1@PBD@Z 00580f10 f   platform:object.obj
 0002:000c7f70       ?getSerializeObject@Object@@QAEPAVSerializeObject@@XZ 00580f70 f   platform:object.obj
 0002:000c7fe0       ?serialize@Object@@SAXPAV1@AAVSerializeObject@@@Z 00580fe0 f   platform:object.obj
 0002:000c8070       ?deserialize@Object@@SAXPAV1@0AAVSerializeObject@@@Z 00581070 f   platform:object.obj
 0002:000c8150       ?log@Object@@QAEXPBDW4LogLevel@Logger@@@Z 00581150 f   platform:object.obj
 0002:000c8360       ?getService@ObjectService@@SAPAV1@XZ 00581360 f i platform:object.obj
 0002:000c83c0       ??0Xml@@QAE@XZ             005813c0 f   platform:xml.obj
 0002:000c8410       ?attach@Xml@@QAEXPAX0@Z    00581410 f   platform:xml.obj
 0002:000c8460       ?destroy@Xml@@QAEXXZ       00581460 f   platform:xml.obj
 0002:000c8540       ?getName@Xml@@QAE?AVString@@XZ 00581540 f   platform:xml.obj
 0002:000c8750       ?Value@TiXmlNode@@QBEPBDXZ 00581750 f i platform:xml.obj
 0002:000c87b0       ?getValue@Xml@@QAE?AVString@@XZ 005817b0 f   platform:xml.obj
 0002:000c89c0       ?getHeading@Xml@@QAE?AVString@@XZ 005819c0 f   platform:xml.obj
 0002:000c8c80       ?getChildNode@Xml@@QAE?AV1@VString@@@Z 00581c80 f   platform:xml.obj
 0002:000c8f10       ?FirstChildElement@TiXmlNode@@QAEPAVTiXmlElement@@PBD@Z 00581f10 f i platform:xml.obj
 0002:000c8f70       ?getParentNode@Xml@@QAE?AV1@XZ 00581f70 f   platform:xml.obj
 0002:000c9200       ?Parent@TiXmlNode@@QAEPAV1@XZ 00582200 f i platform:xml.obj
 0002:000c9240       ?Type@TiXmlNode@@QBEHXZ    00582240 f i platform:xml.obj
 0002:000c9280       ?getXName@Xml@@QAE?AVString@@XZ 00582280 f   platform:xml.obj
 0002:000c96c0       ?getXPath@Xml@@QAE?AVString@@XZ 005826c0 f   platform:xml.obj
 0002:000c9ac0       ?getChildNamedNode@Xml@@QAE?AV1@VString@@0@Z 00582ac0 f   platform:xml.obj
 0002:000c9c20       ?getAttribute@Xml@@QAE?AVString@@V2@@Z 00582c20 f   platform:xml.obj
 0002:000ca160       ?getAttribute@Xml@@QAE?AVString@@V2@0@Z 00583160 f   platform:xml.obj
 0002:000ca490       ?getBooleanAttribute@Xml@@QAE_NVString@@@Z 00583490 f   platform:xml.obj
 0002:000ca7f0       ?getBooleanAttribute@Xml@@QAE_NVString@@_N@Z 005837f0 f   platform:xml.obj
 0002:000cab80       ?getIntAttribute@Xml@@QAEHVString@@@Z 00583b80 f   platform:xml.obj
 0002:000cb280       ?getIntAttribute@Xml@@QAEHVString@@H@Z 00584280 f   platform:xml.obj
 0002:000cb730       ?getProperty@Xml@@QAE?AVString@@V2@@Z 00584730 f   platform:xml.obj
 0002:000cbfb0       ?NextSiblingElement@TiXmlNode@@QAEPAVTiXmlElement@@PBD@Z 00584fb0 f i platform:xml.obj
 0002:000cc010       ?getBooleanProperty@Xml@@QAE_NVString@@@Z 00585010 f   platform:xml.obj
 0002:000cc1a0       ?getBooleanProperty@Xml@@QAE_NVString@@_N@Z 005851a0 f   platform:xml.obj
 0002:000cc350       ?getIntProperty@Xml@@QAEHVString@@@Z 00585350 f   platform:xml.obj
 0002:000cc6c0       ?getIntProperty@Xml@@QAEHVString@@H@Z 005856c0 f   platform:xml.obj
 0002:000ccab0       ?getFloatProperty@Xml@@QAEMVString@@@Z 00585ab0 f   platform:xml.obj
 0002:000cce20       ?getFloatProperty@Xml@@QAEMVString@@M@Z 00585e20 f   platform:xml.obj
 0002:000cd210       ?getProperty@Xml@@QAE?AVString@@V2@0@Z 00586210 f   platform:xml.obj
 0002:000cd8c0       ?exists@Xml@@QAE_NXZ       005868c0 f   platform:xml.obj
 0002:000cd910       ?setAttribute@Xml@@QAEXVString@@0@Z 00586910 f   platform:xml.obj
 0002:000cdbc0       ?setBooleanAttribute@Xml@@QAEXVString@@_N@Z 00586bc0 f   platform:xml.obj
 0002:000cde90       ?setIntAttribute@Xml@@QAEXVString@@H@Z 00586e90 f   platform:xml.obj
 0002:000ce190       ?getFirstChild@Xml@@QAE?AV1@VString@@@Z 00587190 f   platform:xml.obj
 0002:000ce4c0       ?getNextChild@Xml@@QAE?AV1@VString@@@Z 005874c0 f   platform:xml.obj
 0002:000ce7d0       ?getProperties@Xml@@QAEXAAVMapStringToString@@@Z 005877d0 f   platform:xml.obj
 0002:000ceab0       ?serialize@Xml@@QAE?AVString@@XZ 00587ab0 f   platform:xml.obj
 0002:000cec30       ?addTextElement@Xml@@QAE?AV1@VString@@0@Z 00587c30 f   platform:xml.obj
 0002:000cf040       ??0TiXmlText@@QAE@PBD@Z    00588040 f i platform:xml.obj
 0002:000cf100       ?SetValue@TiXmlNode@@QAEXPBD@Z 00588100 f i platform:xml.obj
 0002:000cf160       ?ToDocument@TiXmlNode@@UBEPBVTiXmlDocument@@XZ 00588160 f i platform:xml.obj
 0002:000cf1a0       ?ToElement@TiXmlNode@@UBEPBVTiXmlElement@@XZ 005881a0 f i platform:xml.obj
 0002:000cf1e0       ?ToComment@TiXmlNode@@UBEPBVTiXmlComment@@XZ 005881e0 f i platform:xml.obj
 0002:000cf220       ?ToUnknown@TiXmlNode@@UBEPBVTiXmlUnknown@@XZ 00588220 f i platform:xml.obj
 0002:000cf260       ?ToDeclaration@TiXmlNode@@UBEPBVTiXmlDeclaration@@XZ 00588260 f i platform:xml.obj
 0002:000cf2a0       ?ToDocument@TiXmlNode@@UAEPAVTiXmlDocument@@XZ 005882a0 f i platform:xml.obj
 0002:000cf2e0       ?ToElement@TiXmlNode@@UAEPAVTiXmlElement@@XZ 005882e0 f i platform:xml.obj
 0002:000cf320       ?ToComment@TiXmlNode@@UAEPAVTiXmlComment@@XZ 00588320 f i platform:xml.obj
 0002:000cf360       ?ToUnknown@TiXmlNode@@UAEPAVTiXmlUnknown@@XZ 00588360 f i platform:xml.obj
 0002:000cf3a0       ?ToDeclaration@TiXmlNode@@UAEPAVTiXmlDeclaration@@XZ 005883a0 f i platform:xml.obj
 0002:000cf3e0       ?ToText@TiXmlText@@UBEPBV1@XZ 005883e0 f i platform:xml.obj
 0002:000cf420       ?ToText@TiXmlText@@UAEPAV1@XZ 00588420 f i platform:xml.obj
 0002:000cf460       ??_GTiXmlText@@UAEPAXI@Z   00588460 f i platform:xml.obj
 0002:000cf460       ??_ETiXmlText@@UAEPAXI@Z   00588460 f i platform:xml.obj
 0002:000cf4d0       ??1TiXmlText@@UAE@XZ       005884d0 f i platform:xml.obj
 0002:000cf570       ?addElement@Xml@@QAE?AV1@VString@@@Z 00588570 f   platform:xml.obj
 0002:000cf8e0       ?setProperty@Xml@@QAEXVString@@0@Z 005888e0 f   platform:xml.obj
 0002:000cfc30       ?setBooleanProperty@Xml@@QAEXVString@@_N@Z 00588c30 f   platform:xml.obj
 0002:000cfd70       ?setIntProperty@Xml@@QAEXVString@@H@Z 00588d70 f   platform:xml.obj
 0002:000cfef0       ?setFloatProperty@Xml@@QAEXVString@@M@Z 00588ef0 f   platform:xml.obj
 0002:000d0070       ?findChildByPath@Xml@@QAE?AV1@VString@@@Z 00589070 f   platform:xml.obj
 0002:000d0340       ?findChildByPathAttr@Xml@@QAE?AV1@VString@@00@Z 00589340 f   platform:xml.obj
 0002:000d0770       ?parse@Xml@@SA?AV1@PBDAAHAA_N@Z 00589770 f   platform:xml.obj
 0002:000d09c0       ?FirstChildElement@TiXmlNode@@QAEPAVTiXmlElement@@XZ 005899c0 f i platform:xml.obj
 0002:000d0a10       ?read@Xml@@SA?AV1@PBD0@Z   00589a10 f   platform:xml.obj
 0002:000d0f70       ?Error@TiXmlDocument@@QBE_NXZ 00589f70 f i platform:xml.obj
 0002:000d0fb0       ?create@Xml@@SA?AV1@PBD@Z  00589fb0 f   platform:xml.obj
 0002:000d1190       ?load@Xml@@SA?AV1@PBD@Z    0058a190 f   platform:xml.obj
 0002:000d1430       ?getEnumProperty@Xml@@QAEHVString@@0@Z 0058a430 f   platform:xml.obj
 0002:000d19f0       ??4?$basic_string@DU?$char_traits@D@std@@V?$allocator@D@2@@std@@QAEAAV01@PBD@Z 0058a9f0 f i platform:xml.obj
 0002:000d1a50       ??1?$basic_string@DU?$char_traits@D@std@@V?$allocator@D@2@@std@@QAE@XZ 0058aa50 f i platform:xml.obj
 0002:000d1b00       ?c_str@?$basic_string@DU?$char_traits@D@std@@V?$allocator@D@2@@std@@QBEPBDXZ 0058ab00 f i platform:xml.obj
 0002:000d1b50       ??0?$basic_string@DU?$char_traits@D@std@@V?$allocator@D@2@@std@@QAE@XZ 0058ab50 f i platform:xml.obj
 0002:000d1c10       ?assign@?$basic_string@DU?$char_traits@D@std@@V?$allocator@D@2@@std@@QAEAAV12@PBD@Z 0058ac10 f i platform:xml.obj
 0002:000d1ca0       ?length@?$char_traits@D@std@@SAIPBD@Z 0058aca0 f i platform:xml.obj
 0002:000d1cf0       ?_Tidy@?$basic_string@DU?$char_traits@D@std@@V?$allocator@D@2@@std@@QAEX_NI@Z 0058acf0 f i platform:xml.obj
 0002:000d1dc0       ?copy@?$char_traits@D@std@@SAPADPADPBDI@Z 0058adc0 f i platform:xml.obj
 0002:000d1e20       ?_Myptr@?$basic_string@DU?$char_traits@D@std@@V?$allocator@D@2@@std@@QBEPBDXZ 0058ae20 f i platform:xml.obj
 0002:000d1e90       ??0?$_String_val@DV?$allocator@D@std@@@std@@QAE@V?$allocator@D@1@@Z 0058ae90 f i platform:xml.obj
 0002:000d1fe0       ??0_Container_proxy@std@@QAE@XZ 0058afe0 f i platform:xml.obj
 0002:000d2030       ??1?$_String_val@DV?$allocator@D@std@@@std@@QAE@XZ 0058b030 f i platform:xml.obj
 0002:000d2170       ??0?$allocator@D@std@@QAE@XZ 0058b170 f i platform:xml.obj
 0002:000d21b0       ?assign@?$basic_string@DU?$char_traits@D@std@@V?$allocator@D@2@@std@@QAEAAV12@PBDI@Z 0058b1b0 f i platform:xml.obj
 0002:000d22b0       ?_Eos@?$basic_string@DU?$char_traits@D@std@@V?$allocator@D@2@@std@@QAEXI@Z 0058b2b0 f i platform:xml.obj
 0002:000d2330       ?assign@?$char_traits@D@std@@SAXAADABD@Z 0058b330 f i platform:xml.obj
 0002:000d2370       ??0?$allocator@D@std@@QAE@ABV01@@Z 0058b370 f i platform:xml.obj
 0002:000d23b0       ?deallocate@?$allocator@D@std@@QAEXPADI@Z 0058b3b0 f i platform:xml.obj
 0002:000d2410       ?deallocate@?$allocator@U_Container_proxy@std@@@std@@QAEXPAU_Container_proxy@2@I@Z 0058b410 f i platform:xml.obj
 0002:000d2470       ?allocate@?$allocator@U_Container_proxy@std@@@std@@QAEPAU_Container_proxy@2@I@Z 0058b470 f i platform:xml.obj
 0002:000d24d0       ?assign@?$basic_string@DU?$char_traits@D@std@@V?$allocator@D@2@@std@@QAEAAV12@ABV12@II@Z 0058b4d0 f i platform:xml.obj
 0002:000d25f0       ?size@?$basic_string@DU?$char_traits@D@std@@V?$allocator@D@2@@std@@QBEIXZ 0058b5f0 f i platform:xml.obj
 0002:000d2630       ?_Xran@?$basic_string@DU?$char_traits@D@std@@V?$allocator@D@2@@std@@QBEXXZ 0058b630 f i platform:xml.obj
 0002:000d2690       ?_Grow@?$basic_string@DU?$char_traits@D@std@@V?$allocator@D@2@@std@@QAE_NI_N@Z 0058b690 f i platform:xml.obj
 0002:000d2790       ?_Inside@?$basic_string@DU?$char_traits@D@std@@V?$allocator@D@2@@std@@QAE_NPBD@Z 0058b790 f i platform:xml.obj
 0002:000d2810       ?_Myptr@?$basic_string@DU?$char_traits@D@std@@V?$allocator@D@2@@std@@QAEPADXZ 0058b810 f i platform:xml.obj
 0002:000d2880       ?_Xlen@?$basic_string@DU?$char_traits@D@std@@V?$allocator@D@2@@std@@QBEXXZ 0058b880 f i platform:xml.obj
 0002:000d28e0       ?erase@?$basic_string@DU?$char_traits@D@std@@V?$allocator@D@2@@std@@QAEAAV12@II@Z 0058b8e0 f i platform:xml.obj
 0002:000d29d0       ?move@?$char_traits@D@std@@SAPADPADPBDI@Z 0058b9d0 f i platform:xml.obj
 0002:000d2a40       ?max_size@?$basic_string@DU?$char_traits@D@std@@V?$allocator@D@2@@std@@QBEIXZ 0058ba40 f i platform:xml.obj
 0002:000d2ad0       ?_Copy@?$basic_string@DU?$char_traits@D@std@@V?$allocator@D@2@@std@@QAEXII@Z 0058bad0 f i platform:xml.obj
 0002:000d2ce0       ?allocate@?$allocator@D@std@@QAEPADI@Z 0058bce0 f i platform:xml.obj
 0002:000d2d40       ?max_size@?$allocator@D@std@@QBEIXZ 0058bd40 f i platform:xml.obj
 0002:000d2db0       ??$_Debug_pointer@D@std@@YAXPBDPB_WI@Z 0058bdb0 f i platform:xml.obj
 0002:000d2e20       ??$?0D@?$allocator@U_Container_proxy@std@@@std@@QAE@ABV?$allocator@D@1@@Z 0058be20 f i platform:xml.obj
 0002:000d2e60       ??$_Cons_val@V?$allocator@U_Container_proxy@std@@@std@@U_Container_proxy@2@U32@@std@@YAXAAV?$allocator@U_Container_proxy@std@@@0@PAU_Container_proxy@0@$$QAU20@@Z 0058be60 f i platform:xml.obj
 0002:000d2ec0       ??$_Dest_val@V?$allocator@U_Container_proxy@std@@@std@@U_Container_proxy@2@@std@@YAXAAV?$allocator@U_Container_proxy@std@@@0@PAU_Container_proxy@0@@Z 0058bec0 f i platform:xml.obj
 0002:000d2f10       ??$_Allocate@U_Container_proxy@std@@@std@@YAPAU_Container_proxy@0@IPAU10@@Z 0058bf10 f i platform:xml.obj
 0002:000d2fc0       ??0bad_alloc@std@@QAE@PBD@Z 0058bfc0 f i platform:xml.obj
 0002:000d3080       ??1bad_alloc@std@@UAE@XZ   0058c080 f i platform:xml.obj
 0002:000d3130       ??_Ebad_alloc@std@@UAEPAXI@Z 0058c130 f i platform:xml.obj
 0002:000d3130       ??_Gbad_alloc@std@@UAEPAXI@Z 0058c130 f i platform:xml.obj
 0002:000d31a0       ??$_Allocate@D@std@@YAPADIPAD@Z 0058c1a0 f i platform:xml.obj
 0002:000d3250       ??0bad_alloc@std@@QAE@ABV01@@Z 0058c250 f i platform:xml.obj
 0002:000d3310       ?construct@?$allocator@U_Container_proxy@std@@@std@@QAEXPAU_Container_proxy@2@$$QAU32@@Z 0058c310 f i platform:xml.obj
 0002:000d3420       ??2@YAPAXIPAX@Z            0058c420 f i platform:xml.obj
 0002:000d3460       ??3@YAXPAX0@Z              0058c460 f i platform:xml.obj
 0002:000d3490       ?destroy@?$allocator@U_Container_proxy@std@@@std@@QAEXPAU_Container_proxy@2@@Z 0058c490 f i platform:xml.obj
 0002:000d34f0       ??$forward@U_Container_proxy@std@@@std@@YA$$QAU_Container_proxy@0@AAU10@@Z 0058c4f0 f i platform:xml.obj
 0002:000d3530       ??$_Destroy@U_Container_proxy@std@@@std@@YAXPAU_Container_proxy@0@@Z 0058c530 f i platform:xml.obj
 0002:000d3560       ??0String@@QAE@XZ          0058c560 f   platform:string.obj
 0002:000d35b0       ??1String@@QAE@XZ          0058c5b0 f   platform:string.obj
 0002:000d3670       ??0String@@QAE@PBD@Z       0058c670 f   platform:string.obj
 0002:000d36f0       ??0String@@QAE@PBDH@Z      0058c6f0 f   platform:string.obj
 0002:000d3770       ?createFromString@String@@AAEXPBD@Z 0058c770 f   platform:string.obj
 0002:000d37e0       ??0String@@QAE@ABV0@@Z     0058c7e0 f   platform:string.obj
 0002:000d3860       ?getChar@String@@QBEDH@Z   0058c860 f   platform:string.obj
 0002:000d3a40       ?equals@String@@QBE_NPBD@Z 0058ca40 f   platform:string.obj
 0002:000d3b10       ??YString@@QAEAAV0@PBD@Z   0058cb10 f   platform:string.obj
 0002:000d3bb0       ?append@String@@QAEAAV1@PBDH@Z 0058cbb0 f   platform:string.obj
 0002:000d3dd0       ?remove@String@@QAEXH@Z    0058cdd0 f   platform:string.obj
 0002:000d3e30       ?remove@String@@QAEXHH@Z   0058ce30 f   platform:string.obj
 0002:000d3f30       ??YString@@QAEAAV0@D@Z     0058cf30 f   platform:string.obj
 0002:000d3f90       ??YString@@QAEAAV0@H@Z     0058cf90 f   platform:string.obj
 0002:000d4070       ??YString@@QAEAAV0@M@Z     0058d070 f   platform:string.obj
 0002:000d4160       ??BString@@QBEPBDXZ        0058d160 f   platform:string.obj
 0002:000d41b0       ??4String@@QAEAAV0@PBD@Z   0058d1b0 f   platform:string.obj
 0002:000d4230       ??4String@@QAEAAV0@AAV0@@Z 0058d230 f   platform:string.obj
 0002:000d42c0       ?clear@String@@QAEXXZ      0058d2c0 f   platform:string.obj
 0002:000d4310       ?assign@String@@QAEAAV1@PBDH@Z 0058d310 f   platform:string.obj
 0002:000d43c0       ?append@String@@QAEAAV1@HD@Z 0058d3c0 f   platform:string.obj
 0002:000d4470       ?resize@String@@QAEXH@Z    0058d470 f   platform:string.obj
 0002:000d4500       ?getBuffer@String@@QAEPADXZ 0058d500 f   platform:string.obj
 0002:000d4540       ?size@String@@QBEHXZ       0058d540 f   platform:string.obj
 0002:000d45b0       ?length@String@@QBEHXZ     0058d5b0 f   platform:string.obj
 0002:000d4620       ?isEmpty@String@@QBE_NXZ   0058d620 f   platform:string.obj
 0002:000d4690       ?find@String@@QBEHPBD@Z    0058d690 f   platform:string.obj
 0002:000d4730       ?strstr@@YAPADPADPBD@Z     0058d730 f i platform:string.obj
 0002:000d4790       ?find@String@@QBEHHPBD@Z   0058d790 f   platform:string.obj
 0002:000d4850       ?findLastAny@String@@QBEHPBD@Z 0058d850 f   platform:string.obj
 0002:000d4940       ?strrchr@@YAPADPADH@Z      0058d940 f i platform:string.obj
 0002:000d49a0       ?toUpper@String@@QBE?AV1@XZ 0058d9a0 f   platform:string.obj
 0002:000d4ad0       ?toLower@String@@QBE?AV1@XZ 0058dad0 f   platform:string.obj
 0002:000d4c00       ?toHex@String@@SA?AV1@H@Z  0058dc00 f   platform:string.obj
 0002:000d4d20       ?findLast@String@@QBEHD@Z  0058dd20 f   platform:string.obj
 0002:000d4db0       ?getMid@String@@QBE?AV1@HH@Z 0058ddb0 f   platform:string.obj
 0002:000d4f70       ?getMid@String@@QBE?AV1@H@Z 0058df70 f   platform:string.obj
 0002:000d5120       ?split@String@@QBEHAAVStringList@@V1@@Z 0058e120 f   platform:string.obj
 0002:000d5300       ?parseStringLiteral@String@@SA?AV1@PBD@Z 0058e300 f   platform:string.obj
 0002:000d5890       ?startsFrom@String@@QBE_NPBD@Z 0058e890 f   platform:string.obj
 0002:000d5930       ?insert@String@@QAEXHPBD@Z 0058e930 f   platform:string.obj
 0002:000d5c20       ?trim@String@@QAEXXZ       0058ec20 f   platform:string.obj
 0002:000d5d40       ?toInteger@String@@QAEHXZ  0058ed40 f   platform:string.obj
 0002:000d61e0       ?trim@String@@QAEXD@Z      0058f1e0 f   platform:string.obj
 0002:000d6250       ?trimStarting@String@@QAEXD@Z 0058f250 f   platform:string.obj
 0002:000d6360       ?trimTrailing@String@@QAEXD@Z 0058f360 f   platform:string.obj
 0002:000d6470       ?replicate@String@@QBE?AV1@H@Z 0058f470 f   platform:string.obj
 0002:000d6830       ?replace@String@@QBE?AV1@PBD0@Z 0058f830 f   platform:string.obj
 0002:000d6a70       ??H@YA?AVString@@AAV0@PBD@Z 0058fa70 f   platform:string.obj
 0002:000d6b80       ??H@YA?AVString@@ABV0@H@Z  0058fb80 f   platform:string.obj
 0002:000d6ce0       ??H@YA?AVString@@ABV0@I@Z  0058fce0 f   platform:string.obj
 0002:000d6e40       ??H@YA?AVString@@ABV0@M@Z  0058fe40 f   platform:string.obj
 0002:000d6fb0       ??H@YA?AVString@@ABV0@N@Z  0058ffb0 f   platform:string.obj
 0002:000d7120       ??H@YA?AVString@@ABV0@PBD@Z 00590120 f   platform:string.obj
 0002:000d7230       ??H@YA?AVString@@ABV0@D@Z  00590230 f   platform:string.obj
 0002:000d7340       ??H@YA?AVString@@ABV0@_N@Z 00590340 f   platform:string.obj
 0002:000d7480       ?trimString@@YAXPADPBD@Z   00590480 f   platform:string.obj
 0002:000d75d0       ??0MessagingService@@IAE@XZ 005905d0 f   platform:messagingservice.obj
 0002:000d76c0       ?newService@MessagingService@@SAPAVService@@XZ 005906c0 f   platform:messagingservice.obj
 0002:000d77a0       ?configureService@MessagingService@@UAEXVXml@@@Z 005907a0 f   platform:messagingservice.obj
 0002:000d77f0       ?createService@MessagingService@@UAEXXZ 005907f0 f   platform:messagingservice.obj
 0002:000d7a10       ?initService@MessagingService@@UAEXXZ 00590a10 f   platform:messagingservice.obj
 0002:000d7a60       ?runService@MessagingService@@UAEXXZ 00590a60 f   platform:messagingservice.obj
 0002:000d7ab0       ?stopService@MessagingService@@UAEXXZ 00590ab0 f   platform:messagingservice.obj
 0002:000d7b00       ?exitService@MessagingService@@UAEXXZ 00590b00 f   platform:messagingservice.obj
 0002:000d7b50       ?destroyService@MessagingService@@UAEXXZ 00590b50 f   platform:messagingservice.obj
 0002:000d7be0       ?createSession@MessagingService@@QAEPAVMessageSession@@XZ 00590be0 f   platform:messagingservice.obj
 0002:000d7d30       ?closeSession@MessagingService@@QAEXPAVMessageSession@@@Z 00590d30 f   platform:messagingservice.obj
 0002:000d7e00       ??_GMessageSession@@QAEPAXI@Z 00590e00 f i platform:messagingservice.obj
 0002:000d7e70       ?checkChannelAvailable@MessagingService@@QAE_NVString@@@Z 00590e70 f   platform:messagingservice.obj
 0002:000d7f90       ?isOpened@MessageChannel@@QAE_NXZ 00590f90 f i platform:messagingservice.obj
 0002:000d7fd0       ?createPublisher@MessagingService@@QAEPAVMessagePublisher@@PAVMessageSession@@VString@@11@Z 00590fd0 f   platform:messagingservice.obj
 0002:000d83b0       ?subscribe@MessagingService@@QAEPAVMessageSubscription@@PAVMessageSession@@VString@@1PAVMessageSubscriber@@@Z 005913b0 f   platform:messagingservice.obj
 0002:000d8760       ?subscribeSelector@MessagingService@@QAEPAVMessageSubscription@@PAVMessageSession@@VString@@11PAVMessageSubscriber@@@Z 00591760 f   platform:messagingservice.obj
 0002:000d8b60       ?destroyPublisher@MessagingService@@QAE_NPAVMessagePublisher@@@Z 00591b60 f   platform:messagingservice.obj
 0002:000d8ee0       ??_GMessagePublisher@@QAEPAXI@Z 00591ee0 f i platform:messagingservice.obj
 0002:000d8f50       ?unsubscribe@MessagingService@@QAE_NPAVMessageSubscription@@@Z 00591f50 f   platform:messagingservice.obj
 0002:000d9270       ??_GMessageSubscription@@QAEPAXI@Z 00592270 f i platform:messagingservice.obj
 0002:000d92e0       ?createChannel@MessagingService@@AAEPAVMessageChannel@@VXml@@@Z 005922e0 f   platform:messagingservice.obj
 0002:000d97d0       ?getChannel@MessagingService@@AAEPAVMessageChannel@@VString@@@Z 005927d0 f   platform:messagingservice.obj
 0002:000d9ad0       ?lock@MessagingService@@AAEXXZ 00592ad0 f   platform:messagingservice.obj
 0002:000d9b30       ?unlock@MessagingService@@AAEXXZ 00592b30 f   platform:messagingservice.obj
 0002:000d9b90       ?openAllChannels@MessagingService@@AAEXXZ 00592b90 f   platform:messagingservice.obj
 0002:000d9c40       ?startAllChannels@MessagingService@@AAEXXZ 00592c40 f   platform:messagingservice.obj
 0002:000d9cf0       ?stopAllChannels@MessagingService@@AAEXXZ 00592cf0 f   platform:messagingservice.obj
 0002:000d9da0       ?closeAllChannels@MessagingService@@AAEXXZ 00592da0 f   platform:messagingservice.obj
 0002:000d9e50       ??0?$MapStringToClass@VMessageChannel@@@@QAE@XZ 00592e50 f i platform:messagingservice.obj
 0002:000d9eb0       ??1?$MapStringToClass@VMessageChannel@@@@QAE@XZ 00592eb0 f i platform:messagingservice.obj
 0002:000d9f10       ?add@?$MapStringToClass@VMessageChannel@@@@QAEHPBDPAVMessageChannel@@@Z 00592f10 f i platform:messagingservice.obj
 0002:000da120       ?get@?$MapStringToClass@VMessageChannel@@@@QAEPAVMessageChannel@@PBD@Z 00593120 f i platform:messagingservice.obj
 0002:000da1d0       ?count@?$MapStringToClass@VMessageChannel@@@@QAEHXZ 005931d0 f i platform:messagingservice.obj
 0002:000da230       ?destroy@?$MapStringToClass@VMessageChannel@@@@QAEXXZ 00593230 f i platform:messagingservice.obj
 0002:000da320       ?getClassByIndex@?$MapStringToClass@VMessageChannel@@@@QAEPAVMessageChannel@@H@Z 00593320 f i platform:messagingservice.obj
 0002:000da3e0       ??0?$MapIntToClass@VMessageSession@@@@QAE@XZ 005933e0 f i platform:messagingservice.obj
 0002:000da440       ??1?$MapIntToClass@VMessageSession@@@@QAE@XZ 00593440 f i platform:messagingservice.obj
 0002:000da4a0       ?add@?$MapIntToClass@VMessageSession@@@@QAEHHPAVMessageSession@@@Z 005934a0 f i platform:messagingservice.obj
 0002:000da680       ?removeByKey@?$MapIntToClass@VMessageSession@@@@QAEPAVMessageSession@@H@Z 00593680 f i platform:messagingservice.obj
 0002:000da6e0       ?destroy@?$MapIntToClass@VMessageSession@@@@QAEXXZ 005936e0 f i platform:messagingservice.obj
 0002:000da7d0       ??_GMessageChannel@@QAEPAXI@Z 005937d0 f i platform:messagingservice.obj
 0002:000da840       ?getServiceName@MessagingService@@UAEPBDXZ 00593840 f i platform:messagingservice.obj
 0002:000da880       ??0Logger@@QAE@XZ          00593880 f   platform:logger.obj
 0002:000da8d0       ??1Logger@@QAE@XZ          005938d0 f   platform:logger.obj
 0002:000da910       ?attachRoot@Logger@@QAEXXZ 00593910 f   platform:logger.obj
 0002:000da970       ?setLoggerName@Logger@@QAEXPBD@Z 00593970 f   platform:logger.obj
 0002:000da9c0       ?attachService@Logger@@QAEXPBD0@Z 005939c0 f   platform:logger.obj
 0002:000daa70       ?attachObjectInstance@Logger@@QAEXPBD00@Z 00593a70 f   platform:logger.obj
 0002:000dab60       ?attachObject@Logger@@QAEXPBD0@Z 00593b60 f   platform:logger.obj
 0002:000dac10       ?attachCustom@Logger@@QAEXPBD0@Z 00593c10 f   platform:logger.obj
 0002:000dacf0       ?printStack@Logger@@QAEXXZ 00593cf0 f   platform:logger.obj
 0002:000dad70       ?printStack@Logger@@QAEXPAU_rfc_threadstack@@H@Z 00593d70 f   platform:logger.obj
 0002:000dadd0       ?printStackInplace@Logger@@QAEXPAU_rfc_threadstack@@H@Z 00593dd0 f   platform:logger.obj
 0002:000dae30       ?printStackInternal@Logger@@QAEXPAU_rfc_threadstack@@H_N@Z 00593e30 f   platform:logger.obj
 0002:000db6f0       ?log@Logger@@QAEXPBDW4LogLevel@1@W4LogOutputMode@1@@Z 005946f0 f   platform:logger.obj
 0002:000db770       ?logInfo@Logger@@QAEXPBDW4LogOutputMode@1@@Z 00594770 f   platform:logger.obj
 0002:000db7f0       ?logError@Logger@@QAEXPBDW4LogOutputMode@1@@Z 005947f0 f   platform:logger.obj
 0002:000db870       ?logDebug@Logger@@QAEXPBDW4LogOutputMode@1@@Z 00594870 f   platform:logger.obj
 0002:000db8f0       ?disabled@Logger@@QAE_NW4LogLevel@1@@Z 005948f0 f   platform:logger.obj
 0002:000db950       ?logInternal@Logger@@AAEXPBDW4LogOutputMode@1@W4LogLevel@1@@Z 00594950 f   platform:logger.obj
 0002:000dbb60       ?isStarted@LogManager@@QAE_NXZ 00594b60 f i platform:logger.obj
 0002:000dbba0       ?getPostfix@Logger@@AAEPBDXZ 00594ba0 f   platform:logger.obj
 0002:000dbbf0       ?isLogAll@Logger@@QAE_NXZ  00594bf0 f   platform:logger.obj
 0002:000dbc70       ?getLogSettings@Logger@@QAE?AVXml@@XZ 00594c70 f   platform:logger.obj
 0002:000dbcf0       ?printStack@Logger@@QAEXAAVRuntimeException@@@Z 00594cf0 f   platform:logger.obj
 0002:000dc270       ??0XmlMessage@@QAE@PBD@Z   00595270 f   platform:xmlmessage.obj
 0002:000dc340       ??0XmlMessage@@QAE@VXml@@@Z 00595340 f   platform:xmlmessage.obj
 0002:000dc410       ??1XmlMessage@@UAE@XZ      00595410 f   platform:xmlmessage.obj
 0002:000dc4e0       ?getXml@XmlMessage@@QAE?AVXml@@XZ 005954e0 f   platform:xmlmessage.obj
 0002:000dc6c0       ?setXmlFromMessage@XmlMessage@@QAEXPBD@Z 005956c0 f   platform:xmlmessage.obj
 0002:000dc960       ?setMessageFromXml@XmlMessage@@QAEXXZ 00595960 f   platform:xmlmessage.obj
 0002:000dca40       ?setMessageType@Message@@QAEXPBD@Z 00595a40 f i platform:xmlmessage.obj
 0002:000dcaa0       ??0TextMessage@@IAE@W4MsgType@Message@@@Z 00595aa0 f i platform:xmlmessage.obj
 0002:000dcb60       ?getClass@TextMessage@@MAEPBDXZ 00595b60 f i platform:xmlmessage.obj
 0002:000dcba0       ?setText@TextMessage@@QAEXPBD@Z 00595ba0 f i platform:xmlmessage.obj
 0002:000dcc00       ?getText@TextMessage@@QAEABVString@@XZ 00595c00 f i platform:xmlmessage.obj
 0002:000dcc40       ??_ETextMessage@@UAEPAXI@Z 00595c40 f i platform:xmlmessage.obj
 0002:000dcc40       ??_GTextMessage@@UAEPAXI@Z 00595c40 f i platform:xmlmessage.obj
 0002:000dccb0       ??1TextMessage@@UAE@XZ     00595cb0 f i platform:xmlmessage.obj
 0002:000dcd60       ?getClass@XmlMessage@@UAEPBDXZ 00595d60 f i platform:xmlmessage.obj
 0002:000dcda0       ?postExecute@XmlMessage@@UAEXXZ 00595da0 f i platform:xmlmessage.obj
 0002:000dcde0       ??_EXmlMessage@@UAEPAXI@Z  00595de0 f i platform:xmlmessage.obj
 0002:000dcde0       ??_GXmlMessage@@UAEPAXI@Z  00595de0 f i platform:xmlmessage.obj
 0002:000dce50       ?configureDefault@ServiceManager@@QAE_NVString@@@Z 00595e50 f   platform:servicemanager.obj
 0002:000dd1d0       ?configureLifecycle@ServiceManager@@QAEXVXml@@@Z 005961d0 f   platform:servicemanager.obj
 0002:000dd210       ?configureLogging@ServiceManager@@QAEXVXml@@@Z 00596210 f   platform:servicemanager.obj
 0002:000dd270       ?setRootLogLevel@ServiceManager@@QAEXW4LogLevel@Logger@@@Z 00596270 f   platform:servicemanager.obj
 0002:000dd2d0       ?addService@ServiceManager@@QAEXPAVService@@@Z 005962d0 f   platform:servicemanager.obj
 0002:000dd330       ?findServiceByName@ServiceManager@@AAEPAVService@@VString@@@Z 00596330 f   platform:servicemanager.obj
 0002:000dd430       ?addPlatformService@ServiceManager@@AAEXPAVService@@@Z 00596430 f   platform:servicemanager.obj
 0002:000dd4a0       ?addPlatformServices@ServiceManager@@QAEXXZ 005964a0 f   platform:servicemanager.obj
 0002:000dd5a0       ?getService@ServiceManager@@QAEPAVService@@PBD@Z 005965a0 f   platform:servicemanager.obj
 0002:000dd8e0       ?getPlatformServices@ServiceManager@@QAEAAV?$ClassList@VService@@@@XZ 005968e0 f   platform:servicemanager.obj
 0002:000dd940       ?getOtherServices@ServiceManager@@QAEAAV?$ClassList@VService@@@@XZ 00596940 f   platform:servicemanager.obj
 0002:000dd9a0       ?getServices@ServiceManager@@QAEXAAV?$ClassList@VService@@@@@Z 005969a0 f   platform:servicemanager.obj
 0002:000dda30       ?waitRunDefault@ServiceManager@@QAEXXZ 00596a30 f   platform:servicemanager.obj
 0002:000ddc70       ?getLogDispatcher@ServiceManager@@QAEPAVLogDispatcher@@XZ 00596c70 f   platform:servicemanager.obj
 0002:000ddcb0       ?canStartThread@ServiceManager@@QAE_NXZ 00596cb0 f   platform:servicemanager.obj
 0002:000ddd10       ?isRunning@ServiceManager@@QAE_NXZ 00596d10 f   platform:servicemanager.obj
 0002:000dddb0       ?isCreated@ServiceManager@@QAE_NXZ 00596db0 f   platform:servicemanager.obj
 0002:000dde50       ??0ServiceManager@@QAE@XZ  00596e50 f   platform:servicemanager.obj
 0002:000de0f0       ??1ServiceManager@@QAE@XZ  005970f0 f   platform:servicemanager.obj
 0002:000de230       ??_GLogDispatcher@@QAEPAXI@Z 00597230 f i platform:servicemanager.obj
 0002:000de2a0       ?getInstance@ServiceManager@@SAAAV1@XZ 005972a0 f   platform:servicemanager.obj
 0002:000de2e0       ?logStart@ServiceManager@@AAEXVXml@@@Z 005972e0 f   platform:servicemanager.obj
 0002:000de570       ?logStop@ServiceManager@@AAEXXZ 00597570 f   platform:servicemanager.obj
 0002:000de5e0       ?execute@ServiceManager@@QAEXXZ 005975e0 f   platform:servicemanager.obj
 0002:000dea20       ?stop@ServiceManager@@QAEXXZ 00597a20 f   platform:servicemanager.obj
 0002:000dea80       ?add@?$ClassList@VService@@@@QAEXPAV1@@Z 00597a80 f i platform:servicemanager.obj
 0002:000deb60       ??0?$MapStringToClass@VService@@@@QAE@XZ 00597b60 f i platform:servicemanager.obj
 0002:000debc0       ??1?$MapStringToClass@VService@@@@QAE@XZ 00597bc0 f i platform:servicemanager.obj
 0002:000dec20       ?get@?$MapStringToClass@VService@@@@QAEPAVService@@PBD@Z 00597c20 f i platform:servicemanager.obj
 0002:000decd0       ?clear@?$MapStringToClass@VService@@@@QAEXXZ 00597cd0 f i platform:servicemanager.obj
 0002:000ded30       ?getServiceList@ServiceSet@@QAEAAV?$ClassList@VService@@@@XZ 00597d30 f i platform:servicemanager.obj
 0002:000ded70       ??0RuntimeException@@QAE@IHPAX@Z 00597d70 f   platform:runtimeexception.obj
 0002:000df3d0       ??0RuntimeException@@QAE@PBD0H@Z 005983d0 f   platform:runtimeexception.obj
 0002:000df610       ?printStackToString@RuntimeException@@QAE?AVString@@XZ 00598610 f   platform:runtimeexception.obj
 0002:000e01a0       ?getSkipCount@RuntimeException@@QAEHXZ 005991a0 f   platform:runtimeexception.obj
 0002:000e0330       ?isSEH@RuntimeException@@QAE_NXZ 00599330 f   platform:runtimeexception.obj
 0002:000e0370       ?getClassName@RuntimeException@@QAEPBDXZ 00599370 f   platform:runtimeexception.obj
 0002:000e03d0       ?getFunctionName@RuntimeException@@QAEPBDXZ 005993d0 f   platform:runtimeexception.obj
 0002:000e0430       ?getMsg@RuntimeException@@QAEPBDXZ 00599430 f   platform:runtimeexception.obj
 0002:000e0490       ?getFileShort@RuntimeException@@QAEPBDXZ 00599490 f   platform:runtimeexception.obj
 0002:000e04f0       ?getLine@RuntimeException@@QAEHXZ 005994f0 f   platform:runtimeexception.obj
 0002:000e0530       ?getStack@RuntimeException@@QAEPAU_rfc_threadstack@@XZ 00599530 f   platform:runtimeexception.obj
 0002:000e0570       ?newService@EnvService@@SAPAVService@@XZ 00599570 f   platform:envservice.obj
 0002:000e0650       ?destroyService@EnvService@@UAEXXZ 00599650 f   platform:envservice.obj
 0002:000e06b0       ?setConfigurationPath@EnvService@@QAEXVString@@@Z 005996b0 f   platform:envservice.obj
 0002:000e0760       ?getConfigurationPath@EnvService@@QAE?AVString@@V2@@Z 00599760 f   platform:envservice.obj
 0002:000e0890       ?configureAll@EnvService@@QAEXVString@@@Z 00599890 f   platform:envservice.obj
 0002:000e0a20       ?configurePlatform@EnvService@@QAEXXZ 00599a20 f   platform:envservice.obj
 0002:000e0fa0       ?configureServices@EnvService@@QAEXXZ 00599fa0 f   platform:envservice.obj
 0002:000e1500       ?loadXml@EnvService@@QAE?AVXml@@VString@@@Z 0059a500 f   platform:envservice.obj
 0002:000e1ab0       ?getXml@EnvXmlDoc@@QAE?AVXml@@XZ 0059aab0 f i platform:envservice.obj
 0002:000e1b00       ??_GEnvXmlDoc@@QAEPAXI@Z   0059ab00 f i platform:envservice.obj
 0002:000e1b70       ?getConfigurationData@EnvService@@AAE?AVXml@@V2@VString@@1@Z 0059ab70 f   platform:envservice.obj
 0002:000e23b0       ??0?$ClassList@VService@@@@QAE@XZ 0059b3b0 f i platform:envservice.obj
 0002:000e2410       ??1?$ClassList@VService@@@@QAE@XZ 0059b410 f i platform:envservice.obj
 0002:000e2470       ?count@?$ClassList@VService@@@@QBEHXZ 0059b470 f i platform:envservice.obj
 0002:000e24d0       ?get@?$ClassList@VService@@@@QBEPAVService@@H@Z 0059b4d0 f i platform:envservice.obj
 0002:000e2530       ?add@?$MapStringToClass@VEnvXmlDoc@@@@QAEHPBDPAVEnvXmlDoc@@@Z 0059b530 f i platform:envservice.obj
 0002:000e2740       ?get@?$MapStringToClass@VEnvXmlDoc@@@@QAEPAVEnvXmlDoc@@PBD@Z 0059b740 f i platform:envservice.obj
 0002:000e27f0       ?remove@?$MapStringToClass@VEnvXmlDoc@@@@QAEPAVEnvXmlDoc@@PBD@Z 0059b7f0 f i platform:envservice.obj
 0002:000e2850       ?destroy@?$MapStringToClass@VEnvXmlDoc@@@@QAEXXZ 0059b850 f i platform:envservice.obj
 0002:000e2940       ??0EnvService@@IAE@XZ      0059b940 f i platform:envservice.obj
 0002:000e2a20       ?getServiceName@EnvService@@UAEPBDXZ 0059ba20 f i platform:envservice.obj
 0002:000e2a60       ?configureService@EnvService@@UAEXVXml@@@Z 0059ba60 f i platform:envservice.obj
 0002:000e2aa0       ?createService@EnvService@@UAEXXZ 0059baa0 f i platform:envservice.obj
 0002:000e2ae0       ?initService@EnvService@@UAEXXZ 0059bae0 f i platform:envservice.obj
 0002:000e2b20       ?runService@EnvService@@UAEXXZ 0059bb20 f i platform:envservice.obj
 0002:000e2b60       ?stopService@EnvService@@UAEXXZ 0059bb60 f i platform:envservice.obj
 0002:000e2ba0       ?exitService@EnvService@@UAEXXZ 0059bba0 f i platform:envservice.obj
 0002:000e2be0       ??0?$MapStringToClass@VEnvXmlDoc@@@@QAE@XZ 0059bbe0 f i platform:envservice.obj
 0002:000e2c40       ??1?$MapStringToClass@VEnvXmlDoc@@@@QAE@XZ 0059bc40 f i platform:envservice.obj
 0002:000e2ca0       ??0Timer@@QAE@XZ           0059bca0 f   platform:timer.obj
 0002:000e2d20       ?createWithStartingTimestamp@Timer@@QAEXXZ 0059bd20 f   platform:timer.obj
 0002:000e2d90       ?createRunWindowMs@Timer@@QAEXH@Z 0059bd90 f   platform:timer.obj
 0002:000e2e00       ?createRunWindowSec@Timer@@QAEXH@Z 0059be00 f   platform:timer.obj
 0002:000e2e80       ?clockSinceProcessStartMs@Timer@@SAHXZ 0059be80 f   platform:timer.obj
 0002:000e2ef0       ?getCurrentTimeMillis@Timer@@SA_JXZ 0059bef0 f   platform:timer.obj
 0002:000e2fa0       ?timeCreatedMs@Timer@@QAEHXZ 0059bfa0 f   platform:timer.obj
 0002:000e2ff0       ?startAdjustment@Timer@@SAXXZ 0059bff0 f   platform:timer.obj
 0002:000e3040       ?stopAdjustment@Timer@@SAXXZ 0059c040 f   platform:timer.obj
 0002:000e3090       ?timePassedMs@Timer@@QAEHXZ 0059c090 f   platform:timer.obj
 0002:000e3110       ?timePassedClocks@Timer@@QAEHXZ 0059c110 f   platform:timer.obj
 0002:000e3170       ?timePassedTicks@Timer@@QAEHXZ 0059c170 f   platform:timer.obj
 0002:000e31d0       ?timeClocksToMs@Timer@@SAHH@Z 0059c1d0 f   platform:timer.obj
 0002:000e3220       ?timeMsToClocks@Timer@@SAHH@Z 0059c220 f   platform:timer.obj
 0002:000e3270       ?timeRemainedSec@Timer@@QAEHXZ 0059c270 f   platform:timer.obj
 0002:000e32e0       ?go@Timer@@QAE_NXZ         0059c2e0 f   platform:timer.obj
 0002:000e3340       ?timeTicksToMs@Timer@@SAHH@Z 0059c340 f   platform:timer.obj
 0002:000e3390       ?timeMsToTicks@Timer@@SAHH@Z 0059c390 f   platform:timer.obj
 0002:000e33e0       ?waitNext@Timer@@QAEHXZ    0059c3e0 f   platform:timer.obj
 0002:000e3470       _sortFlatList              0059c470 f   platform:templates.obj
 0002:000e34e0       ??0Message@@QAE@W4MsgType@0@@Z 0059c4e0 f   platform:message.obj
 0002:000e3610       ??_EMessage@@UAEPAXI@Z     0059c610 f i platform:message.obj
 0002:000e3610       ??_GMessage@@UAEPAXI@Z     0059c610 f i platform:message.obj
 0002:000e3680       ??1Message@@UAE@XZ         0059c680 f   platform:message.obj
 0002:000e3790       ?toXmlCall@Message@@QAEAAVXmlCall@@XZ 0059c790 f   platform:message.obj
 0002:000e37d0       ?getProperty@Message@@QAE?AVString@@V2@@Z 0059c7d0 f   platform:message.obj
 0002:000e38b0       ?setProperty@Message@@QAEXVString@@0@Z 0059c8b0 f   platform:message.obj
 0002:000e3980       ?set@MapStringToString@@QAEXPBD0@Z 0059c980 f i platform:message.obj
 0002:000e3c40       ?on_exit@@YAXPAURFC_THREADDATA@@H@Z 0059cc40 f   platform:threadservice.obj
 0002:000e3ca0       ??0ThreadService@@IAE@XZ   0059cca0 f   platform:threadservice.obj
 0002:000e3db0       ?newService@ThreadService@@SAPAVService@@XZ 0059cdb0 f   platform:threadservice.obj
 0002:000e3e90       ?createService@ThreadService@@MAEXXZ 0059ce90 f   platform:threadservice.obj
 0002:000e3f30       ?stopService@ThreadService@@MAEXXZ 0059cf30 f   platform:threadservice.obj
 0002:000e3fd0       ?exitService@ThreadService@@MAEXXZ 0059cfd0 f   platform:threadservice.obj
 0002:000e4190       ?destroyService@ThreadService@@MAEXXZ 0059d190 f   platform:threadservice.obj
 0002:000e4210       ?addMainThread@ThreadService@@QAEXXZ 0059d210 f   platform:threadservice.obj
 0002:000e4350       ?getThreadId@ThreadService@@QAEHXZ 0059d350 f   platform:threadservice.obj
 0002:000e43c0       ?getThreadHandle@ThreadService@@QAEPAXXZ 0059d3c0 f   platform:threadservice.obj
 0002:000e4430       ?threadFunction@ThreadService@@QAEIPAVThreadData@@@Z 0059d430 f   platform:threadservice.obj
 0002:000e4700       ?runThread@ThreadService@@QAEPAXVString@@PAVObject@@P83@AEXPAX@Z2@Z 0059d700 f   platform:threadservice.obj
 0002:000e4c40       ?workerCreated@ThreadService@@AAEXXZ 0059dc40 f   platform:threadservice.obj
 0002:000e4cc0       ?workerStarted@ThreadService@@AAEXPAVThreadData@@@Z 0059dcc0 f   platform:threadservice.obj
 0002:000e51c0       ?workerExited@ThreadService@@AAEXPAVThreadData@@H@Z 0059e1c0 f   platform:threadservice.obj
 0002:000e5650       ??_GThreadData@@QAEPAXI@Z  0059e650 f i platform:threadservice.obj
 0002:000e56c0       ?workerExited@ThreadService@@AAEXH@Z 0059e6c0 f   platform:threadservice.obj
 0002:000e5730       ?waitThreadExited@ThreadService@@QAE_NPAX@Z 0059e730 f   platform:threadservice.obj
 0002:000e57f0       ?getActiveThreads@ThreadService@@AAE?AVString@@XZ 0059e7f0 f   platform:threadservice.obj
 0002:000e59c0       ?addThreadObject@ThreadService@@QAEXPBDPAVThreadObject@@@Z 0059e9c0 f   platform:threadservice.obj
 0002:000e5f60       ?getThreadData@ThreadService@@AAEPAVThreadData@@XZ 0059ef60 f   platform:threadservice.obj
 0002:000e5fd0       ?getThreadObject@ThreadService@@QAEPAVThreadObject@@PBD@Z 0059efd0 f   platform:threadservice.obj
 0002:000e6050       ?threadDumpAll@ThreadService@@QAEX_N@Z 0059f050 f   platform:threadservice.obj
 0002:000e6570       ?threadDumpByName@ThreadService@@QAEXVString@@_N@Z 0059f570 f   platform:threadservice.obj
 0002:000e6a60       ?printThreadStackTrace@ThreadService@@AAEXPAVThreadData@@@Z 0059fa60 f   platform:threadservice.obj
 0002:000e6b30       ?stopServicesBySignal@ThreadService@@QAEXH@Z 0059fb30 f   platform:threadservice.obj
 0002:000e6cc0       ?waitExitSignal@ThreadService@@QAEXXZ 0059fcc0 f   platform:threadservice.obj
 0002:000e6d50       ?waitAllThreads@ThreadService@@QAEXXZ 0059fd50 f   platform:threadservice.obj
 0002:000e6fd0       ?createThreadPool@ThreadService@@QAEXVString@@VXml@@AAV?$ClassList@VThreadPoolTask@@@@@Z 0059ffd0 f   platform:threadservice.obj
 0002:000e70e0       ?createThreadPool@ThreadService@@QAEXVString@@VXml@@AAV?$ResourcePool@VThreadPoolTask@@@@@Z 005a00e0 f   platform:threadservice.obj
 0002:000e71f0       ?createThreadPool@ThreadService@@AAEPAVThreadPool@@VString@@VXml@@@Z 005a01f0 f   platform:threadservice.obj
 0002:000e75a0       ?startThreadPool@ThreadService@@QAEXVString@@@Z 005a05a0 f   platform:threadservice.obj
 0002:000e7870       ?stopThreadPool@ThreadService@@QAEXVString@@@Z 005a0870 f   platform:threadservice.obj
 0002:000e7b40       ?suspendThreadPool@ThreadService@@QAEXVString@@@Z 005a0b40 f   platform:threadservice.obj
 0002:000e7e10       ?resumeThreadPool@ThreadService@@QAEXVString@@@Z 005a0e10 f   platform:threadservice.obj
 0002:000e80e0       ?destroyThreadPool@ThreadService@@AAEXVString@@@Z 005a10e0 f   platform:threadservice.obj
 0002:000e82d0       ??_GThreadPool@@QAEPAXI@Z  005a12d0 f i platform:threadservice.obj
 0002:000e8340       ?threadSleepMs@ThreadService@@QAEXH@Z 005a1340 f   platform:threadservice.obj
 0002:000e84e0       ?threadSleepInterrupt@ThreadService@@QAEXPAVThreadData@@@Z 005a14e0 f   platform:threadservice.obj
 0002:000e8540       ?threadSleepInterruptAll@ThreadService@@QAEXXZ 005a1540 f   platform:threadservice.obj
 0002:000e8600       ??0?$MapStringToClass@VThreadData@@@@QAE@XZ 005a1600 f i platform:threadservice.obj
 0002:000e8660       ??1?$MapStringToClass@VThreadData@@@@QAE@XZ 005a1660 f i platform:threadservice.obj
 0002:000e86c0       ?add@?$MapStringToClass@VThreadData@@@@QAEHPBDPAVThreadData@@@Z 005a16c0 f i platform:threadservice.obj
 0002:000e88d0       ?get@?$MapStringToClass@VThreadData@@@@QAEPAVThreadData@@PBD@Z 005a18d0 f i platform:threadservice.obj
 0002:000e8980       ?remove@?$MapStringToClass@VThreadData@@@@QAEPAVThreadData@@PBD@Z 005a1980 f i platform:threadservice.obj
 0002:000e89e0       ?count@?$MapStringToClass@VThreadData@@@@QAEHXZ 005a19e0 f i platform:threadservice.obj
 0002:000e8a40       ?getClassByIndex@?$MapStringToClass@VThreadData@@@@QAEPAVThreadData@@H@Z 005a1a40 f i platform:threadservice.obj
 0002:000e8b00       ??0?$MapStringToClass@VThreadPool@@@@QAE@XZ 005a1b00 f i platform:threadservice.obj
 0002:000e8b60       ??1?$MapStringToClass@VThreadPool@@@@QAE@XZ 005a1b60 f i platform:threadservice.obj
 0002:000e8bc0       ?add@?$MapStringToClass@VThreadPool@@@@QAEHPBDPAVThreadPool@@@Z 005a1bc0 f i platform:threadservice.obj
 0002:000e8dd0       ?get@?$MapStringToClass@VThreadPool@@@@QAEPAVThreadPool@@PBD@Z 005a1dd0 f i platform:threadservice.obj
 0002:000e8e80       ?remove@?$MapStringToClass@VThreadPool@@@@QAEPAVThreadPool@@PBD@Z 005a1e80 f i platform:threadservice.obj
 0002:000e8ee0       ?count@?$MapStringToClass@VThreadPool@@@@QAEHXZ 005a1ee0 f i platform:threadservice.obj
 0002:000e8f40       ?destroy@?$MapStringToClass@VThreadPool@@@@QAEXXZ 005a1f40 f i platform:threadservice.obj
 0002:000e9030       ?getClassByIndex@?$MapStringToClass@VThreadPool@@@@QAEPAVThreadPool@@H@Z 005a2030 f i platform:threadservice.obj
 0002:000e90f0       ?getKeyByIndex@?$MapStringToClass@VThreadPool@@@@QAEPBDH@Z 005a20f0 f i platform:threadservice.obj
 0002:000e91a0       ?add@?$MapStringToClass@VThreadObject@@@@QAEHPBDPAVThreadObject@@@Z 005a21a0 f i platform:threadservice.obj
 0002:000e93b0       ?get@?$MapStringToClass@VThreadObject@@@@QAEPAVThreadObject@@PBD@Z 005a23b0 f i platform:threadservice.obj
 0002:000e9460       ?destroy@?$MapStringToClass@VThreadObject@@@@QAEXXZ 005a2460 f i platform:threadservice.obj
 0002:000e9570       ?getLogger@Object@@QAEAAVLogger@@XZ 005a2570 f i platform:threadservice.obj
 0002:000e95b0       ?getServiceName@ThreadService@@MAEPBDXZ 005a25b0 f i platform:threadservice.obj
 0002:000e95f0       ?configureService@ThreadService@@MAEXVXml@@@Z 005a25f0 f i platform:threadservice.obj
 0002:000e9630       ?initService@ThreadService@@MAEXXZ 005a2630 f i platform:threadservice.obj
 0002:000e9670       ?runService@ThreadService@@MAEXXZ 005a2670 f i platform:threadservice.obj
 0002:000e96b0       ??0StatService@@IAE@XZ     005a26b0 f   platform:statservice.obj
 0002:000e9790       ?newService@StatService@@SAPAVService@@XZ 005a2790 f   platform:statservice.obj
 0002:000e9870       ?configureService@StatService@@UAEXVXml@@@Z 005a2870 f   platform:statservice.obj
 0002:000e98c0       ?addMetricValue@StatService@@QAEXPBDH@Z 005a28c0 f   platform:statservice.obj
 0002:000e9b90       ?createService@StatService@@UAEXXZ 005a2b90 f   platform:statservice.obj
 0002:000ea590       ?initService@StatService@@UAEXXZ 005a3590 f   platform:statservice.obj
 0002:000ea630       ?runService@StatService@@UAEXXZ 005a3630 f   platform:statservice.obj
 0002:000ea6e0       ?stopService@StatService@@UAEXXZ 005a36e0 f   platform:statservice.obj
 0002:000ea790       ?exitService@StatService@@UAEXXZ 005a3790 f   platform:statservice.obj
 0002:000ea7d0       ?destroyService@StatService@@UAEXXZ 005a37d0 f   platform:statservice.obj
 0002:000ea830       ?getMetricByName@StatService@@QAEPAVStatMetric@@VString@@@Z 005a3830 f   platform:statservice.obj
 0002:000eab10       ?getLogTaskByName@StatService@@QAEPAVStatLogTask@@VString@@@Z 005a3b10 f   platform:statservice.obj
 0002:000eadf0       ??0?$MapStringToClass@VStatMetric@@@@QAE@XZ 005a3df0 f i platform:statservice.obj
 0002:000eae50       ??1?$MapStringToClass@VStatMetric@@@@QAE@XZ 005a3e50 f i platform:statservice.obj
 0002:000eaeb0       ?add@?$MapStringToClass@VStatMetric@@@@QAEHPBDPAVStatMetric@@@Z 005a3eb0 f i platform:statservice.obj
 0002:000eb0c0       ?get@?$MapStringToClass@VStatMetric@@@@QAEPAVStatMetric@@PBD@Z 005a40c0 f i platform:statservice.obj
 0002:000eb170       ?destroy@?$MapStringToClass@VStatMetric@@@@QAEXXZ 005a4170 f i platform:statservice.obj
 0002:000eb260       ??0?$MapStringToClass@VStatLogTask@@@@QAE@XZ 005a4260 f i platform:statservice.obj
 0002:000eb2c0       ??1?$MapStringToClass@VStatLogTask@@@@QAE@XZ 005a42c0 f i platform:statservice.obj
 0002:000eb320       ?add@?$MapStringToClass@VStatLogTask@@@@QAEHPBDPAVStatLogTask@@@Z 005a4320 f i platform:statservice.obj
 0002:000eb530       ?get@?$MapStringToClass@VStatLogTask@@@@QAEPAVStatLogTask@@PBD@Z 005a4530 f i platform:statservice.obj
 0002:000eb5e0       ?count@?$MapStringToClass@VStatLogTask@@@@QAEHXZ 005a45e0 f i platform:statservice.obj
 0002:000eb640       ?destroy@?$MapStringToClass@VStatLogTask@@@@QAEXXZ 005a4640 f i platform:statservice.obj
 0002:000eb730       ?getClassByIndex@?$MapStringToClass@VStatLogTask@@@@QAEPAVStatLogTask@@H@Z 005a4730 f i platform:statservice.obj
 0002:000eb7f0       ??_GStatMetric@@QAEPAXI@Z  005a47f0 f i platform:statservice.obj
 0002:000eb860       ??_GStatLogTask@@QAEPAXI@Z 005a4860 f i platform:statservice.obj
 0002:000eb8d0       ?getServiceName@StatService@@UAEPBDXZ 005a48d0 f i platform:statservice.obj
 0002:000eb910       ??0MessagePublisher@@QAE@PAVMessageSession@@PAVMessageChannel@@VString@@2@Z 005a4910 f   platform:messagepublisher.obj
 0002:000eba20       ??1MessagePublisher@@QAE@XZ 005a4a20 f   platform:messagepublisher.obj
 0002:000ebad0       ?getChannel@MessagePublisher@@QAEPAVMessageChannel@@XZ 005a4ad0 f   platform:messagepublisher.obj
 0002:000ebb10       ?getMsgType@MessagePublisher@@QAEABVString@@XZ 005a4b10 f   platform:messagepublisher.obj
 0002:000ebb50       ?publish@MessagePublisher@@QAE?AVString@@PAVMessageSession@@PBD@Z 005a4b50 f   platform:messagepublisher.obj
 0002:000ebd60       ?publish@MessagePublisher@@QAE?AVString@@PAVMessageSession@@PAVMessage@@@Z 005a4d60 f   platform:messagepublisher.obj
 0002:000ebf70       ?disconnected@MessagePublisher@@QAEXXZ 005a4f70 f   platform:messagepublisher.obj
 0002:000ebfc0       ?createTextMessage@MessagePublisher@@QAEPAVTextMessage@@XZ 005a4fc0 f   platform:messagepublisher.obj
 0002:000ec0d0       ?createTextMessage@MessagePublisher@@QAEPAVTextMessage@@PBD@Z 005a50d0 f   platform:messagepublisher.obj
 0002:000ec1f0       ?getChannelName@MessagePublisher@@QAE?AVString@@XZ 005a51f0 f   platform:messagepublisher.obj
 0002:000ec2b0       ??0TextMessage@@QAE@XZ     005a52b0 f i platform:messagepublisher.obj
 0002:000ec370       ??0SerializeObject@@QAE@XZ 005a5370 f   platform:serializeobject.obj
 0002:000ec470       ?init@SerializeObject@@AAEXXZ 005a5470 f   platform:serializeobject.obj
 0002:000ec4f0       ??0SerializeObject@@QAE@PAVObject@@@Z 005a54f0 f   platform:serializeobject.obj
 0002:000ec630       ??0SerializeObject@@QAE@PBD@Z 005a5630 f   platform:serializeobject.obj
 0002:000ec770       ??1SerializeObject@@QAE@XZ 005a5770 f   platform:serializeobject.obj
 0002:000ec890       ?ref@SerializeObject@@QAEXXZ 005a5890 f   platform:serializeobject.obj
 0002:000ec8e0       ?deref@SerializeObject@@QAEXXZ 005a58e0 f   platform:serializeobject.obj
 0002:000ec9a0       ??_GSerializeObject@@QAEPAXI@Z 005a59a0 f i platform:serializeobject.obj
 0002:000eca10       ?addFieldBool@SerializeObject@@QAEPAVObjectField@@PBDH@Z 005a5a10 f   platform:serializeobject.obj
 0002:000eca70       ?addFieldChar@SerializeObject@@QAEPAVObjectField@@PBDH@Z 005a5a70 f   platform:serializeobject.obj
 0002:000ecad0       ?addFieldInt@SerializeObject@@QAEPAVObjectField@@PBDH@Z 005a5ad0 f   platform:serializeobject.obj
 0002:000ecb30       ?addFieldIntList@SerializeObject@@QAEPAVObjectField@@PBDH@Z 005a5b30 f   platform:serializeobject.obj
 0002:000ecb90       ?addFieldFloat@SerializeObject@@QAEPAVObjectField@@PBDH@Z 005a5b90 f   platform:serializeobject.obj
 0002:000ecbf0       ?addFieldFloatList@SerializeObject@@QAEPAVObjectField@@PBDH@Z 005a5bf0 f   platform:serializeobject.obj
 0002:000ecc50       ?addFieldString@SerializeObject@@QAEPAVObjectField@@PBDH@Z 005a5c50 f   platform:serializeobject.obj
 0002:000eccb0       ?addFieldStringList@SerializeObject@@QAEPAVObjectField@@PBDH@Z 005a5cb0 f   platform:serializeobject.obj
 0002:000ecd10       ?addField@SerializeObject@@AAEPAVObjectField@@HPBDD@Z 005a5d10 f   platform:serializeobject.obj
 0002:000ece50       ?addFieldList@SerializeObject@@AAEPAVObjectField@@HPBDD@Z 005a5e50 f   platform:serializeobject.obj
 0002:000ecf90       ?addFieldObject@SerializeObject@@QAEPAVObjectField@@PBDPAV1@H@Z 005a5f90 f   platform:serializeobject.obj
 0002:000ed0d0       ?addFieldObjectList@SerializeObject@@QAEPAVObjectField@@PBDPAV1@H@Z 005a60d0 f   platform:serializeobject.obj
 0002:000ed210       ?addField@SerializeObject@@AAEPAVObjectField@@PAV2@HPBD@Z 005a6210 f   platform:serializeobject.obj
 0002:000ed4d0       ?getFieldById@SerializeObject@@QAEPAVObjectField@@H@Z 005a64d0 f   platform:serializeobject.obj
 0002:000ed580       ?getFieldById@SerializeObject@@QAEPAVObjectField@@HPAV1@@Z 005a6580 f   platform:serializeobject.obj
 0002:000ed710       ?getFieldByName@SerializeObject@@QAEPAVObjectField@@PBD@Z 005a6710 f   platform:serializeobject.obj
 0002:000ed7c0       ?getPropBool@SerializeObject@@QAE_NPBD@Z 005a67c0 f   platform:serializeobject.obj
 0002:000ed960       ?getPropChar@SerializeObject@@QAEDPBD@Z 005a6960 f   platform:serializeobject.obj
 0002:000edaf0       ?getPropInt@SerializeObject@@QAEHPBD@Z 005a6af0 f   platform:serializeobject.obj
 0002:000edc80       ?getPropIntList@SerializeObject@@QAEPAHPBDPAH_N@Z 005a6c80 f   platform:serializeobject.obj
 0002:000ede10       ?getPropString@SerializeObject@@QAEPBDPBD_N@Z 005a6e10 f   platform:serializeobject.obj
 0002:000edfa0       ?getPropStringList@SerializeObject@@QAEPAPBDPBDPAH_N@Z 005a6fa0 f   platform:serializeobject.obj
 0002:000ee130       ?getPropFloat@SerializeObject@@QAEMPBD@Z 005a7130 f   platform:serializeobject.obj
 0002:000ee2c0       ?getPropFloatList@SerializeObject@@QAEPAMPBDPAH_N@Z 005a72c0 f   platform:serializeobject.obj
 0002:000ee450       ?getPropFloatList@SerializeObject@@QAEXAAV?$FlatList@M@@PBD_N@Z 005a7450 f   platform:serializeobject.obj
 0002:000ee660       ?getPropObjectList@SerializeObject@@QAEPBV?$FlatList@PAVObject@@@@PBD@Z 005a7660 f   platform:serializeobject.obj
 0002:000ee7f0       ?getPropObject@SerializeObject@@QAEPAVObject@@PBD_N@Z 005a77f0 f   platform:serializeobject.obj
 0002:000ee980       ?setPropBool@SerializeObject@@QAEX_NPBD@Z 005a7980 f   platform:serializeobject.obj
 0002:000eeb20       ?setPropChar@SerializeObject@@QAEXDPBD@Z 005a7b20 f   platform:serializeobject.obj
 0002:000eecb0       ?setPropInt@SerializeObject@@QAEXHPBD@Z 005a7cb0 f   platform:serializeobject.obj
 0002:000eee40       ?setPropIntList@SerializeObject@@QAEXPAHHPBD_N@Z 005a7e40 f   platform:serializeobject.obj
 0002:000eefe0       ?setPropIntList@SerializeObject@@QAEXAAV?$FlatList@H@@PBD@Z 005a7fe0 f   platform:serializeobject.obj
 0002:000ef050       ?setPropIntListFromStructList@SerializeObject@@QAEXPAXHHHPBD@Z 005a8050 f   platform:serializeobject.obj
 0002:000ef140       ?setPropIntListFromStructPtrList@SerializeObject@@QAEXPAPAXHHHPBD@Z 005a8140 f   platform:serializeobject.obj
 0002:000ef230       ?setPropString@SerializeObject@@QAEXPBD0_N@Z 005a8230 f   platform:serializeobject.obj
 0002:000ef3c0       ?setPropStringList@SerializeObject@@QAEXPAPBDHPBD_N@Z 005a83c0 f   platform:serializeobject.obj
 0002:000ef560       ?setPropFloat@SerializeObject@@QAEXMPBD@Z 005a8560 f   platform:serializeobject.obj
 0002:000ef6f0       ?setPropFloatList@SerializeObject@@QAEXPAMHPBD_N@Z 005a86f0 f   platform:serializeobject.obj
 0002:000ef890       ?setPropFloatList@SerializeObject@@QAEXAAV?$FlatList@M@@PBD@Z 005a8890 f   platform:serializeobject.obj
 0002:000ef900       ?setPropFloatListFromStructList@SerializeObject@@QAEXPAXHHHPBD@Z 005a8900 f   platform:serializeobject.obj
 0002:000ef9f0       ?setPropFloatListFromStructPtrList@SerializeObject@@QAEXPAPAXHHHPBD@Z 005a89f0 f   platform:serializeobject.obj
 0002:000efae0       ?setPropObject@SerializeObject@@QAEXPAVObject@@PBD_N@Z 005a8ae0 f   platform:serializeobject.obj
 0002:000efc70       ?setPropObject@SerializeObject@@QAEXAAVObject@@PBD@Z 005a8c70 f   platform:serializeobject.obj
 0002:000efcd0       ?setPropObjectList@SerializeObject@@QAEXAAV?$ClassList@VObject@@@@PBD_N@Z 005a8cd0 f   platform:serializeobject.obj
 0002:000efe60       ?getPropObjectList@SerializeObject@@QAEXAAV?$ClassList@VObject@@@@PBD_N@Z 005a8e60 f   platform:serializeobject.obj
 0002:000f01c0       ?addFieldFloatTwoIndexArray@SerializeObject@@QAEPAVObjectField@@PBDH@Z 005a91c0 f   platform:serializeobject.obj
 0002:000f03f0       ?setPropFloatTwoIndexArray@SerializeObject@@QAEXPAV?$TwoIndexArray@M@@PBD@Z 005a93f0 f   platform:serializeobject.obj
 0002:000f0910       ?getPropFloatTwoIndexArray@SerializeObject@@QAEPAV?$TwoIndexArray@M@@PBD@Z 005a9910 f   platform:serializeobject.obj
 0002:000f0fc0       ?getDataStringNameToValue@SerializeObject@@QAE?AVString@@XZ 005a9fc0 f   platform:serializeobject.obj
 0002:000f10e0       ?getDataStringIdToValue@SerializeObject@@QAE?AVString@@XZ 005aa0e0 f   platform:serializeobject.obj
 0002:000f1200       ?fillMapString@SerializeObject@@AAEXAAVString@@_NH@Z 005aa200 f   platform:serializeobject.obj
 0002:000f1ae0       ?addInt@SerializeObject@@AAEXAAVString@@H@Z 005aaae0 f   platform:serializeobject.obj
 0002:000f1bb0       ?addFloat@SerializeObject@@AAEXAAVString@@M@Z 005aabb0 f   platform:serializeobject.obj
 0002:000f1cd0       ?readFromString@SerializeObject@@SAPBDPBDPAV1@1PAPAVObject@@@Z 005aacd0 f   platform:serializeobject.obj
 0002:000f29f0       ?setFieldData@SerializeObject@@AAEXPAVObjectField@@PAXH@Z 005ab9f0 f   platform:serializeobject.obj
 0002:000f2c30       ?skipListDelimiter@SerializeObject@@CAPBDPBDPA_N@Z 005abc30 f   platform:serializeobject.obj
 0002:000f2d40       ?skipSpaces@SerializeObject@@CAPBDPBD@Z 005abd40 f   platform:serializeobject.obj
 0002:000f2db0       ?skipFieldData@SerializeObject@@CAPBDPBD@Z 005abdb0 f   platform:serializeobject.obj
 0002:000f2f00       ?readString@SerializeObject@@CAPBDPBD_NPAPADPAD@Z 005abf00 f   platform:serializeobject.obj
 0002:000f3190       ?skipString@SerializeObject@@CAPBDPBD@Z 005ac190 f   platform:serializeobject.obj
 0002:000f33b0       ?skipBlock@SerializeObject@@CAPBDPBD@Z 005ac3b0 f   platform:serializeobject.obj
 0002:000f35e0       ?readFieldData@SerializeObject@@AAEPBDPAVObject@@PBDPAVObjectField@@2PATFieldData@1@PAH@Z 005ac5e0 f   platform:serializeobject.obj
 0002:000f3820       ?readInt@SerializeObject@@AAEPBDPBDPAH@Z 005ac820 f   platform:serializeobject.obj
 0002:000f3a70       ?readFloat@SerializeObject@@AAEPBDPBDPAM@Z 005aca70 f   platform:serializeobject.obj
 0002:000f3cd0       ?readFieldDataList@SerializeObject@@AAEPBDPAVObject@@PBDPAVObjectField@@2PATFieldData@1@PAH@Z 005accd0 f   platform:serializeobject.obj
 0002:000f44b0       ?readObject@SerializeObject@@AAEPBDPAVObject@@PBDPAPAV2@PAV1@3@Z 005ad4b0 f   platform:serializeobject.obj
 0002:000f4590       ?addStringEscaped@SerializeObject@@AAEXAAVString@@PBD@Z 005ad590 f   platform:serializeobject.obj
 0002:000f4690       ?getObjectClass@SerializeObject@@QAEPBDXZ 005ad690 f   platform:serializeobject.obj
 0002:000f46f0       ?readListCount@SerializeObject@@AAEHPBD@Z 005ad6f0 f   platform:serializeobject.obj
 0002:000f4840       ?createObject@SerializeObject@@QAEPAVObject@@XZ 005ad840 f   platform:serializeobject.obj
 0002:000f4900       ?getClass@SerializeObject@@UAEPBDXZ 005ad900 f   platform:serializeobject.obj
 0002:000f4940       ?createSerializeObject@SerializeObject@@SAXXZ 005ad940 f   platform:serializeobject.obj
 0002:000f4a70       ?getSerializeObject@SerializeObject@@SAPAV1@XZ 005ada70 f   platform:serializeobject.obj
 0002:000f4ad0       ?serialize@SerializeObject@@UAEXAAV1@@Z 005adad0 f   platform:serializeobject.obj
 0002:000f4b60       ?deserialize@SerializeObject@@UAEXPAVObject@@AAV1@@Z 005adb60 f   platform:serializeobject.obj
 0002:000f4cb0       ?getPK@SerializeObject@@UAE?AVString@@XZ 005adcb0 f   platform:serializeobject.obj
 0002:000f4d80       ?setFactoryMethod@SerializeObject@@QAEXP6APAVObject@@PBD@Z@Z 005add80 f   platform:serializeobject.obj
 0002:000f4dd0       ?addCharEscaped@SerializeObject@@AAEXAAVString@@D@Z 005addd0 f   platform:serializeobject.obj
 0002:000f4ed0       ?readChar@SerializeObject@@AAEPBDPBDPAD@Z 005aded0 f   platform:serializeobject.obj
 0002:000f4fc0       ?clearData@SerializeObject@@QAEXXZ 005adfc0 f   platform:serializeobject.obj
 0002:000f5060       ?getEffectiveObjectClass@SerializeObject@@QAEPBDXZ 005ae060 f   platform:serializeobject.obj
 0002:000f50c0       ?setEffectiveObjectClass@SerializeObject@@QAEXPBD@Z 005ae0c0 f   platform:serializeobject.obj
 0002:000f5120       ??0?$ClassList@VObjectField@@@@QAE@XZ 005ae120 f i platform:serializeobject.obj
 0002:000f5180       ??1?$ClassList@VObjectField@@@@QAE@XZ 005ae180 f i platform:serializeobject.obj
 0002:000f51e0       ?count@?$ClassList@VObjectField@@@@QBEHXZ 005ae1e0 f i platform:serializeobject.obj
 0002:000f5240       ?get@?$ClassList@VObjectField@@@@QBEPAVObjectField@@H@Z 005ae240 f i platform:serializeobject.obj
 0002:000f52a0       ?add@?$ClassList@VObjectField@@@@QAEHPAVObjectField@@@Z 005ae2a0 f i platform:serializeobject.obj
 0002:000f5340       ?destroy@?$ClassList@VObjectField@@@@QAEXXZ 005ae340 f i platform:serializeobject.obj
 0002:000f5420       ?count@?$FlatList@M@@QBEHXZ 005ae420 f i platform:serializeobject.obj
 0002:000f5460       ?getAll@?$FlatList@M@@QBEPAMXZ 005ae460 f i platform:serializeobject.obj
 0002:000f54a0       ?set@?$FlatList@M@@QAEXPBMH@Z 005ae4a0 f i platform:serializeobject.obj
 0002:000f5540       ??0?$ClassList@VObject@@@@QAE@XZ 005ae540 f i platform:serializeobject.obj
 0002:000f55a0       ?count@?$ClassList@VObject@@@@QBEHXZ 005ae5a0 f i platform:serializeobject.obj
 0002:000f5600       ?add@?$ClassList@VObject@@@@QAEHPAVObject@@@Z 005ae600 f i platform:serializeobject.obj
 0002:000f56a0       ?allocate@?$ClassList@VObject@@@@QAEXH@Z 005ae6a0 f i platform:serializeobject.obj
 0002:000f5710       ?count@?$FlatList@PAVObject@@@@QBEHXZ 005ae710 f i platform:serializeobject.obj
 0002:000f5750       ?getAll@?$FlatList@PAVObject@@@@QBEPAPAVObject@@XZ 005ae750 f i platform:serializeobject.obj
 0002:000f5790       ?clear@?$FlatList@PAVObject@@@@QAEXXZ 005ae790 f i platform:serializeobject.obj
 0002:000f5810       ??0?$TwoIndexArray@M@@QAE@HH@Z 005ae810 f i platform:serializeobject.obj
 0002:000f5870       ?getN1@?$TwoIndexArray@M@@QAEHXZ 005ae870 f i platform:serializeobject.obj
 0002:000f58b0       ?getN2@?$TwoIndexArray@M@@QAEHXZ 005ae8b0 f i platform:serializeobject.obj
 0002:000f58f0       ?getData@?$TwoIndexArray@M@@QAEPAMXZ 005ae8f0 f i platform:serializeobject.obj
 0002:000f5930       ??_GObjectField@@QAEPAXI@Z 005ae930 f i platform:serializeobject.obj
 0002:000f59a0       ??A?$ClassList@VObjectField@@@@QAEAAPAVObjectField@@H@Z 005ae9a0 f i platform:serializeobject.obj
 0002:000f5a00       ?clear@?$ClassList@VObjectField@@@@QAEXXZ 005aea00 f i platform:serializeobject.obj
 0002:000f5a60       ?create@?$FlatList@M@@QAEXH@Z 005aea60 f i platform:serializeobject.obj
 0002:000f5c30       ?create@?$TwoIndexArray@M@@QAEXHH@Z 005aec30 f i platform:serializeobject.obj
 0002:000f5ce0       ?allocate@?$FlatList@M@@QAEXH@Z 005aece0 f i platform:serializeobject.obj
 0002:000f5d60       ?allocateExact@?$FlatList@M@@QAEXH@Z 005aed60 f i platform:serializeobject.obj
 0002:000f5e50       ?onCreate@SerializeObject@@SAPAVObject@@PBD@Z 005aee50 f i platform:serializeobject.obj
 0002:000f5f30       ?newService@ObjectService@@SAPAVService@@XZ 005aef30 f   platform:objectservice.obj
 0002:000f6010       ??0ObjectService@@IAE@XZ   005af010 f   platform:objectservice.obj
 0002:000f60c0       ?createService@ObjectService@@UAEXXZ 005af0c0 f   platform:objectservice.obj
 0002:000f6120       ?destroyService@ObjectService@@UAEXXZ 005af120 f   platform:objectservice.obj
 0002:000f6190       ?registerSerializeObject@ObjectService@@QAEXPAVSerializeObject@@@Z 005af190 f   platform:objectservice.obj
 0002:000f6200       ?getSerializeObject@ObjectService@@QAEPAVSerializeObject@@PBD@Z 005af200 f   platform:objectservice.obj
 0002:000f63d0       ?addSerializeObjectInstance@ObjectService@@QAEXPAVSerializeObject@@PBD@Z 005af3d0 f   platform:objectservice.obj
 0002:000f6570       ?replaceSerializeObjectInstance@ObjectService@@QAEXPAVSerializeObject@@PBD@Z 005af570 f   platform:objectservice.obj
 0002:000f6620       ?replaceSerializeObjectInstanceSrc@ObjectService@@QAEXPAVSerializeObject@@@Z 005af620 f   platform:objectservice.obj
 0002:000f6740       ?getSerializeObjectInstance@ObjectService@@QAEPAVSerializeObject@@PBD@Z 005af740 f   platform:objectservice.obj
 0002:000f67f0       ?destroySerializeObjectInstances@ObjectService@@AAEXXZ 005af7f0 f   platform:objectservice.obj
 0002:000f68a0       ?getServiceName@ObjectService@@UAEPBDXZ 005af8a0 f i platform:objectservice.obj
 0002:000f68e0       ?configureService@ObjectService@@UAEXVXml@@@Z 005af8e0 f i platform:objectservice.obj
 0002:000f6920       ?initService@ObjectService@@UAEXXZ 005af920 f i platform:objectservice.obj
 0002:000f6960       ?runService@ObjectService@@UAEXXZ 005af960 f i platform:objectservice.obj
 0002:000f69a0       ?stopService@ObjectService@@UAEXXZ 005af9a0 f i platform:objectservice.obj
 0002:000f69e0       ?exitService@ObjectService@@UAEXXZ 005af9e0 f i platform:objectservice.obj
 0002:000f6a20       ?TiXmlFOpen@@YAPAU_iobuf@@PBD0@Z 005afa20 f   platform:tinyxml.obj
 0002:000f6ae0       ?EncodeString@TiXmlBase@@SAXABV?$basic_string@DU?$char_traits@D@std@@V?$allocator@D@2@@std@@PAV23@@Z 005afae0 f   platform:tinyxml.obj
 0002:000f6df0       ??0TiXmlNode@@IAE@W4NodeType@0@@Z 005afdf0 f   platform:tinyxml.obj
 0002:000f6f00       ??0TiXmlBase@@QAE@XZ       005aff00 f i platform:tinyxml.obj
 0002:000f6f70       ??0TiXmlCursor@@QAE@XZ     005aff70 f i platform:tinyxml.obj
 0002:000f6fd0       ?Clear@TiXmlCursor@@QAEXXZ 005affd0 f i platform:tinyxml.obj
 0002:000f7020       ??1TiXmlBase@@UAE@XZ       005b0020 f i platform:tinyxml.obj
 0002:000f7060       ??_GTiXmlBase@@UAEPAXI@Z   005b0060 f i platform:tinyxml.obj
 0002:000f7060       ??_ETiXmlBase@@UAEPAXI@Z   005b0060 f i platform:tinyxml.obj
 0002:000f70d0       ?ToText@TiXmlNode@@UBEPBVTiXmlText@@XZ 005b00d0 f i platform:tinyxml.obj
 0002:000f7110       ?ToText@TiXmlNode@@UAEPAVTiXmlText@@XZ 005b0110 f i platform:tinyxml.obj
 0002:000f7150       ??_GTiXmlNode@@UAEPAXI@Z   005b0150 f i platform:tinyxml.obj
 0002:000f7150       ??_ETiXmlNode@@UAEPAXI@Z   005b0150 f i platform:tinyxml.obj
 0002:000f71c0       ??1TiXmlNode@@UAE@XZ       005b01c0 f   platform:tinyxml.obj
 0002:000f7310       ?CopyTo@TiXmlNode@@IBEXPAV1@@Z 005b0310 f   platform:tinyxml.obj
 0002:000f7380       ?Clear@TiXmlNode@@QAEXXZ   005b0380 f   platform:tinyxml.obj
 0002:000f7470       ?LinkEndChild@TiXmlNode@@QAEPAV1@PAV1@@Z 005b0470 f   platform:tinyxml.obj
 0002:000f7660       ?GetDocument@TiXmlNode@@QAEPAVTiXmlDocument@@XZ 005b0660 f i platform:tinyxml.obj
 0002:000f76b0       ?InsertEndChild@TiXmlNode@@QAEPAV1@ABV1@@Z 005b06b0 f   platform:tinyxml.obj
 0002:000f7780       ?InsertBeforeChild@TiXmlNode@@QAEPAV1@PAV1@ABV1@@Z 005b0780 f   platform:tinyxml.obj
 0002:000f78f0       ?InsertAfterChild@TiXmlNode@@QAEPAV1@PAV1@ABV1@@Z 005b08f0 f   platform:tinyxml.obj
 0002:000f7a60       ?ReplaceChild@TiXmlNode@@QAEPAV1@PAV1@ABV1@@Z 005b0a60 f   platform:tinyxml.obj
 0002:000f7bd0       ?RemoveChild@TiXmlNode@@QAE_NPAV1@@Z 005b0bd0 f   platform:tinyxml.obj
 0002:000f7d30       ?FirstChild@TiXmlNode@@QBEPBV1@PBD@Z 005b0d30 f   platform:tinyxml.obj
 0002:000f7dd0       ?LastChild@TiXmlNode@@QBEPBV1@PBD@Z 005b0dd0 f   platform:tinyxml.obj
 0002:000f7e70       ?IterateChildren@TiXmlNode@@QBEPBV1@PBV1@@Z 005b0e70 f   platform:tinyxml.obj
 0002:000f7f20       ?FirstChild@TiXmlNode@@QBEPBV1@XZ 005b0f20 f i platform:tinyxml.obj
 0002:000f7f60       ?NextSibling@TiXmlNode@@QBEPBV1@XZ 005b0f60 f i platform:tinyxml.obj
 0002:000f7fa0       ?IterateChildren@TiXmlNode@@QBEPBV1@PBDPBV1@@Z 005b0fa0 f   platform:tinyxml.obj
 0002:000f8050       ?NextSibling@TiXmlNode@@QBEPBV1@PBD@Z 005b1050 f   platform:tinyxml.obj
 0002:000f80f0       ?PreviousSibling@TiXmlNode@@QBEPBV1@PBD@Z 005b10f0 f   platform:tinyxml.obj
 0002:000f8190       ?RemoveAttribute@TiXmlElement@@QAEXPBD@Z 005b1190 f   platform:tinyxml.obj
 0002:000f8310       ?Find@TiXmlAttributeSet@@QAEPAVTiXmlAttribute@@ABV?$basic_string@DU?$char_traits@D@std@@V?$allocator@D@2@@std@@@Z 005b1310 f i platform:tinyxml.obj
 0002:000f8370       ?FirstChildElement@TiXmlNode@@QBEPBVTiXmlElement@@XZ 005b1370 f   platform:tinyxml.obj
 0002:000f8420       ?FirstChildElement@TiXmlNode@@QBEPBVTiXmlElement@@PBD@Z 005b1420 f   platform:tinyxml.obj
 0002:000f84e0       ?NextSiblingElement@TiXmlNode@@QBEPBVTiXmlElement@@XZ 005b14e0 f   platform:tinyxml.obj
 0002:000f8590       ?NextSiblingElement@TiXmlNode@@QBEPBVTiXmlElement@@PBD@Z 005b1590 f   platform:tinyxml.obj
 0002:000f8650       ?GetDocument@TiXmlNode@@QBEPBVTiXmlDocument@@XZ 005b1650 f   platform:tinyxml.obj
 0002:000f8700       ??0TiXmlElement@@QAE@PBD@Z 005b1700 f   platform:tinyxml.obj
 0002:000f87f0       ?ToElement@TiXmlElement@@UBEPBV1@XZ 005b17f0 f i platform:tinyxml.obj
 0002:000f8830       ?ToElement@TiXmlElement@@UAEPAV1@XZ 005b1830 f i platform:tinyxml.obj
 0002:000f8870       ??_ETiXmlElement@@UAEPAXI@Z 005b1870 f i platform:tinyxml.obj
 0002:000f8870       ??_GTiXmlElement@@UAEPAXI@Z 005b1870 f i platform:tinyxml.obj
 0002:000f88e0       ??0TiXmlElement@@QAE@ABV?$basic_string@DU?$char_traits@D@std@@V?$allocator@D@2@@std@@@Z 005b18e0 f   platform:tinyxml.obj
 0002:000f89d0       ??0TiXmlElement@@QAE@ABV0@@Z 005b19d0 f   platform:tinyxml.obj
 0002:000f8ac0       ??4TiXmlElement@@QAEXABV0@@Z 005b1ac0 f   platform:tinyxml.obj
 0002:000f8b20       ??1TiXmlElement@@UAE@XZ    005b1b20 f   platform:tinyxml.obj
 0002:000f8be0       ?ClearThis@TiXmlElement@@IAEXXZ 005b1be0 f   platform:tinyxml.obj
 0002:000f8cd0       ?First@TiXmlAttributeSet@@QAEPAVTiXmlAttribute@@XZ 005b1cd0 f i platform:tinyxml.obj
 0002:000f8d40       ?Attribute@TiXmlElement@@QBEPBDPBD@Z 005b1d40 f   platform:tinyxml.obj
 0002:000f8dc0       ?Value@TiXmlAttribute@@QBEPBDXZ 005b1dc0 f i platform:tinyxml.obj
 0002:000f8e20       ?Attribute@TiXmlElement@@QBEPBV?$basic_string@DU?$char_traits@D@std@@V?$allocator@D@2@@std@@ABV23@@Z 005b1e20 f   platform:tinyxml.obj
 0002:000f8ea0       ?ValueStr@TiXmlAttribute@@QBEABV?$basic_string@DU?$char_traits@D@std@@V?$allocator@D@2@@std@@XZ 005b1ea0 f i platform:tinyxml.obj
 0002:000f8ee0       ?Attribute@TiXmlElement@@QBEPBDPBDPAH@Z 005b1ee0 f   platform:tinyxml.obj
 0002:000f8f80       ?Attribute@TiXmlElement@@QBEPBV?$basic_string@DU?$char_traits@D@std@@V?$allocator@D@2@@std@@ABV23@PAH@Z 005b1f80 f   platform:tinyxml.obj
 0002:000f9030       ?Attribute@TiXmlElement@@QBEPBDPBDPAN@Z 005b2030 f   platform:tinyxml.obj
 0002:000f90d0       ?Attribute@TiXmlElement@@QBEPBV?$basic_string@DU?$char_traits@D@std@@V?$allocator@D@2@@std@@ABV23@PAN@Z 005b20d0 f   platform:tinyxml.obj
 0002:000f9170       ?QueryIntAttribute@TiXmlElement@@QBEHPBDPAH@Z 005b2170 f   platform:tinyxml.obj
 0002:000f91f0       ?QueryIntAttribute@TiXmlElement@@QBEHABV?$basic_string@DU?$char_traits@D@std@@V?$allocator@D@2@@std@@PAH@Z 005b21f0 f   platform:tinyxml.obj
 0002:000f9270       ?QueryDoubleAttribute@TiXmlElement@@QBEHPBDPAN@Z 005b2270 f   platform:tinyxml.obj
 0002:000f92f0       ?QueryDoubleAttribute@TiXmlElement@@QBEHABV?$basic_string@DU?$char_traits@D@std@@V?$allocator@D@2@@std@@PAN@Z 005b22f0 f   platform:tinyxml.obj
 0002:000f9370       ?SetAttribute@TiXmlElement@@QAEXPBDH@Z 005b2370 f   platform:tinyxml.obj
 0002:000f9440       ?SetAttribute@TiXmlElement@@QAEXABV?$basic_string@DU?$char_traits@D@std@@V?$allocator@D@2@@std@@H@Z 005b2440 f   platform:tinyxml.obj
 0002:000f95b0       ??_D?$basic_ostringstream@DU?$char_traits@D@std@@V?$allocator@D@2@@std@@QAEXXZ 005b25b0 f i platform:tinyxml.obj
 0002:000f9620       ?SetDoubleAttribute@TiXmlElement@@QAEXPBDN@Z 005b2620 f   platform:tinyxml.obj
 0002:000f9700       ?SetAttribute@TiXmlElement@@QAEXPBD0@Z 005b2700 f   platform:tinyxml.obj
 0002:000f9940       ??0TiXmlAttribute@@QAE@PBD0@Z 005b2940 f i platform:tinyxml.obj
 0002:000f9a60       ?SetValue@TiXmlAttribute@@QAEXABV?$basic_string@DU?$char_traits@D@std@@V?$allocator@D@2@@std@@@Z 005b2a60 f i platform:tinyxml.obj
 0002:000f9ac0       ?Print@TiXmlAttribute@@UBEXPAU_iobuf@@H@Z 005b2ac0 f i platform:tinyxml.obj
 0002:000f9b20       ?Print@TiXmlAttribute@@UBEXPAV?$basic_string@DU?$char_traits@D@std@@V?$allocator@D@2@@std@@H@Z 005b2b20 f i platform:tinyxml.obj
 0002:000f9b80       ??_GTiXmlAttribute@@UAEPAXI@Z 005b2b80 f i platform:tinyxml.obj
 0002:000f9b80       ??_ETiXmlAttribute@@UAEPAXI@Z 005b2b80 f i platform:tinyxml.obj
 0002:000f9bf0       ??1TiXmlAttribute@@UAE@XZ  005b2bf0 f i platform:tinyxml.obj
 0002:000f9cb0       ?SetAttribute@TiXmlElement@@QAEXABV?$basic_string@DU?$char_traits@D@std@@V?$allocator@D@2@@std@@0@Z 005b2cb0 f   platform:tinyxml.obj
 0002:000f9e20       ??0TiXmlAttribute@@QAE@ABV?$basic_string@DU?$char_traits@D@std@@V?$allocator@D@2@@std@@0@Z 005b2e20 f i platform:tinyxml.obj
 0002:000f9f40       ?PrintWithoutChilds@TiXmlElement@@UBEXPAU_iobuf@@H@Z 005b2f40 f   platform:tinyxml.obj
 0002:000fa0d0       ?First@TiXmlAttributeSet@@QBEPBVTiXmlAttribute@@XZ 005b30d0 f i platform:tinyxml.obj
 0002:000fa140       ?Print@TiXmlElement@@UBEXPAU_iobuf@@H@Z 005b3140 f   platform:tinyxml.obj
 0002:000fa4f0       ?NextSibling@TiXmlNode@@QAEPAV1@XZ 005b34f0 f i platform:tinyxml.obj
 0002:000fa530       ?Print@TiXmlElement@@UBEXPAV?$basic_string@DU?$char_traits@D@std@@V?$allocator@D@2@@std@@H@Z 005b3530 f   platform:tinyxml.obj
 0002:000fa860       ?PrintWithoutChilds@TiXmlElement@@UBEXPAV?$basic_string@DU?$char_traits@D@std@@V?$allocator@D@2@@std@@H@Z 005b3860 f   platform:tinyxml.obj
 0002:000fa9b0       ?CopyTo@TiXmlElement@@IBEXPAV1@@Z 005b39b0 f   platform:tinyxml.obj
 0002:000faab0       ?Name@TiXmlAttribute@@QBEPBDXZ 005b3ab0 f i platform:tinyxml.obj
 0002:000fab10       ?Accept@TiXmlElement@@UBE_NPAVTiXmlVisitor@@@Z 005b3b10 f   platform:tinyxml.obj
 0002:000fac10       ?Clone@TiXmlElement@@UBEPAVTiXmlNode@@XZ 005b3c10 f   platform:tinyxml.obj
 0002:000fad30       ?GetText@TiXmlElement@@QBEPBDXZ 005b3d30 f   platform:tinyxml.obj
 0002:000fadc0       ??0TiXmlDocument@@QAE@XZ   005b3dc0 f   platform:tinyxml.obj
 0002:000faeb0       ?ClearError@TiXmlDocument@@QAEXXZ 005b3eb0 f i platform:tinyxml.obj
 0002:000faf40       ?ToDocument@TiXmlDocument@@UBEPBV1@XZ 005b3f40 f i platform:tinyxml.obj
 0002:000faf80       ?ToDocument@TiXmlDocument@@UAEPAV1@XZ 005b3f80 f i platform:tinyxml.obj
 0002:000fafc0       ??_ETiXmlDocument@@UAEPAXI@Z 005b3fc0 f i platform:tinyxml.obj
 0002:000fafc0       ??_GTiXmlDocument@@UAEPAXI@Z 005b3fc0 f i platform:tinyxml.obj
 0002:000fb030       ??1TiXmlDocument@@UAE@XZ   005b4030 f i platform:tinyxml.obj
 0002:000fb0f0       ??0TiXmlDocument@@QAE@PBD@Z 005b40f0 f   platform:tinyxml.obj
 0002:000fb1f0       ??0TiXmlDocument@@QAE@ABV?$basic_string@DU?$char_traits@D@std@@V?$allocator@D@2@@std@@@Z 005b41f0 f   platform:tinyxml.obj
 0002:000fb2f0       ??0TiXmlDocument@@QAE@ABV0@@Z 005b42f0 f   platform:tinyxml.obj
 0002:000fb3d0       ??4TiXmlDocument@@QAEXABV0@@Z 005b43d0 f   platform:tinyxml.obj
 0002:000fb430       ?LoadFile@TiXmlDocument@@QAE_NW4TiXmlEncoding@@@Z 005b4430 f   platform:tinyxml.obj
 0002:000fb4a0       ?SaveFile@TiXmlDocument@@QBE_NXZ 005b44a0 f   platform:tinyxml.obj
 0002:000fb500       ?LoadFile@TiXmlDocument@@QAE_NPBDW4TiXmlEncoding@@@Z 005b4500 f   platform:tinyxml.obj
 0002:000fb6d0       ?LoadFile@TiXmlDocument@@QAE_NPAU_iobuf@@W4TiXmlEncoding@@@Z 005b46d0 f   platform:tinyxml.obj
 0002:000fbc10       ?SaveFile@TiXmlDocument@@QBE_NPBD@Z 005b4c10 f   platform:tinyxml.obj
 0002:000fbcb0       ?SaveFile@TiXmlDocument@@QBE_NPAU_iobuf@@@Z 005b4cb0 f   platform:tinyxml.obj
 0002:000fbdc0       ?CopyTo@TiXmlDocument@@ABEXPAV1@@Z 005b4dc0 f   platform:tinyxml.obj
 0002:000fbee0       ?Clone@TiXmlDocument@@MBEPAVTiXmlNode@@XZ 005b4ee0 f   platform:tinyxml.obj
 0002:000fbff0       ?Print@TiXmlDocument@@UBEXPAU_iobuf@@H@Z 005b4ff0 f   platform:tinyxml.obj
 0002:000fc0e0       ?Print@TiXmlDocument@@UBEXPAV?$basic_string@DU?$char_traits@D@std@@V?$allocator@D@2@@std@@H@Z 005b50e0 f   platform:tinyxml.obj
 0002:000fc1c0       ?Accept@TiXmlDocument@@UBE_NPAVTiXmlVisitor@@@Z 005b51c0 f   platform:tinyxml.obj
 0002:000fc2b0       ?Next@TiXmlAttribute@@QBEPBV1@XZ 005b52b0 f   platform:tinyxml.obj
 0002:000fc340       ?Previous@TiXmlAttribute@@QBEPBV1@XZ 005b5340 f   platform:tinyxml.obj
 0002:000fc3d0       ?Print@TiXmlAttribute@@QBEXPAU_iobuf@@@Z 005b53d0 f   platform:tinyxml.obj
 0002:000fc5b0       ?Print@TiXmlAttribute@@QBEXPAV?$basic_string@DU?$char_traits@D@std@@V?$allocator@D@2@@std@@@Z 005b55b0 f   platform:tinyxml.obj
 0002:000fc790       ?QueryIntValue@TiXmlAttribute@@QBEHPAH@Z 005b5790 f   platform:tinyxml.obj
 0002:000fc820       ?QueryDoubleValue@TiXmlAttribute@@QBEHPAN@Z 005b5820 f   platform:tinyxml.obj
 0002:000fc8b0       ?SetIntValue@TiXmlAttribute@@QAEXH@Z 005b58b0 f   platform:tinyxml.obj
 0002:000fc980       ?SetValue@TiXmlAttribute@@QAEXPBD@Z 005b5980 f i platform:tinyxml.obj
 0002:000fc9e0       ?SetDoubleValue@TiXmlAttribute@@QAEXN@Z 005b59e0 f   platform:tinyxml.obj
 0002:000fcac0       ?IntValue@TiXmlAttribute@@QBEHXZ 005b5ac0 f   platform:tinyxml.obj
 0002:000fcb30       ?DoubleValue@TiXmlAttribute@@QBENXZ 005b5b30 f   platform:tinyxml.obj
 0002:000fcba0       ??0TiXmlComment@@QAE@ABV0@@Z 005b5ba0 f   platform:tinyxml.obj
 0002:000fcc60       ?ToComment@TiXmlComment@@UBEPBV1@XZ 005b5c60 f i platform:tinyxml.obj
 0002:000fcca0       ?ToComment@TiXmlComment@@UAEPAV1@XZ 005b5ca0 f i platform:tinyxml.obj
 0002:000fcce0       ??_GTiXmlComment@@UAEPAXI@Z 005b5ce0 f i platform:tinyxml.obj
 0002:000fcce0       ??_ETiXmlComment@@UAEPAXI@Z 005b5ce0 f i platform:tinyxml.obj
 0002:000fcd50       ??1TiXmlComment@@UAE@XZ    005b5d50 f i platform:tinyxml.obj
 0002:000fcdf0       ??4TiXmlComment@@QAEXABV0@@Z 005b5df0 f   platform:tinyxml.obj
 0002:000fce50       ?Print@TiXmlComment@@UBEXPAU_iobuf@@H@Z 005b5e50 f   platform:tinyxml.obj
 0002:000fcf50       ?Print@TiXmlComment@@UBEXPAV?$basic_string@DU?$char_traits@D@std@@V?$allocator@D@2@@std@@H@Z 005b5f50 f   platform:tinyxml.obj
 0002:000fd040       ?CopyTo@TiXmlComment@@IBEXPAV1@@Z 005b6040 f   platform:tinyxml.obj
 0002:000fd0a0       ?Accept@TiXmlComment@@UBE_NPAVTiXmlVisitor@@@Z 005b60a0 f   platform:tinyxml.obj
 0002:000fd110       ?Clone@TiXmlComment@@UBEPAVTiXmlNode@@XZ 005b6110 f   platform:tinyxml.obj
 0002:000fd220       ??0TiXmlComment@@QAE@XZ    005b6220 f i platform:tinyxml.obj
 0002:000fd2d0       ?Print@TiXmlText@@UBEXPAU_iobuf@@H@Z 005b62d0 f   platform:tinyxml.obj
 0002:000fd4e0       ?Print@TiXmlText@@UBEXPAV?$basic_string@DU?$char_traits@D@std@@V?$allocator@D@2@@std@@H@Z 005b64e0 f   platform:tinyxml.obj
 0002:000fd6c0       ?CopyTo@TiXmlText@@IBEXPAV1@@Z 005b66c0 f   platform:tinyxml.obj
 0002:000fd730       ?Accept@TiXmlText@@UBE_NPAVTiXmlVisitor@@@Z 005b6730 f   platform:tinyxml.obj
 0002:000fd7a0       ?Clone@TiXmlText@@MBEPAVTiXmlNode@@XZ 005b67a0 f   platform:tinyxml.obj
 0002:000fd8c0       ??0TiXmlDeclaration@@QAE@PBD00@Z 005b68c0 f   platform:tinyxml.obj
 0002:000fd9e0       ?ToDeclaration@TiXmlDeclaration@@UBEPBV1@XZ 005b69e0 f i platform:tinyxml.obj
 0002:000fda20       ?ToDeclaration@TiXmlDeclaration@@UAEPAV1@XZ 005b6a20 f i platform:tinyxml.obj
 0002:000fda60       ??_GTiXmlDeclaration@@UAEPAXI@Z 005b6a60 f i platform:tinyxml.obj
 0002:000fda60       ??_ETiXmlDeclaration@@UAEPAXI@Z 005b6a60 f i platform:tinyxml.obj
 0002:000fdad0       ??1TiXmlDeclaration@@UAE@XZ 005b6ad0 f i platform:tinyxml.obj
 0002:000fdbb0       ??0TiXmlDeclaration@@QAE@ABV?$basic_string@DU?$char_traits@D@std@@V?$allocator@D@2@@std@@00@Z 005b6bb0 f   platform:tinyxml.obj
 0002:000fdcd0       ??0TiXmlDeclaration@@QAE@ABV0@@Z 005b6cd0 f   platform:tinyxml.obj
 0002:000fddd0       ??4TiXmlDeclaration@@QAEXABV0@@Z 005b6dd0 f   platform:tinyxml.obj
 0002:000fde30       ?Print@TiXmlDeclaration@@UBEXPAU_iobuf@@H@Z 005b6e30 f   platform:tinyxml.obj
 0002:000fdfa0       ?Print@TiXmlDeclaration@@UBEXPAV?$basic_string@DU?$char_traits@D@std@@V?$allocator@D@2@@std@@H@Z 005b6fa0 f   platform:tinyxml.obj
 0002:000fe0f0       ?CopyTo@TiXmlDeclaration@@IBEXPAV1@@Z 005b70f0 f   platform:tinyxml.obj
 0002:000fe190       ?Accept@TiXmlDeclaration@@UBE_NPAVTiXmlVisitor@@@Z 005b7190 f   platform:tinyxml.obj
 0002:000fe200       ?Clone@TiXmlDeclaration@@UBEPAVTiXmlNode@@XZ 005b7200 f   platform:tinyxml.obj
 0002:000fe310       ??0TiXmlDeclaration@@QAE@XZ 005b7310 f i platform:tinyxml.obj
 0002:000fe400       ?Print@TiXmlUnknown@@UBEXPAU_iobuf@@H@Z 005b7400 f   platform:tinyxml.obj
 0002:000fe4c0       ?Print@TiXmlUnknown@@UBEXPAV?$basic_string@DU?$char_traits@D@std@@V?$allocator@D@2@@std@@H@Z 005b74c0 f   platform:tinyxml.obj
 0002:000fe580       ?CopyTo@TiXmlUnknown@@IBEXPAV1@@Z 005b7580 f   platform:tinyxml.obj
 0002:000fe5e0       ?Accept@TiXmlUnknown@@UBE_NPAVTiXmlVisitor@@@Z 005b75e0 f   platform:tinyxml.obj
 0002:000fe650       ?Clone@TiXmlUnknown@@UBEPAVTiXmlNode@@XZ 005b7650 f   platform:tinyxml.obj
 0002:000fe760       ??0TiXmlUnknown@@QAE@XZ    005b7760 f i platform:tinyxml.obj
 0002:000fe810       ?ToUnknown@TiXmlUnknown@@UBEPBV1@XZ 005b7810 f i platform:tinyxml.obj
 0002:000fe850       ?ToUnknown@TiXmlUnknown@@UAEPAV1@XZ 005b7850 f i platform:tinyxml.obj
 0002:000fe890       ??_ETiXmlUnknown@@UAEPAXI@Z 005b7890 f i platform:tinyxml.obj
 0002:000fe890       ??_GTiXmlUnknown@@UAEPAXI@Z 005b7890 f i platform:tinyxml.obj
 0002:000fe900       ??1TiXmlUnknown@@UAE@XZ    005b7900 f i platform:tinyxml.obj
 0002:000fe9a0       ??0TiXmlAttributeSet@@QAE@XZ 005b79a0 f   platform:tinyxml.obj
 0002:000fea50       ??0TiXmlAttribute@@QAE@XZ  005b7a50 f i platform:tinyxml.obj
 0002:000feb40       ??1TiXmlAttributeSet@@QAE@XZ 005b7b40 f   platform:tinyxml.obj
 0002:000fec50       ?Add@TiXmlAttributeSet@@QAEXPAVTiXmlAttribute@@@Z 005b7c50 f   platform:tinyxml.obj
 0002:000fede0       ?Remove@TiXmlAttributeSet@@QAEXPAVTiXmlAttribute@@@Z 005b7de0 f   platform:tinyxml.obj
 0002:000feed0       ?Find@TiXmlAttributeSet@@QBEPBVTiXmlAttribute@@ABV?$basic_string@DU?$char_traits@D@std@@V?$allocator@D@2@@std@@@Z 005b7ed0 f   platform:tinyxml.obj
 0002:000fef70       ?Find@TiXmlAttributeSet@@QBEPBVTiXmlAttribute@@PBD@Z 005b7f70 f   platform:tinyxml.obj
 0002:000ff010       ??5@YAAAV?$basic_istream@DU?$char_traits@D@std@@@std@@AAV01@AAVTiXmlNode@@@Z 005b8010 f   platform:tinyxml.obj
 0002:000ff170       ??6@YAAAV?$basic_ostream@DU?$char_traits@D@std@@@std@@AAV01@ABVTiXmlNode@@@Z 005b8170 f   platform:tinyxml.obj
 0002:000ff2b0       ??0TiXmlPrinter@@QAE@XZ    005b82b0 f i platform:tinyxml.obj
 0002:000ff3b0       ??1TiXmlVisitor@@UAE@XZ    005b83b0 f i platform:tinyxml.obj
 0002:000ff3f0       ?VisitEnter@TiXmlVisitor@@UAE_NABVTiXmlDocument@@@Z 005b83f0 f i platform:tinyxml.obj
 0002:000ff430       ?VisitExit@TiXmlVisitor@@UAE_NABVTiXmlDocument@@@Z 005b8430 f i platform:tinyxml.obj
 0002:000ff470       ?VisitEnter@TiXmlVisitor@@UAE_NABVTiXmlElement@@PBVTiXmlAttribute@@@Z 005b8470 f i platform:tinyxml.obj
 0002:000ff4b0       ?VisitExit@TiXmlVisitor@@UAE_NABVTiXmlElement@@@Z 005b84b0 f i platform:tinyxml.obj
 0002:000ff4f0       ?Visit@TiXmlVisitor@@UAE_NABVTiXmlDeclaration@@@Z 005b84f0 f i platform:tinyxml.obj
 0002:000ff530       ?Visit@TiXmlVisitor@@UAE_NABVTiXmlText@@@Z 005b8530 f i platform:tinyxml.obj
 0002:000ff570       ?Visit@TiXmlVisitor@@UAE_NABVTiXmlComment@@@Z 005b8570 f i platform:tinyxml.obj
 0002:000ff5b0       ?Visit@TiXmlVisitor@@UAE_NABVTiXmlUnknown@@@Z 005b85b0 f i platform:tinyxml.obj
 0002:000ff5f0       ??_ETiXmlVisitor@@UAEPAXI@Z 005b85f0 f i platform:tinyxml.obj
 0002:000ff5f0       ??_GTiXmlVisitor@@UAEPAXI@Z 005b85f0 f i platform:tinyxml.obj
 0002:000ff660       ?SetStreamPrinting@TiXmlPrinter@@QAEXXZ 005b8660 f i platform:tinyxml.obj
 0002:000ff6d0       ?Str@TiXmlPrinter@@QAEABV?$basic_string@DU?$char_traits@D@std@@V?$allocator@D@2@@std@@XZ 005b86d0 f i platform:tinyxml.obj
 0002:000ff710       ??_ETiXmlPrinter@@UAEPAXI@Z 005b8710 f i platform:tinyxml.obj
 0002:000ff710       ??_GTiXmlPrinter@@UAEPAXI@Z 005b8710 f i platform:tinyxml.obj
 0002:000ff780       ??0TiXmlVisitor@@QAE@XZ    005b8780 f i platform:tinyxml.obj
 0002:000ff7d0       ??1TiXmlPrinter@@UAE@XZ    005b87d0 f i platform:tinyxml.obj
 0002:000ff8a0       ??6@YAAAV?$basic_string@DU?$char_traits@D@std@@V?$allocator@D@2@@std@@AAV01@ABVTiXmlNode@@@Z 005b88a0 f   platform:tinyxml.obj
 0002:000ff9e0       ?FirstChild@TiXmlHandle@@QBE?AV1@XZ 005b89e0 f   platform:tinyxml.obj
 0002:000ffa70       ?FirstChild@TiXmlNode@@QAEPAV1@XZ 005b8a70 f i platform:tinyxml.obj
 0002:000ffab0       ??0TiXmlHandle@@QAE@PAVTiXmlNode@@@Z 005b8ab0 f i platform:tinyxml.obj
 0002:000ffb00       ?FirstChild@TiXmlHandle@@QBE?AV1@PBD@Z 005b8b00 f   platform:tinyxml.obj
 0002:000ffba0       ?FirstChild@TiXmlNode@@QAEPAV1@PBD@Z 005b8ba0 f i platform:tinyxml.obj
 0002:000ffc00       ?FirstChildElement@TiXmlHandle@@QBE?AV1@XZ 005b8c00 f   platform:tinyxml.obj
 0002:000ffc90       ?FirstChildElement@TiXmlHandle@@QBE?AV1@PBD@Z 005b8c90 f   platform:tinyxml.obj
 0002:000ffd30       ?Child@TiXmlHandle@@QBE?AV1@H@Z 005b8d30 f   platform:tinyxml.obj
 0002:000ffe00       ?Child@TiXmlHandle@@QBE?AV1@PBDH@Z 005b8e00 f   platform:tinyxml.obj
 0002:000ffed0       ?NextSibling@TiXmlNode@@QAEPAV1@PBD@Z 005b8ed0 f i platform:tinyxml.obj
 0002:000fff30       ?ChildElement@TiXmlHandle@@QBE?AV1@H@Z 005b8f30 f   platform:tinyxml.obj
 0002:00100000       ?NextSiblingElement@TiXmlNode@@QAEPAVTiXmlElement@@XZ 005b9000 f i platform:tinyxml.obj
 0002:00100050       ?ChildElement@TiXmlHandle@@QBE?AV1@PBDH@Z 005b9050 f   platform:tinyxml.obj
 0002:00100120       ?VisitEnter@TiXmlPrinter@@UAE_NABVTiXmlDocument@@@Z 005b9120 f   platform:tinyxml.obj
 0002:00100160       ?VisitExit@TiXmlPrinter@@UAE_NABVTiXmlDocument@@@Z 005b9160 f   platform:tinyxml.obj
 0002:001001a0       ?VisitEnter@TiXmlPrinter@@UAE_NABVTiXmlElement@@PBVTiXmlAttribute@@@Z 005b91a0 f   platform:tinyxml.obj
 0002:00100380       ?LastChild@TiXmlNode@@QBEPBV1@XZ 005b9380 f i platform:tinyxml.obj
 0002:001003c0       ?CDATA@TiXmlText@@QBE_NXZ  005b93c0 f i platform:tinyxml.obj
 0002:00100400       ?DoIndent@TiXmlPrinter@@AAEXXZ 005b9400 f i platform:tinyxml.obj
 0002:00100490       ?DoLineBreak@TiXmlPrinter@@AAEXXZ 005b9490 f i platform:tinyxml.obj
 0002:001004f0       ?VisitExit@TiXmlPrinter@@UAE_NABVTiXmlElement@@@Z 005b94f0 f   platform:tinyxml.obj
 0002:001005d0       ?Visit@TiXmlPrinter@@UAE_NABVTiXmlText@@@Z 005b95d0 f   platform:tinyxml.obj
 0002:001007e0       ?ValueTStr@TiXmlNode@@QBEABV?$basic_string@DU?$char_traits@D@std@@V?$allocator@D@2@@std@@XZ 005b97e0 f i platform:tinyxml.obj
 0002:00100820       ?Visit@TiXmlPrinter@@UAE_NABVTiXmlDeclaration@@@Z 005b9820 f   platform:tinyxml.obj
 0002:001008b0       ?Visit@TiXmlPrinter@@UAE_NABVTiXmlComment@@@Z 005b98b0 f   platform:tinyxml.obj
 0002:00100950       ?Visit@TiXmlPrinter@@UAE_NABVTiXmlUnknown@@@Z 005b9950 f   platform:tinyxml.obj
 0002:001009f0       ??Y?$basic_string@DU?$char_traits@D@std@@V?$allocator@D@2@@std@@QAEAAV01@PBD@Z 005b99f0 f i platform:tinyxml.obj
 0002:00100a50       ??A?$basic_string@DU?$char_traits@D@std@@V?$allocator@D@2@@std@@QBEABDI@Z 005b9a50 f i platform:tinyxml.obj
 0002:00100ae0       ?length@?$basic_string@DU?$char_traits@D@std@@V?$allocator@D@2@@std@@QBEIXZ 005b9ae0 f i platform:tinyxml.obj
 0002:00100b20       ?reserve@?$basic_string@DU?$char_traits@D@std@@V?$allocator@D@2@@std@@QAEXI@Z 005b9b20 f i platform:tinyxml.obj
 0002:00100bc0       ?empty@?$basic_string@DU?$char_traits@D@std@@V?$allocator@D@2@@std@@QBE_NXZ 005b9bc0 f i platform:tinyxml.obj
 0002:00100c10       ?find@?$basic_string@DU?$char_traits@D@std@@V?$allocator@D@2@@std@@QBEIDI@Z 005b9c10 f i platform:tinyxml.obj
 0002:00100c70       ??0?$basic_ostringstream@DU?$char_traits@D@std@@V?$allocator@D@2@@std@@QAE@H@Z 005b9c70 f i platform:tinyxml.obj
 0002:00100db0       ??1?$basic_ostringstream@DU?$char_traits@D@std@@V?$allocator@D@2@@std@@UAE@XZ 005b9db0 f i platform:tinyxml.obj
 0002:00100e80       ?str@?$basic_ostringstream@DU?$char_traits@D@std@@V?$allocator@D@2@@std@@QBE?AV?$basic_string@DU?$char_traits@D@std@@V?$allocator@D@2@@2@XZ 005b9e80 f i platform:tinyxml.obj
 0002:00100f40       ??1?$basic_stringbuf@DU?$char_traits@D@std@@V?$allocator@D@2@@std@@UAE@XZ 005b9f40 f i platform:tinyxml.obj
 0002:00101000       ?overflow@?$basic_stringbuf@DU?$char_traits@D@std@@V?$allocator@D@2@@std@@MAEHH@Z 005ba000 f i platform:tinyxml.obj
 0002:00101520       ?to_char_type@?$char_traits@D@std@@SADABH@Z 005ba520 f i platform:tinyxml.obj
 0002:00101560       ?eq_int_type@?$char_traits@D@std@@SA_NABH0@Z 005ba560 f i platform:tinyxml.obj
 0002:001015b0       ?not_eof@?$char_traits@D@std@@SAHABH@Z 005ba5b0 f i platform:tinyxml.obj
 0002:00101630       ?eof@?$char_traits@D@std@@SAHXZ 005ba630 f i platform:tinyxml.obj
 0002:00101670       ?pbackfail@?$basic_stringbuf@DU?$char_traits@D@std@@V?$allocator@D@2@@std@@MAEHH@Z 005ba670 f i platform:tinyxml.obj
 0002:00101830       ?eq@?$char_traits@D@std@@SA_NABD0@Z 005ba830 f i platform:tinyxml.obj
 0002:00101880       ?underflow@?$basic_stringbuf@DU?$char_traits@D@std@@V?$allocator@D@2@@std@@MAEHXZ 005ba880 f i platform:tinyxml.obj
 0002:00101aa0       ?to_int_type@?$char_traits@D@std@@SAHABD@Z 005baaa0 f i platform:tinyxml.obj
 0002:00101ae0       ?seekoff@?$basic_stringbuf@DU?$char_traits@D@std@@V?$allocator@D@2@@std@@MAE?AV?$fpos@H@2@_JHH@Z 005baae0 f i platform:tinyxml.obj
 0002:00101fc0       ?seekpos@?$basic_stringbuf@DU?$char_traits@D@std@@V?$allocator@D@2@@std@@MAE?AV?$fpos@H@2@V32@H@Z 005bafc0 f i platform:tinyxml.obj
 0002:00102380       ??_G?$basic_ostringstream@DU?$char_traits@D@std@@V?$allocator@D@2@@std@@UAEPAXI@Z 005bb380 f i platform:tinyxml.obj
 0002:00102380       ??_E?$basic_ostringstream@DU?$char_traits@D@std@@V?$allocator@D@2@@std@@UAEPAXI@Z 005bb380 f i platform:tinyxml.obj
 0002:00102400       ??_G?$basic_stringbuf@DU?$char_traits@D@std@@V?$allocator@D@2@@std@@UAEPAXI@Z 005bb400 f i platform:tinyxml.obj
 0002:00102400       ??_E?$basic_stringbuf@DU?$char_traits@D@std@@V?$allocator@D@2@@std@@UAEPAXI@Z 005bb400 f i platform:tinyxml.obj
 0002:00102470       ?append@?$basic_string@DU?$char_traits@D@std@@V?$allocator@D@2@@std@@QAEAAV12@PBD@Z 005bb470 f i platform:tinyxml.obj
 0002:00102500       ?find@?$basic_string@DU?$char_traits@D@std@@V?$allocator@D@2@@std@@QBEIPBDII@Z 005bb500 f i platform:tinyxml.obj
 0002:00102660       ?compare@?$char_traits@D@std@@SAHPBD0I@Z 005bb660 f i platform:tinyxml.obj
 0002:001026c0       ?find@?$char_traits@D@std@@SAPBDPBDIABD@Z 005bb6c0 f i platform:tinyxml.obj
 0002:00102730       ??B?$fpos@H@std@@QBE_JXZ   005bb730 f i platform:tinyxml.obj
 0002:00102780       ??0?$basic_stringbuf@DU?$char_traits@D@std@@V?$allocator@D@2@@std@@QAE@H@Z 005bb780 f i platform:tinyxml.obj
 0002:00102860       ?str@?$basic_stringbuf@DU?$char_traits@D@std@@V?$allocator@D@2@@std@@QBE?AV?$basic_string@DU?$char_traits@D@std@@V?$allocator@D@2@@2@XZ 005bb860 f i platform:tinyxml.obj
 0002:00102b90       ??0?$basic_string@DU?$char_traits@D@std@@V?$allocator@D@2@@std@@QAE@$$QAV01@@Z 005bbb90 f i platform:tinyxml.obj
 0002:00102c80       ?_Tidy@?$basic_stringbuf@DU?$char_traits@D@std@@V?$allocator@D@2@@std@@IAEXXZ 005bbc80 f i platform:tinyxml.obj
 0002:00102de0       ??0?$basic_string@DU?$char_traits@D@std@@V?$allocator@D@2@@std@@QAE@PBDI@Z 005bbde0 f i platform:tinyxml.obj
 0002:00102eb0       ?_Init@?$basic_stringbuf@DU?$char_traits@D@std@@V?$allocator@D@2@@std@@IAEXPBDIH@Z 005bbeb0 f i platform:tinyxml.obj
 0002:00103060       ?_Getstate@?$basic_stringbuf@DU?$char_traits@D@std@@V?$allocator@D@2@@std@@AAEHH@Z 005bc060 f i platform:tinyxml.obj
 0002:00103100       ??$?8DU?$char_traits@D@std@@V?$allocator@D@1@@std@@YA_NABV?$basic_string@DU?$char_traits@D@std@@V?$allocator@D@2@@0@0@Z 005bc100 f i platform:tinyxml.obj
 0002:00103160       ??$_snprintf_s@$0CA@@@YAHAAY0CA@DIPBDZZ 005bc160 f i platform:tinyxml.obj
 0002:001031e0       ??$_snprintf_s@$0EA@@@YAHAAY0EA@DIPBDZZ 005bc1e0 f i platform:tinyxml.obj
 0002:00103260       ??$_snprintf_s@$0BAA@@@YAHAAY0BAA@DIPBDZZ 005bc260 f i platform:tinyxml.obj
 0002:001032e0       ??$?6DU?$char_traits@D@std@@V?$allocator@D@1@@std@@YAAAV?$basic_ostream@DU?$char_traits@D@std@@@0@AAV10@ABV?$basic_string@DU?$char_traits@D@std@@V?$allocator@D@2@@0@@Z 005bc2e0 f i platform:tinyxml.obj
 0002:001037d0       ??$forward@V?$allocator@D@std@@@std@@YA$$QAV?$allocator@D@0@AAV10@@Z 005bc7d0 f i platform:tinyxml.obj
 0002:00103810       ??$forward@V?$basic_string@DU?$char_traits@D@std@@V?$allocator@D@2@@std@@@std@@YA$$QAV?$basic_string@DU?$char_traits@D@std@@V?$allocator@D@2@@0@AAV10@@Z 005bc810 f i platform:tinyxml.obj
 0002:00103850       ??0?$basic_string@DU?$char_traits@D@std@@V?$allocator@D@2@@std@@QAE@PBD@Z 005bc850 f i platform:tinyxml.obj
 0002:00103920       ?compare@?$basic_string@DU?$char_traits@D@std@@V?$allocator@D@2@@std@@QBEHABV12@@Z 005bc920 f i platform:tinyxml.obj
 0002:001039a0       ?assign@?$basic_string@DU?$char_traits@D@std@@V?$allocator@D@2@@std@@QAEAAV12@$$QAV12@@Z 005bc9a0 f i platform:tinyxml.obj
 0002:00103ae0       ??Y?$basic_string@DU?$char_traits@D@std@@V?$allocator@D@2@@std@@QAEAAV01@ABV01@@Z 005bcae0 f i platform:tinyxml.obj
 0002:00103b40       ??Y?$basic_string@DU?$char_traits@D@std@@V?$allocator@D@2@@std@@QAEAAV01@D@Z 005bcb40 f i platform:tinyxml.obj
 0002:00103ba0       ?compare@?$basic_string@DU?$char_traits@D@std@@V?$allocator@D@2@@std@@QBEHIIPBDI@Z 005bcba0 f i platform:tinyxml.obj
 0002:00103cf0       ??0?$fpos@H@std@@QAE@_J@Z  005bccf0 f i platform:tinyxml.obj
 0002:00103d60       ??0sentry@?$basic_ostream@DU?$char_traits@D@std@@@std@@QAE@AAV12@@Z 005bcd60 f i platform:tinyxml.obj
 0002:00103ec0       ??1sentry@?$basic_ostream@DU?$char_traits@D@std@@@std@@QAE@XZ 005bcec0 f i platform:tinyxml.obj
 0002:00103f90       ??Bsentry@?$basic_ostream@DU?$char_traits@D@std@@@std@@QBEPQ_Bool_struct@2@HXZ 005bcf90 f i platform:tinyxml.obj
 0002:00103fe0       ??4?$basic_string@DU?$char_traits@D@std@@V?$allocator@D@2@@std@@QAEAAV01@ABV01@@Z 005bcfe0 f i platform:tinyxml.obj
 0002:00104040       ?append@?$basic_string@DU?$char_traits@D@std@@V?$allocator@D@2@@std@@QAEAAV12@ABV12@@Z 005bd040 f i platform:tinyxml.obj
 0002:001040a0       ?append@?$basic_string@DU?$char_traits@D@std@@V?$allocator@D@2@@std@@QAEAAV12@PBDI@Z 005bd0a0 f i platform:tinyxml.obj
 0002:001041e0       ?append@?$basic_string@DU?$char_traits@D@std@@V?$allocator@D@2@@std@@QAEAAV12@ID@Z 005bd1e0 f i platform:tinyxml.obj
 0002:001042b0       ?get_allocator@?$basic_string@DU?$char_traits@D@std@@V?$allocator@D@2@@std@@QBE?AV?$allocator@D@2@XZ 005bd2b0 f i platform:tinyxml.obj
 0002:00104310       ??0_Sentry_base@?$basic_ostream@DU?$char_traits@D@std@@@std@@QAE@AAV12@@Z 005bd310 f i platform:tinyxml.obj
 0002:001043e0       ??1_Sentry_base@?$basic_ostream@DU?$char_traits@D@std@@@std@@QAE@XZ 005bd3e0 f i platform:tinyxml.obj
 0002:001044a0       ?append@?$basic_string@DU?$char_traits@D@std@@V?$allocator@D@2@@std@@QAEAAV12@ABV12@II@Z 005bd4a0 f i platform:tinyxml.obj
 0002:001045c0       ?assign@?$basic_string@DU?$char_traits@D@std@@V?$allocator@D@2@@std@@QAEAAV12@ABV12@@Z 005bd5c0 f i platform:tinyxml.obj
 0002:00104620       ?_Chassign@?$basic_string@DU?$char_traits@D@std@@V?$allocator@D@2@@std@@QAEXIID@Z 005bd620 f i platform:tinyxml.obj
 0002:001046c0       ?assign@?$char_traits@D@std@@SAPADPADID@Z 005bd6c0 f i platform:tinyxml.obj
 0002:00104720       ??$?9DD@std@@YA_NABV?$allocator@D@0@0@Z 005bd720 f i platform:tinyxml.obj
 0002:00104780       ??$?8DD@std@@YA_NABV?$allocator@D@0@0@Z 005bd780 f i platform:tinyxml.obj
 0002:001047b0       ?ConvertUTF32ToUTF8@TiXmlBase@@KAXKPADPAH@Z 005bd7b0 f   platform:tinyxmlparser.obj
 0002:00104a10       ?IsAlpha@TiXmlBase@@KAHEW4TiXmlEncoding@@@Z 005bda10 f   platform:tinyxmlparser.obj
 0002:00104a90       ?IsAlphaNum@TiXmlBase@@KAHEW4TiXmlEncoding@@@Z 005bda90 f   platform:tinyxmlparser.obj
 0002:00104b10       ?Stamp@TiXmlParsingData@@QAEXPBDW4TiXmlEncoding@@@Z 005bdb10 f   platform:tinyxmlparser.obj
 0002:00105080       ?SkipWhiteSpace@TiXmlBase@@KAPBDPBDW4TiXmlEncoding@@@Z 005be080 f   platform:tinyxmlparser.obj
 0002:00105280       ?IsWhiteSpace@TiXmlBase@@KA_ND@Z 005be280 f i platform:tinyxmlparser.obj
 0002:00105320       ?StreamWhiteSpace@TiXmlBase@@KA_NPAV?$basic_istream@DU?$char_traits@D@std@@@std@@PAV?$basic_string@DU?$char_traits@D@std@@V?$allocator@D@2@@3@@Z 005be320 f   platform:tinyxmlparser.obj
 0002:00105400       ?IsWhiteSpace@TiXmlBase@@KA_NH@Z 005be400 f i platform:tinyxmlparser.obj
 0002:00105460       ?StreamTo@TiXmlBase@@KA_NPAV?$basic_istream@DU?$char_traits@D@std@@@std@@HPAV?$basic_string@DU?$char_traits@D@std@@V?$allocator@D@2@@3@@Z 005be460 f   platform:tinyxmlparser.obj
 0002:00105530       ?ReadName@TiXmlBase@@KAPBDPBDPAV?$basic_string@DU?$char_traits@D@std@@V?$allocator@D@2@@std@@W4TiXmlEncoding@@@Z 005be530 f   platform:tinyxmlparser.obj
 0002:001056b0       ?GetEntity@TiXmlBase@@KAPBDPBDPADPAHW4TiXmlEncoding@@@Z 005be6b0 f   platform:tinyxmlparser.obj
 0002:00105cc0       ?StringEqual@TiXmlBase@@KA_NPBD0_NW4TiXmlEncoding@@@Z 005becc0 f   platform:tinyxmlparser.obj
 0002:00105eb0       ?ToLower@TiXmlBase@@KAHHW4TiXmlEncoding@@@Z 005beeb0 f i platform:tinyxmlparser.obj
 0002:00105f50       ?ReadText@TiXmlBase@@KAPBDPBDPAV?$basic_string@DU?$char_traits@D@std@@V?$allocator@D@2@@std@@_N02W4TiXmlEncoding@@@Z 005bef50 f   platform:tinyxmlparser.obj
 0002:00106230       ?GetChar@TiXmlBase@@KAPBDPBDPADPAHW4TiXmlEncoding@@@Z 005bf230 f i platform:tinyxmlparser.obj
 0002:001063d0       ?StreamIn@TiXmlDocument@@MAEXPAV?$basic_istream@DU?$char_traits@D@std@@@std@@PAV?$basic_string@DU?$char_traits@D@std@@V?$allocator@D@2@@3@@Z 005bf3d0 f   platform:tinyxmlparser.obj
 0002:00106680       ?Parse@TiXmlDocument@@UAEPBDPBDPAVTiXmlParsingData@@W4TiXmlEncoding@@@Z 005bf680 f   platform:tinyxmlparser.obj
 0002:00106a70       ?Encoding@TiXmlDeclaration@@QBEPBDXZ 005bfa70 f i platform:tinyxmlparser.obj
 0002:00106ad0       ?TabSize@TiXmlDocument@@QBEHXZ 005bfad0 f i platform:tinyxmlparser.obj
 0002:00106b10       ?Cursor@TiXmlParsingData@@QAEABUTiXmlCursor@@XZ 005bfb10 f i platform:tinyxmlparser.obj
 0002:00106b50       ??0TiXmlParsingData@@AAE@PBDHHH@Z 005bfb50 f i platform:tinyxmlparser.obj
 0002:00106c10       ?SetError@TiXmlDocument@@QAEXHPBDPAVTiXmlParsingData@@W4TiXmlEncoding@@@Z 005bfc10 f   platform:tinyxmlparser.obj
 0002:00106d30       ?Identify@TiXmlNode@@IAEPAV1@PBDW4TiXmlEncoding@@@Z 005bfd30 f   platform:tinyxmlparser.obj
 0002:00107230       ?SetCDATA@TiXmlText@@QAEX_N@Z 005c0230 f i platform:tinyxmlparser.obj
 0002:00107280       ?StreamIn@TiXmlElement@@MAEXPAV?$basic_istream@DU?$char_traits@D@std@@@std@@PAV?$basic_string@DU?$char_traits@D@std@@V?$allocator@D@2@@3@@Z 005c0280 f   platform:tinyxmlparser.obj
 0002:00107980       ?Parse@TiXmlElement@@UAEPBDPBDPAVTiXmlParsingData@@W4TiXmlEncoding@@@Z 005c0980 f   platform:tinyxmlparser.obj
 0002:00108150       ?NameTStr@TiXmlAttribute@@QBEABV?$basic_string@DU?$char_traits@D@std@@V?$allocator@D@2@@std@@XZ 005c1150 f i platform:tinyxmlparser.obj
 0002:00108190       ?SetDocument@TiXmlAttribute@@QAEXPAVTiXmlDocument@@@Z 005c1190 f i platform:tinyxmlparser.obj
 0002:001081e0       ?ReadValue@TiXmlElement@@IAEPBDPBDPAVTiXmlParsingData@@W4TiXmlEncoding@@@Z 005c11e0 f   platform:tinyxmlparser.obj
 0002:00108540       ?IsWhiteSpaceCondensed@TiXmlBase@@SA_NXZ 005c1540 f i platform:tinyxmlparser.obj
 0002:00108580       ?StreamIn@TiXmlUnknown@@MAEXPAV?$basic_istream@DU?$char_traits@D@std@@@std@@PAV?$basic_string@DU?$char_traits@D@std@@V?$allocator@D@2@@3@@Z 005c1580 f   platform:tinyxmlparser.obj
 0002:00108660       ?Parse@TiXmlUnknown@@UAEPBDPBDPAVTiXmlParsingData@@W4TiXmlEncoding@@@Z 005c1660 f   platform:tinyxmlparser.obj
 0002:00108800       ?StreamIn@TiXmlComment@@MAEXPAV?$basic_istream@DU?$char_traits@D@std@@@std@@PAV?$basic_string@DU?$char_traits@D@std@@V?$allocator@D@2@@3@@Z 005c1800 f   platform:tinyxmlparser.obj
 0002:00108930       ?Parse@TiXmlComment@@UAEPBDPBDPAVTiXmlParsingData@@W4TiXmlEncoding@@@Z 005c1930 f   platform:tinyxmlparser.obj
 0002:00108af0       ?Parse@TiXmlAttribute@@UAEPBDPBDPAVTiXmlParsingData@@W4TiXmlEncoding@@@Z 005c1af0 f   platform:tinyxmlparser.obj
 0002:00108ea0       ?StreamIn@TiXmlText@@MAEXPAV?$basic_istream@DU?$char_traits@D@std@@@std@@PAV?$basic_string@DU?$char_traits@D@std@@V?$allocator@D@2@@3@@Z 005c1ea0 f   platform:tinyxmlparser.obj
 0002:00109020       ?Parse@TiXmlText@@UAEPBDPBDPAVTiXmlParsingData@@W4TiXmlEncoding@@@Z 005c2020 f   platform:tinyxmlparser.obj
 0002:00109300       ?StreamIn@TiXmlDeclaration@@MAEXPAV?$basic_istream@DU?$char_traits@D@std@@@std@@PAV?$basic_string@DU?$char_traits@D@std@@V?$allocator@D@2@@3@@Z 005c2300 f   platform:tinyxmlparser.obj
 0002:001093e0       ?Parse@TiXmlDeclaration@@UAEPBDPBDPAVTiXmlParsingData@@W4TiXmlEncoding@@@Z 005c23e0 f   platform:tinyxmlparser.obj
 0002:00109850       ?Blank@TiXmlText@@IBE_NXZ  005c2850 f   platform:tinyxmlparser.obj
 0002:00109900       ?at@?$basic_string@DU?$char_traits@D@std@@V?$allocator@D@2@@std@@QAEAADI@Z 005c2900 f i platform:tinyxmlparser.obj
 0002:00109970       ??A?$basic_string@DU?$char_traits@D@std@@V?$allocator@D@2@@std@@QAEAADI@Z 005c2970 f i platform:tinyxmlparser.obj
 0002:00109a00       ??0MessageSession@@QAE@H@Z 005c2a00 f   platform:messagesession.obj
 0002:00109ac0       ??1MessageSession@@QAE@XZ  005c2ac0 f   platform:messagesession.obj
 0002:00109b80       ?getSessionId@MessageSession@@QAEHXZ 005c2b80 f   platform:messagesession.obj
 0002:00109bc0       ?setObject@MessageSession@@QAEXPAVObject@@VString@@@Z 005c2bc0 f   platform:messagesession.obj
 0002:00109df0       ?getObject@MessageSession@@QAEPAVObject@@VString@@@Z 005c2df0 f   platform:messagesession.obj
 0002:00109ee0       ??0?$MapStringToClass@VObject@@@@QAE@XZ 005c2ee0 f i platform:messagesession.obj
 0002:00109f40       ??1?$MapStringToClass@VObject@@@@QAE@XZ 005c2f40 f i platform:messagesession.obj
 0002:00109fa0       ?add@?$MapStringToClass@VObject@@@@QAEHPBDPAVObject@@@Z 005c2fa0 f i platform:messagesession.obj
 0002:0010a1b0       ?get@?$MapStringToClass@VObject@@@@QAEPAVObject@@PBD@Z 005c31b0 f i platform:messagesession.obj
 0002:0010a260       ?destroy@?$MapStringToClass@VObject@@@@QAEXXZ 005c3260 f i platform:messagesession.obj
 0002:0010a350       ??_GObject@@QAEPAXI@Z      005c3350 f i platform:messagesession.obj
 0002:0010a3c0       ??0MessageChannel@@QAE@VString@@0_N1@Z 005c33c0 f   platform:messagechannel.obj
 0002:0010a5d0       ?getClass@MessageChannel@@UAEPBDXZ 005c35d0 f i platform:messagechannel.obj
 0002:0010a610       ??1MessageChannel@@QAE@XZ  005c3610 f   platform:messagechannel.obj
 0002:0010a760       ??_GMessageQueue@@QAEPAXI@Z 005c3760 f i platform:messagechannel.obj
 0002:0010a7d0       ?getName@MessageChannel@@QAE?AVString@@XZ 005c37d0 f   platform:messagechannel.obj
 0002:0010a890       ?threadChannelFunction@MessageChannel@@QAEXPAX@Z 005c3890 f   platform:messagechannel.obj
 0002:0010a8f0       ?open@MessageChannel@@QAEXXZ 005c38f0 f   platform:messagechannel.obj
 0002:0010aa70       ?start@MessageChannel@@QAEXXZ 005c3a70 f   platform:messagechannel.obj
 0002:0010ab90       ?stop@MessageChannel@@QAEXXZ 005c3b90 f   platform:messagechannel.obj
 0002:0010ac20       ?close@MessageChannel@@QAEXXZ 005c3c20 f   platform:messagechannel.obj
 0002:0010ad20       ?publish@MessageChannel@@QAE?AVString@@PAVMessageSession@@PAVMessagePublisher@@PBD@Z 005c3d20 f   platform:messagechannel.obj
 0002:0010ae80       ?publish@MessageChannel@@QAE?AVString@@PAVMessageSession@@PAVMessagePublisher@@PAVMessage@@@Z 005c3e80 f   platform:messagechannel.obj
 0002:0010b2c0       ?publish@MessageChannel@@QAE?AVString@@PAVMessageSession@@PAVMessage@@@Z 005c42c0 f   platform:messagechannel.obj
 0002:0010b6f0       ?addSubscription@MessageChannel@@QAEXVString@@PAVMessageSubscription@@@Z 005c46f0 f   platform:messagechannel.obj
 0002:0010b910       ?deleteSubscription@MessageChannel@@QAEXVString@@@Z 005c4910 f   platform:messagechannel.obj
 0002:0010ba00       ?addPublisher@MessageChannel@@QAEXVString@@PAVMessagePublisher@@@Z 005c4a00 f   platform:messagechannel.obj
 0002:0010bc40       ?deletePublisher@MessageChannel@@QAEXVString@@@Z 005c4c40 f   platform:messagechannel.obj
 0002:0010bd30       ?processMessages@MessageChannel@@QAEXXZ 005c4d30 f   platform:messagechannel.obj
 0002:0010bfb0       ?subscribeEvent@MessageChannel@@AAEXPAVMessage@@@Z 005c4fb0 f   platform:messagechannel.obj
 0002:0010c0b0       ?lock@MessageChannel@@AAEXXZ 005c50b0 f   platform:messagechannel.obj
 0002:0010c110       ?unlock@MessageChannel@@AAEXXZ 005c5110 f   platform:messagechannel.obj
 0002:0010c170       ?getNewMessageId@MessageChannel@@AAE?AVString@@XZ 005c5170 f   platform:messagechannel.obj
 0002:0010c310       ?disconnectSubscriptions@MessageChannel@@AAEXXZ 005c5310 f   platform:messagechannel.obj
 0002:0010c3b0       ?disconnectPublishers@MessageChannel@@AAEXXZ 005c53b0 f   platform:messagechannel.obj
 0002:0010c450       ??0?$MapStringToClass@VMessageSubscription@@@@QAE@XZ 005c5450 f i platform:messagechannel.obj
 0002:0010c4b0       ??1?$MapStringToClass@VMessageSubscription@@@@QAE@XZ 005c54b0 f i platform:messagechannel.obj
 0002:0010c510       ?add@?$MapStringToClass@VMessageSubscription@@@@QAEHPBDPAVMessageSubscription@@@Z 005c5510 f i platform:messagechannel.obj
 0002:0010c720       ?get@?$MapStringToClass@VMessageSubscription@@@@QAEPAVMessageSubscription@@PBD@Z 005c5720 f i platform:messagechannel.obj
 0002:0010c7d0       ?remove@?$MapStringToClass@VMessageSubscription@@@@QAEPAVMessageSubscription@@PBD@Z 005c57d0 f i platform:messagechannel.obj
 0002:0010c830       ?clear@?$MapStringToClass@VMessageSubscription@@@@QAEXXZ 005c5830 f i platform:messagechannel.obj
 0002:0010c890       ?count@?$MapStringToClass@VMessageSubscription@@@@QAEHXZ 005c5890 f i platform:messagechannel.obj
 0002:0010c8f0       ?getClassByIndex@?$MapStringToClass@VMessageSubscription@@@@QAEPAVMessageSubscription@@H@Z 005c58f0 f i platform:messagechannel.obj
 0002:0010c9b0       ??0?$MapStringToClass@VMessagePublisher@@@@QAE@XZ 005c59b0 f i platform:messagechannel.obj
 0002:0010ca10       ??1?$MapStringToClass@VMessagePublisher@@@@QAE@XZ 005c5a10 f i platform:messagechannel.obj
 0002:0010ca70       ?add@?$MapStringToClass@VMessagePublisher@@@@QAEHPBDPAVMessagePublisher@@@Z 005c5a70 f i platform:messagechannel.obj
 0002:0010cc80       ?get@?$MapStringToClass@VMessagePublisher@@@@QAEPAVMessagePublisher@@PBD@Z 005c5c80 f i platform:messagechannel.obj
 0002:0010cd30       ?remove@?$MapStringToClass@VMessagePublisher@@@@QAEPAVMessagePublisher@@PBD@Z 005c5d30 f i platform:messagechannel.obj
 0002:0010cd90       ?clear@?$MapStringToClass@VMessagePublisher@@@@QAEXXZ 005c5d90 f i platform:messagechannel.obj
 0002:0010cdf0       ?count@?$MapStringToClass@VMessagePublisher@@@@QAEHXZ 005c5df0 f i platform:messagechannel.obj
 0002:0010ce50       ?getClassByIndex@?$MapStringToClass@VMessagePublisher@@@@QAEPAVMessagePublisher@@H@Z 005c5e50 f i platform:messagechannel.obj
 0002:0010cf10       ?setSourceId@Message@@QAEXPBD@Z 005c5f10 f i platform:messagechannel.obj
 0002:0010cf70       ?setChannelMessageId@Message@@QAEXPBD@Z 005c5f70 f i platform:messagechannel.obj
 0002:0010cfd0       ?setSession@Message@@QAEXPAVMessageSession@@@Z 005c5fd0 f i platform:messagechannel.obj
 0002:0010d020       ?getSession@Message@@QAEPAVMessageSession@@XZ 005c6020 f i platform:messagechannel.obj
 0002:0010d060       ??0MessageSubscription@@QAE@PAVMessageSession@@PAVMessageChannel@@VString@@PAVMessageSubscriber@@@Z 005c6060 f   platform:messagesubscription.obj
 0002:0010d160       ??1MessageSubscription@@QAE@XZ 005c6160 f   platform:messagesubscription.obj
 0002:0010d210       ?getChannel@MessageSubscription@@QAEPAVMessageChannel@@XZ 005c6210 f   platform:messagesubscription.obj
 0002:0010d250       ?disconnected@MessageSubscription@@QAEXXZ 005c6250 f   platform:messagesubscription.obj
 0002:0010d2a0       ?processMessage@MessageSubscription@@QAEXPAVMessage@@@Z 005c62a0 f   platform:messagesubscription.obj
 0002:0010d900       ?setSelector@MessageSubscription@@QAEXVString@@@Z 005c6900 f   platform:messagesubscription.obj
 0002:0010de00       ?isMatchSelector@MessageSubscription@@AAE_NPAVMessage@@@Z 005c6e00 f   platform:messagesubscription.obj
 0002:0010e110       ?getChannelName@MessageSubscription@@QAE?AVString@@XZ 005c7110 f   platform:messagesubscription.obj
 0002:0010e1d0       ?getEndPoint@Message@@QAE?AVString@@XZ 005c71d0 f i platform:messagesubscription.obj
 0002:0010e290       ?getMessageType@Message@@QAE?AVString@@XZ 005c7290 f i platform:messagesubscription.obj
 0002:0010e350       ?getBaseType@Message@@QAE?AW4MsgType@1@XZ 005c7350 f i platform:messagesubscription.obj
 0002:0010e390       ??0LogDispatcher@@QAE@XZ   005c7390 f   platform:logdispatcher.obj
 0002:0010e490       ??1LogDispatcher@@QAE@XZ   005c7490 f   platform:logdispatcher.obj
 0002:0010e570       ?configure@LogDispatcher@@QAEXVXml@@@Z 005c7570 f   platform:logdispatcher.obj
 0002:0010eaf0       ?getDefaultLogManager@LogDispatcher@@QAEPAVLogManager@@XZ 005c7af0 f   platform:logdispatcher.obj
 0002:0010ebd0       ?getLogManager@LogDispatcher@@QAEPAVLogManager@@VString@@@Z 005c7bd0 f   platform:logdispatcher.obj
 0002:0010eeb0       ?getRootSettings@LogDispatcher@@SAPAVLogSettingsItem@@XZ 005c7eb0 f   platform:logdispatcher.obj
 0002:0010eef0       ?getObjectLogSettings@LogDispatcher@@QAEPAVLogSettingsItem@@PBD0@Z 005c7ef0 f   platform:logdispatcher.obj
 0002:0010ef70       ?getServiceLogSettings@LogDispatcher@@QAEPAVLogSettingsItem@@PBD@Z 005c7f70 f   platform:logdispatcher.obj
 0002:0010efe0       ?getCustomLogSettings@LogDispatcher@@QAEPAVLogSettingsItem@@PBD@Z 005c7fe0 f   platform:logdispatcher.obj
 0002:0010f050       ?getCustomDefaultLogSettings@LogDispatcher@@QAEPAVLogSettingsItem@@XZ 005c8050 f   platform:logdispatcher.obj
 0002:0010f0c0       ?start@LogDispatcher@@QAE_NXZ 005c80c0 f   platform:logdispatcher.obj
 0002:0010f180       ?stop@LogDispatcher@@QAEXXZ 005c8180 f   platform:logdispatcher.obj
 0002:0010f220       ?enableAsyncMode@LogDispatcher@@QAEXXZ 005c8220 f   platform:logdispatcher.obj
 0002:0010f2d0       ?disableAsyncMode@LogDispatcher@@QAEXXZ 005c82d0 f   platform:logdispatcher.obj
 0002:0010f370       ??0?$MapStringToClass@VLogManager@@@@QAE@XZ 005c8370 f i platform:logdispatcher.obj
 0002:0010f3d0       ??1?$MapStringToClass@VLogManager@@@@QAE@XZ 005c83d0 f i platform:logdispatcher.obj
 0002:0010f430       ?add@?$MapStringToClass@VLogManager@@@@QAEHPBDPAVLogManager@@@Z 005c8430 f i platform:logdispatcher.obj
 0002:0010f640       ?get@?$MapStringToClass@VLogManager@@@@QAEPAVLogManager@@PBD@Z 005c8640 f i platform:logdispatcher.obj
 0002:0010f6f0       ?count@?$MapStringToClass@VLogManager@@@@QAEHXZ 005c86f0 f i platform:logdispatcher.obj
 0002:0010f750       ?destroy@?$MapStringToClass@VLogManager@@@@QAEXXZ 005c8750 f i platform:logdispatcher.obj
 0002:0010f840       ?getClassByIndex@?$MapStringToClass@VLogManager@@@@QAEPAVLogManager@@H@Z 005c8840 f i platform:logdispatcher.obj
 0002:0010f900       ??_GLogManager@@QAEPAXI@Z  005c8900 f i platform:logdispatcher.obj
 0002:0010f970       ??0LogSettingsItem@@QAE@XZ 005c8970 f   platform:logsettingsitem.obj
 0002:0010fa80       ??1LogSettingsItem@@QAE@XZ 005c8a80 f   platform:logsettingsitem.obj
 0002:0010fb70       ?setLogManager@LogSettingsItem@@QAEXPAVLogManager@@@Z 005c8b70 f   platform:logsettingsitem.obj
 0002:0010fbc0       ?getLevel@LogSettingsItem@@QAE?AW4LogLevel@Logger@@XZ 005c8bc0 f   platform:logsettingsitem.obj
 0002:0010fc00       ?setName@LogSettingsItem@@QAEXVString@@@Z 005c8c00 f   platform:logsettingsitem.obj
 0002:0010fcb0       ?setLevel@LogSettingsItem@@QAEXW4LogLevel@Logger@@@Z 005c8cb0 f   platform:logsettingsitem.obj
 0002:0010fd00       ?setLevelByName@LogSettingsItem@@QAEXVString@@@Z 005c8d00 f   platform:logsettingsitem.obj
 0002:0010ffa0       ?getXml@LogSettingsItem@@QAE?AVXml@@XZ 005c8fa0 f   platform:logsettingsitem.obj
 0002:0010fff0       ?configure@LogSettingsItem@@QAEXVXml@@VString@@1@Z 005c8ff0 f   platform:logsettingsitem.obj
 0002:00110680       ?logDisabled@LogSettingsItem@@QAE_NW4LogLevel@Logger@@@Z 005c9680 f   platform:logsettingsitem.obj
 0002:001106d0       ?isExcluded@LogSettingsItem@@QAE_NPBD@Z 005c96d0 f   platform:logsettingsitem.obj
 0002:00110740       ?getSettings@LogSettingsItem@@QAEPAV1@PBD@Z 005c9740 f   platform:logsettingsitem.obj
 0002:001107d0       ?getLogManager@LogSettingsItem@@QAEPAVLogManager@@XZ 005c97d0 f   platform:logsettingsitem.obj
 0002:00110810       ?attachLogManagers@LogSettingsItem@@QAEXPAVLogDispatcher@@@Z 005c9810 f   platform:logsettingsitem.obj
 0002:001108c0       ?attachOwnLogManager@LogSettingsItem@@AAEXPAVLogDispatcher@@@Z 005c98c0 f   platform:logsettingsitem.obj
 0002:001109d0       ??0?$MapStringToClass@VLogSettingsItem@@@@QAE@XZ 005c99d0 f i platform:logsettingsitem.obj
 0002:00110a30       ??1?$MapStringToClass@VLogSettingsItem@@@@QAE@XZ 005c9a30 f i platform:logsettingsitem.obj
 0002:00110a90       ?add@?$MapStringToClass@VLogSettingsItem@@@@QAEHPBDPAVLogSettingsItem@@@Z 005c9a90 f i platform:logsettingsitem.obj
 0002:00110ca0       ?get@?$MapStringToClass@VLogSettingsItem@@@@QAEPAVLogSettingsItem@@PBD@Z 005c9ca0 f i platform:logsettingsitem.obj
 0002:00110d50       ?getPartial@?$MapStringToClass@VLogSettingsItem@@@@QAEPAVLogSettingsItem@@PBD@Z 005c9d50 f i platform:logsettingsitem.obj
 0002:00110ea0       ?count@?$MapStringToClass@VLogSettingsItem@@@@QAEHXZ 005c9ea0 f i platform:logsettingsitem.obj
 0002:00110f00       ?getClassByIndex@?$MapStringToClass@VLogSettingsItem@@@@QAEPAVLogSettingsItem@@H@Z 005c9f00 f i platform:logsettingsitem.obj
 0002:00110fc0       ??0LogManager@@QAE@XZ      005c9fc0 f   platform:logmanager.obj
 0002:001111d0       ??1LogManager@@QAE@XZ      005ca1d0 f   platform:logmanager.obj
 0002:00111540       ?configure@LogManager@@QAEXVXml@@@Z 005ca540 f   platform:logmanager.obj
 0002:00111810       ?setSyncMode@LogManager@@QAEX_N@Z 005ca810 f   platform:logmanager.obj
 0002:00111990       ?getSyncMode@LogManager@@QAE_NXZ 005ca990 f   platform:logmanager.obj
 0002:001119d0       ?getConfiguredSyncMode@LogManager@@QAE_NXZ 005ca9d0 f   platform:logmanager.obj
 0002:00111a10       ?start@LogManager@@QAE_NXZ 005caa10 f   platform:logmanager.obj
 0002:00111db0       ?stopAsync@LogManager@@QAEXXZ 005cadb0 f   platform:logmanager.obj
 0002:00111e20       ?stop@LogManager@@QAEXXZ   005cae20 f   platform:logmanager.obj
 0002:00111e80       ?run@LogManager@@QAEXPAX@Z 005cae80 f   platform:logmanager.obj
 0002:001120b0       ?output@LogManager@@AAEXPAULogRecord@1@@Z 005cb0b0 f   platform:logmanager.obj
 0002:001125d0       ?add@LogManager@@QAEXPAPBDHW4LogLevel@Logger@@PBD@Z 005cb5d0 f   platform:logmanager.obj
 0002:00112b10       ?set@LogManager@@AAEXPAULogRecord@1@_NPAPBDHW4LogLevel@Logger@@PBD@Z 005cbb10 f   platform:logmanager.obj
 0002:00112e60       ?clear@LogManager@@AAEXPAULogRecord@1@@Z 005cbe60 f   platform:logmanager.obj
 0002:00112f60       ?get@LogManager@@QAE_N_N@Z 005cbf60 f   platform:logmanager.obj
 0002:00113380       ?getLogRecordsPending@LogManager@@QAEHXZ 005cc380 f   platform:logmanager.obj
 0002:001133e0       ?showAsyncMessages@LogManager@@AAEXXZ 005cc3e0 f   platform:logmanager.obj
 0002:00113450       ??0ThreadHelper@@QAE@XZ    005cc450 f   platform:threadhelper.obj
 0002:00113510       ??_EThreadHelper@@UAEPAXI@Z 005cc510 f i platform:threadhelper.obj
 0002:00113510       ??_GThreadHelper@@UAEPAXI@Z 005cc510 f i platform:threadhelper.obj
 0002:00113580       ??0ThreadObject@@QAE@XZ    005cc580 f i platform:threadhelper.obj
 0002:001135d0       ??1ThreadHelper@@UAE@XZ    005cc5d0 f   platform:threadhelper.obj
 0002:00113690       ?addThreadObject@ThreadHelper@@QAEXXZ 005cc690 f   platform:threadhelper.obj
 0002:00113700       ?getThreadObject@ThreadHelper@@SAPAV1@XZ 005cc700 f   platform:threadhelper.obj
 0002:00113760       ??1ThreadObject@@UAE@XZ    005cc760 f i platform:threadhelper.obj
 0002:001137a0       ??_EThreadObject@@UAEPAXI@Z 005cc7a0 f i platform:threadhelper.obj
 0002:001137a0       ??_GThreadObject@@UAEPAXI@Z 005cc7a0 f i platform:threadhelper.obj
 0002:00113810       ??0ServiceSet@@QAE@XZ      005cc810 f   platform:serviceset.obj
 0002:001138e0       ??1ServiceSet@@QAE@XZ      005cc8e0 f   platform:serviceset.obj
 0002:001139a0       ?create@ServiceSet@@QAEXVString@@@Z 005cc9a0 f   platform:serviceset.obj
 0002:00113a60       ?isInitialized@ServiceSet@@QAE_NXZ 005cca60 f   platform:serviceset.obj
 0002:00113af0       ?isRunning@ServiceSet@@QAE_NXZ 005ccaf0 f   platform:serviceset.obj
 0002:00113b50       ?isCreated@ServiceSet@@QAE_NXZ 005ccb50 f   platform:serviceset.obj
 0002:00113bb0       ?addService@ServiceSet@@QAEXPAVService@@@Z 005ccbb0 f   platform:serviceset.obj
 0002:00113c20       ?findServiceByName@ServiceSet@@QAEPAVService@@VString@@@Z 005ccc20 f   platform:serviceset.obj
 0002:00113d70       ?createServices@ServiceSet@@QAEXAAV?$MapStringToClass@VService@@@@@Z 005ccd70 f   platform:serviceset.obj
 0002:00114710       ?initServices@ServiceSet@@QAEXAAV?$MapStringToClass@VService@@@@@Z 005cd710 f   platform:serviceset.obj
 0002:00114d90       ?runServices@ServiceSet@@QAEXXZ 005cdd90 f   platform:serviceset.obj
 0002:00115370       ?stopServices@ServiceSet@@QAEXXZ 005ce370 f   platform:serviceset.obj
 0002:00115b80       ?exitServices@ServiceSet@@QAEXXZ 005ceb80 f   platform:serviceset.obj
 0002:001164f0       ?destroyServices@ServiceSet@@QAEXAAV?$MapStringToClass@VService@@@@@Z 005cf4f0 f   platform:serviceset.obj
 0002:00116d70       ?add@?$ClassList@VService@@@@QAEHPAVService@@@Z 005cfd70 f i platform:serviceset.obj
 0002:00116e10       ?clear@?$ClassList@VService@@@@QAEXXZ 005cfe10 f i platform:serviceset.obj
 0002:00116e70       ?add@?$MapStringToClass@VService@@@@QAEHPBDPAVService@@@Z 005cfe70 f i platform:serviceset.obj
 0002:00117080       ?set@?$MapStringToClass@VService@@@@QAEPAVService@@PBDPAV2@@Z 005d0080 f i platform:serviceset.obj
 0002:00117150       ?remove@?$MapStringToClass@VService@@@@QAEPAVService@@PBD@Z 005d0150 f i platform:serviceset.obj
 0002:001171b0       ?getState@ServiceState@@QAE?AW4ServiceStateType@1@XZ 005d01b0 f i platform:serviceset.obj
 0002:001171f0       ?setState@ServiceState@@QAEXW4ServiceStateType@1@@Z 005d01f0 f i platform:serviceset.obj
 0002:001176c0       ?readyForExit@ServiceState@@QAE_NXZ 005d06c0 f i platform:serviceset.obj
 0002:00117730       ?exitRequired@ServiceState@@QAE_NXZ 005d0730 f i platform:serviceset.obj
 0002:00117790       ?newService@TestService@@SAPAVService@@XZ 005d0790 f   platform:testservice.obj
 0002:00117870       ??0TestService@@IAE@XZ     005d0870 f   platform:testservice.obj
 0002:00117950       ?configureService@TestService@@UAEXVXml@@@Z 005d0950 f   platform:testservice.obj
 0002:00117ba0       ?createService@TestService@@UAEXXZ 005d0ba0 f   platform:testservice.obj
 0002:00117c90       ?initService@TestService@@UAEXXZ 005d0c90 f   platform:testservice.obj
 0002:00117dd0       ?runService@TestService@@UAEXXZ 005d0dd0 f   platform:testservice.obj
 0002:00117e30       ?stopService@TestService@@UAEXXZ 005d0e30 f   platform:testservice.obj
 0002:00117e90       ?exitService@TestService@@UAEXXZ 005d0e90 f   platform:testservice.obj
 0002:00117ef0       ?destroyService@TestService@@UAEXXZ 005d0ef0 f   platform:testservice.obj
 0002:00117fa0       ??_GTestExecutor@@QAEPAXI@Z 005d0fa0 f i platform:testservice.obj
 0002:00118010       ??1TestExecutor@@QAE@XZ    005d1010 f i platform:testservice.obj
 0002:001180c0       ??1?$MapStringToClass@VTestUnit@@@@QAE@XZ 005d10c0 f i platform:testservice.obj
 0002:00118120       ?getServiceName@TestService@@UAEPBDXZ 005d1120 f i platform:testservice.obj
 0002:00118160       ??0SchedulerService@@IAE@XZ 005d1160 f   platform:schedulerservice.obj
 0002:00118240       ?newService@SchedulerService@@SAPAVService@@XZ 005d1240 f   platform:schedulerservice.obj
 0002:00118320       ?configureService@SchedulerService@@UAEXVXml@@@Z 005d1320 f   platform:schedulerservice.obj
 0002:00118460       ?createService@SchedulerService@@UAEXXZ 005d1460 f   platform:schedulerservice.obj
 0002:001184a0       ?initService@SchedulerService@@UAEXXZ 005d14a0 f   platform:schedulerservice.obj
 0002:001185f0       ?runService@SchedulerService@@UAEXXZ 005d15f0 f   platform:schedulerservice.obj
 0002:00118630       ?stopService@SchedulerService@@UAEXXZ 005d1630 f   platform:schedulerservice.obj
 0002:001186d0       ?exitService@SchedulerService@@UAEXXZ 005d16d0 f   platform:schedulerservice.obj
 0002:00118710       ?destroyService@SchedulerService@@UAEXXZ 005d1710 f   platform:schedulerservice.obj
 0002:00118770       ?getNotifyChannel@SchedulerService@@QAE?AVString@@XZ 005d1770 f   platform:schedulerservice.obj
 0002:00118830       ?createTimerTask@SchedulerService@@QAEPAVMessageSubscription@@VString@@HPAVMessageSubscriber@@@Z 005d1830 f   platform:schedulerservice.obj
 0002:00118980       ?subscribeTimerTask@SchedulerService@@QAEPAVMessageSubscription@@VString@@PAVMessageSubscriber@@@Z 005d1980 f   platform:schedulerservice.obj
 0002:00118b40       ?createTimerTask@SchedulerService@@QAEXVString@@H@Z 005d1b40 f   platform:schedulerservice.obj
 0002:00118ef0       ?dropTimerTask@SchedulerService@@QAEXVString@@@Z 005d1ef0 f   platform:schedulerservice.obj
 0002:00119020       ??_GSchedulerTask@@QAEPAXI@Z 005d2020 f i platform:schedulerservice.obj
 0002:00119090       ??0?$MapStringToClass@VSchedulerTask@@@@QAE@XZ 005d2090 f i platform:schedulerservice.obj
 0002:001190f0       ??1?$MapStringToClass@VSchedulerTask@@@@QAE@XZ 005d20f0 f i platform:schedulerservice.obj
 0002:00119150       ?add@?$MapStringToClass@VSchedulerTask@@@@QAEHPBDPAVSchedulerTask@@@Z 005d2150 f i platform:schedulerservice.obj
 0002:00119360       ?get@?$MapStringToClass@VSchedulerTask@@@@QAEPAVSchedulerTask@@PBD@Z 005d2360 f i platform:schedulerservice.obj
 0002:00119410       ?remove@?$MapStringToClass@VSchedulerTask@@@@QAEPAVSchedulerTask@@PBD@Z 005d2410 f i platform:schedulerservice.obj
 0002:00119470       ?count@?$MapStringToClass@VSchedulerTask@@@@QAEHXZ 005d2470 f i platform:schedulerservice.obj
 0002:001194d0       ?destroy@?$MapStringToClass@VSchedulerTask@@@@QAEXXZ 005d24d0 f i platform:schedulerservice.obj
 0002:001195c0       ?getClassByIndex@?$MapStringToClass@VSchedulerTask@@@@QAEPAVSchedulerTask@@H@Z 005d25c0 f i platform:schedulerservice.obj
 0002:00119680       ?getServiceName@SchedulerService@@UAEPBDXZ 005d2680 f i platform:schedulerservice.obj
 0002:001196c0       ?getMin@@YAMMM@Z           005d26c0 f   platform:mathservice.obj
 0002:00119730       ?getMax@@YAMMM@Z           005d2730 f   platform:mathservice.obj
 0002:001197a0       ?getMinMul@@YAMMMMM@Z      005d27a0 f   platform:mathservice.obj
 0002:00119890       ?getMaxMul@@YAMMMMM@Z      005d2890 f   platform:mathservice.obj
 0002:00119980       ?compareFloats@@YAHMMM@Z   005d2980 f   platform:mathservice.obj
 0002:00119a30       ?newService@MathService@@SAPAVService@@XZ 005d2a30 f   platform:mathservice.obj
 0002:00119b10       ??0MathService@@IAE@XZ     005d2b10 f i platform:mathservice.obj
 0002:00119bc0       ?getServiceName@MathService@@UAEPBDXZ 005d2bc0 f i platform:mathservice.obj
 0002:00119c00       ?configureService@MathService@@UAEXVXml@@@Z 005d2c00 f i platform:mathservice.obj
 0002:00119c40       ?createService@MathService@@UAEXXZ 005d2c40 f i platform:mathservice.obj
 0002:00119c80       ?initService@MathService@@UAEXXZ 005d2c80 f i platform:mathservice.obj
 0002:00119cc0       ?runService@MathService@@UAEXXZ 005d2cc0 f i platform:mathservice.obj
 0002:00119d00       ?stopService@MathService@@UAEXXZ 005d2d00 f i platform:mathservice.obj
 0002:00119d40       ?exitService@MathService@@UAEXXZ 005d2d40 f i platform:mathservice.obj
 0002:00119d80       ?destroyService@MathService@@UAEXXZ 005d2d80 f i platform:mathservice.obj
 0002:00119dc0       ?newService@PersistingService@@SAPAVService@@XZ 005d2dc0 f   platform:persistingservice.obj
 0002:00119ea0       ??0PersistingService@@IAE@XZ 005d2ea0 f i platform:persistingservice.obj
 0002:00119f50       ?getServiceName@PersistingService@@UAEPBDXZ 005d2f50 f i platform:persistingservice.obj
 0002:00119f90       ?configureService@PersistingService@@UAEXVXml@@@Z 005d2f90 f i platform:persistingservice.obj
 0002:00119fd0       ?createService@PersistingService@@UAEXXZ 005d2fd0 f i platform:persistingservice.obj
 0002:0011a010       ?initService@PersistingService@@UAEXXZ 005d3010 f i platform:persistingservice.obj
 0002:0011a050       ?runService@PersistingService@@UAEXXZ 005d3050 f i platform:persistingservice.obj
 0002:0011a090       ?stopService@PersistingService@@UAEXXZ 005d3090 f i platform:persistingservice.obj
 0002:0011a0d0       ?exitService@PersistingService@@UAEXXZ 005d30d0 f i platform:persistingservice.obj
 0002:0011a110       ?destroyService@PersistingService@@UAEXXZ 005d3110 f i platform:persistingservice.obj
 0002:0011a150       ?newService@MediaService@@SAPAVService@@XZ 005d3150 f   platform:mediaservice.obj
 0002:0011a230       ?configureService@MediaService@@UAEXVXml@@@Z 005d3230 f   platform:mediaservice.obj
 0002:0011a280       ?createService@MediaService@@UAEXXZ 005d3280 f   platform:mediaservice.obj
 0002:0011a440       ?initService@MediaService@@UAEXXZ 005d3440 f   platform:mediaservice.obj
 0002:0011a490       ?runService@MediaService@@UAEXXZ 005d3490 f   platform:mediaservice.obj
 0002:0011a4f0       ?stopService@MediaService@@UAEXXZ 005d34f0 f   platform:mediaservice.obj
 0002:0011a550       ?exitService@MediaService@@UAEXXZ 005d3550 f   platform:mediaservice.obj
 0002:0011a5b0       ?destroyService@MediaService@@UAEXXZ 005d35b0 f   platform:mediaservice.obj
 0002:0011a620       ?runListenerFactory@MediaService@@AAEPAVSocketListener@@VString@@VXml@@@Z 005d3620 f   platform:mediaservice.obj
 0002:0011a910       ?createListeners@MediaService@@AAEXVXml@@@Z 005d3910 f   platform:mediaservice.obj
 0002:0011ad60       ?startListeners@MediaService@@AAEXXZ 005d3d60 f   platform:mediaservice.obj
 0002:0011b250       ?getName@SocketListener@@QAE?AVString@@XZ 005d4250 f i platform:mediaservice.obj
 0002:0011b310       ?runActiveSocketFactory@MediaService@@AAEPAVActiveSocket@@VString@@VXml@@@Z 005d4310 f   platform:mediaservice.obj
 0002:0011b5f0       ?createActiveSockets@MediaService@@AAEXVXml@@@Z 005d45f0 f   platform:mediaservice.obj
 0002:0011ba40       ?startActiveSockets@MediaService@@AAEXXZ 005d4a40 f   platform:mediaservice.obj
 0002:0011be20       ?stopActiveSockets@MediaService@@AAEXXZ 005d4e20 f   platform:mediaservice.obj
 0002:0011bec0       ?stopListeners@MediaService@@AAEXXZ 005d4ec0 f   platform:mediaservice.obj
 0002:0011bf70       ?exitActiveSockets@MediaService@@AAEXXZ 005d4f70 f   platform:mediaservice.obj
 0002:0011c010       ?exitListeners@MediaService@@AAEXXZ 005d5010 f   platform:mediaservice.obj
 0002:0011c0c0       ?getActiveSocket@MediaService@@AAEPAVActiveSocket@@VString@@@Z 005d50c0 f   platform:mediaservice.obj
 0002:0011c3a0       ?sendTextToDirectChannel@MediaService@@QAEXVString@@00@Z 005d53a0 f   platform:mediaservice.obj
 0002:0011c520       ?receiveTextFromDirectChannel@MediaService@@QAE?AVString@@V2@0_N@Z 005d5520 f   platform:mediaservice.obj
 0002:0011c690       ?receiveFixedSizeTextFromDirectChannel@MediaService@@QAE?AVString@@V2@0H_N@Z 005d5690 f   platform:mediaservice.obj
 0002:0011c810       ?add@?$MapStringToClass@VSocketListener@@@@QAEHPBDPAVSocketListener@@@Z 005d5810 f i platform:mediaservice.obj
 0002:0011ca20       ?get@?$MapStringToClass@VSocketListener@@@@QAEPAVSocketListener@@PBD@Z 005d5a20 f i platform:mediaservice.obj
 0002:0011cad0       ?count@?$MapStringToClass@VSocketListener@@@@QAEHXZ 005d5ad0 f i platform:mediaservice.obj
 0002:0011cb30       ?destroy@?$MapStringToClass@VSocketListener@@@@QAEXXZ 005d5b30 f i platform:mediaservice.obj
 0002:0011cc40       ?getClassByIndex@?$MapStringToClass@VSocketListener@@@@QAEPAVSocketListener@@H@Z 005d5c40 f i platform:mediaservice.obj
 0002:0011cd00       ?add@?$MapStringToClass@VActiveSocket@@@@QAEHPBDPAVActiveSocket@@@Z 005d5d00 f i platform:mediaservice.obj
 0002:0011cf10       ?get@?$MapStringToClass@VActiveSocket@@@@QAEPAVActiveSocket@@PBD@Z 005d5f10 f i platform:mediaservice.obj
 0002:0011cfc0       ?count@?$MapStringToClass@VActiveSocket@@@@QAEHXZ 005d5fc0 f i platform:mediaservice.obj
 0002:0011d020       ?destroy@?$MapStringToClass@VActiveSocket@@@@QAEXXZ 005d6020 f i platform:mediaservice.obj
 0002:0011d130       ?getClassByIndex@?$MapStringToClass@VActiveSocket@@@@QAEPAVActiveSocket@@H@Z 005d6130 f i platform:mediaservice.obj
 0002:0011d1f0       ??0MediaService@@IAE@XZ    005d61f0 f i platform:mediaservice.obj
 0002:0011d2d0       ?getServiceName@MediaService@@UAEPBDXZ 005d62d0 f i platform:mediaservice.obj
 0002:0011d310       ??0?$MapStringToClass@VSocketListener@@@@QAE@XZ 005d6310 f i platform:mediaservice.obj
 0002:0011d370       ??1?$MapStringToClass@VSocketListener@@@@QAE@XZ 005d6370 f i platform:mediaservice.obj
 0002:0011d3d0       ??0?$MapStringToClass@VActiveSocket@@@@QAE@XZ 005d63d0 f i platform:mediaservice.obj
 0002:0011d430       ??1?$MapStringToClass@VActiveSocket@@@@QAE@XZ 005d6430 f i platform:mediaservice.obj
 0002:0011d490       ?configureLifecycle@Service@@QAEXVXml@@@Z 005d6490 f   platform:service.obj
 0002:0011d690       ??0EnvXmlDoc@@QAE@VXml@@_J@Z 005d6690 f   platform:envxmldoc.obj
 0002:0011d710       ??1EnvXmlDoc@@QAE@XZ       005d6710 f   platform:envxmldoc.obj
 0002:0011d780       ?isModified@EnvXmlDoc@@QAE_N_J@Z 005d6780 f   platform:envxmldoc.obj
 0002:0011d7f0       ??0ThreadPool@@QAE@VString@@@Z 005d67f0 f   platform:threadpool.obj
 0002:0011d910       ??0ThreadState@@QAE@XZ     005d6910 f i platform:threadpool.obj
 0002:0011d960       ?getClass@ThreadPool@@UAEPBDXZ 005d6960 f i platform:threadpool.obj
 0002:0011d9a0       ??1ThreadPool@@QAE@XZ      005d69a0 f   platform:threadpool.obj
 0002:0011da80       ?configure@ThreadPool@@QAEXVXml@@@Z 005d6a80 f   platform:threadpool.obj
 0002:0011dca0       ?create@ThreadPool@@QAEXAAV?$ClassList@VThreadPoolTask@@@@@Z 005d6ca0 f   platform:threadpool.obj
 0002:0011e4b0       ?create@ThreadPool@@QAEXAAV?$ResourcePool@VThreadPoolTask@@@@@Z 005d74b0 f   platform:threadpool.obj
 0002:0011eaf0       ?ensureStopped@ThreadPool@@QAEXXZ 005d7af0 f   platform:threadpool.obj
 0002:0011eb60       ?getState@ThreadState@@QAE?AW4ThreadStateType@1@XZ 005d7b60 f i platform:threadpool.obj
 0002:0011eba0       ?start@ThreadPool@@QAEXXZ  005d7ba0 f   platform:threadpool.obj
 0002:0011edb0       ?setState@ThreadState@@QAEXW4ThreadStateType@1@@Z 005d7db0 f i platform:threadpool.obj
 0002:0011f1c0       ?suspend@ThreadPool@@QAEXXZ 005d81c0 f   platform:threadpool.obj
 0002:0011f290       ?resume@ThreadPool@@QAEXXZ 005d8290 f   platform:threadpool.obj
 0002:0011f360       ?stop@ThreadPool@@QAEXXZ   005d8360 f   platform:threadpool.obj
 0002:0011f4a0       ?isActive@ThreadState@@QAE_NXZ 005d84a0 f i platform:threadpool.obj
 0002:0011f510       ?runMonitorThread@ThreadPool@@IAEXPAX@Z 005d8510 f   platform:threadpool.obj
 0002:0011f5d0       ?runMonitorTask@ThreadPool@@IAEXXZ 005d85d0 f   platform:threadpool.obj
 0002:0011fa90       ??0?$ClassList@VThreadPoolItem@@@@QAE@XZ 005d8a90 f i platform:threadpool.obj
 0002:0011faf0       ??1?$ClassList@VThreadPoolItem@@@@QAE@XZ 005d8af0 f i platform:threadpool.obj
 0002:0011fb50       ?count@?$ClassList@VThreadPoolItem@@@@QBEHXZ 005d8b50 f i platform:threadpool.obj
 0002:0011fbb0       ?get@?$ClassList@VThreadPoolItem@@@@QBEPAVThreadPoolItem@@H@Z 005d8bb0 f i platform:threadpool.obj
 0002:0011fc10       ?add@?$ClassList@VThreadPoolItem@@@@QAEHPAVThreadPoolItem@@@Z 005d8c10 f i platform:threadpool.obj
 0002:0011fcb0       ?destroy@?$ClassList@VThreadPoolItem@@@@QAEXXZ 005d8cb0 f i platform:threadpool.obj
 0002:0011fd90       ??0?$ClassList@VThreadPoolTask@@@@QAE@XZ 005d8d90 f i platform:threadpool.obj
 0002:0011fdf0       ??1?$ClassList@VThreadPoolTask@@@@QAE@XZ 005d8df0 f i platform:threadpool.obj
 0002:0011fe50       ?count@?$ClassList@VThreadPoolTask@@@@QBEHXZ 005d8e50 f i platform:threadpool.obj
 0002:0011feb0       ?get@?$ClassList@VThreadPoolTask@@@@QBEPAVThreadPoolTask@@H@Z 005d8eb0 f i platform:threadpool.obj
 0002:0011ff10       ?add@?$ClassList@VThreadPoolTask@@@@QAEHPAVThreadPoolTask@@@Z 005d8f10 f i platform:threadpool.obj
 0002:0011ffb0       ?allocate@?$ClassList@VThreadPoolTask@@@@QAEXH@Z 005d8fb0 f i platform:threadpool.obj
 0002:00120020       ??_GThreadPoolItem@@QAEPAXI@Z 005d9020 f i platform:threadpool.obj
 0002:00120090       ??A?$ClassList@VThreadPoolItem@@@@QAEAAPAVThreadPoolItem@@H@Z 005d9090 f i platform:threadpool.obj
 0002:001200f0       ?clear@?$ClassList@VThreadPoolItem@@@@QAEXXZ 005d90f0 f i platform:threadpool.obj
 0002:00120150       ??0ThreadData@@QAE@XZ      005d9150 f   platform:threaddata.obj
 0002:00120260       ??1ThreadData@@QAE@XZ      005d9260 f   platform:threaddata.obj
 0002:00120320       ?stopThread@ThreadData@@QAEXXZ 005d9320 f   platform:threaddata.obj
 0002:00120380       ?checkStopped@ThreadData@@QAE_NXZ 005d9380 f   platform:threaddata.obj
 0002:001203c0       ?setHandleExceptions@ThreadData@@QAEXXZ 005d93c0 f   platform:threaddata.obj
 0002:001204b0       ??0?$MapStringToClass@VThreadObject@@@@QAE@XZ 005d94b0 f i platform:threaddata.obj
 0002:00120510       ??1?$MapStringToClass@VThreadObject@@@@QAE@XZ 005d9510 f i platform:threaddata.obj
 0002:00120570       ??0StatMetric@@QAE@XZ      005d9570 f   platform:statmetric.obj
 0002:00120660       ?getClass@StatMetric@@UAEPBDXZ 005d9660 f i platform:statmetric.obj
 0002:001206a0       ??1StatMetric@@QAE@XZ      005d96a0 f   platform:statmetric.obj
 0002:00120760       ?configure@StatMetric@@QAEXVXml@@@Z 005d9760 f   platform:statmetric.obj
 0002:00120b60       ?addMetricValue@StatMetric@@QAEXH@Z 005d9b60 f   platform:statmetric.obj
 0002:00120be0       ?prepareCalculate@StatMetric@@QAEXW4MetricAggregate@1@@Z 005d9be0 f   platform:statmetric.obj
 0002:00120c40       ?getCount@StatMetric@@QAEHXZ 005d9c40 f   platform:statmetric.obj
 0002:00120c80       ?calculate@StatMetric@@QAEHW4MetricAggregate@1@@Z 005d9c80 f   platform:statmetric.obj
 0002:00120d30       ?reset@StatMetric@@QAEXXZ  005d9d30 f   platform:statmetric.obj
 0002:00120d90       ??0StatLogTask@@QAE@XZ     005d9d90 f   platform:statlogtask.obj
 0002:00120e80       ?getClass@StatLogTask@@UAEPBDXZ 005d9e80 f i platform:statlogtask.obj
 0002:00120ec0       ??1StatLogTask@@QAE@XZ     005d9ec0 f   platform:statlogtask.obj
 0002:00120fa0       ?configure@StatLogTask@@QAEXVXml@@@Z 005d9fa0 f   platform:statlogtask.obj
 0002:001212d0       ?create@StatLogTask@@QAEXXZ 005da2d0 f   platform:statlogtask.obj
 0002:00121370       ?start@StatLogTask@@QAEXXZ 005da370 f   platform:statlogtask.obj
 0002:00121660       ?stop@StatLogTask@@QAEXXZ  005da660 f   platform:statlogtask.obj
 0002:00121870       ?onTextMessage@StatLogTask@@EAEXPAVTextMessage@@@Z 005da870 f   platform:statlogtask.obj
 0002:00121a90       ?resetMetrics@StatLogTask@@QAEXXZ 005daa90 f   platform:statlogtask.obj
 0002:00121b30       ??0?$ClassList@VStatLogRecord@@@@QAE@XZ 005dab30 f i platform:statlogtask.obj
 0002:00121b90       ??1?$ClassList@VStatLogRecord@@@@QAE@XZ 005dab90 f i platform:statlogtask.obj
 0002:00121bf0       ?count@?$ClassList@VStatLogRecord@@@@QBEHXZ 005dabf0 f i platform:statlogtask.obj
 0002:00121c50       ?get@?$ClassList@VStatLogRecord@@@@QBEPAVStatLogRecord@@H@Z 005dac50 f i platform:statlogtask.obj
 0002:00121cb0       ?add@?$ClassList@VStatLogRecord@@@@QAEHPAVStatLogRecord@@@Z 005dacb0 f i platform:statlogtask.obj
 0002:00121d50       ?destroy@?$ClassList@VStatLogRecord@@@@QAEXXZ 005dad50 f i platform:statlogtask.obj
 0002:00121e30       ??_GStatLogRecord@@QAEPAXI@Z 005dae30 f i platform:statlogtask.obj
 0002:00121ea0       ??A?$ClassList@VStatLogRecord@@@@QAEAAPAVStatLogRecord@@H@Z 005daea0 f i platform:statlogtask.obj
 0002:00121f00       ?clear@?$ClassList@VStatLogRecord@@@@QAEXXZ 005daf00 f i platform:statlogtask.obj
 0002:00121f60       ?getService@SchedulerService@@SAPAV1@XZ 005daf60 f i platform:statlogtask.obj
 0002:00121fc0       ??0ObjectField@@QAE@XZ     005dafc0 f   platform:objectfield.obj
 0002:00122080       ?init@ObjectField@@QAEXXZ  005db080 f   platform:objectfield.obj
 0002:00122110       ??0ObjectField@@QAE@HPBDD_N@Z 005db110 f   platform:objectfield.obj
 0002:00122410       ??0ObjectField@@QAE@HPBDPAVSerializeObject@@_N@Z 005db410 f   platform:objectfield.obj
 0002:00122590       ??1ObjectField@@QAE@XZ     005db590 f   platform:objectfield.obj
 0002:001226c0       ??_G?$FlatList@PAVObject@@@@QAEPAXI@Z 005db6c0 f i platform:objectfield.obj
 0002:00122730       ?clearData@ObjectField@@QAEX_N@Z 005db730 f   platform:objectfield.obj
 0002:00122910       ?getFieldSerializeObject@ObjectField@@QAEPAVSerializeObject@@XZ 005db910 f   platform:objectfield.obj
 0002:001229c0       ?isChar@ObjectField@@QAE_NXZ 005db9c0 f   platform:objectfield.obj
 0002:00122a10       ?isInt@ObjectField@@QAE_NXZ 005dba10 f   platform:objectfield.obj
 0002:00122a90       ?isFloat@ObjectField@@QAE_NXZ 005dba90 f   platform:objectfield.obj
 0002:00122b10       ?isString@ObjectField@@QAE_NXZ 005dbb10 f   platform:objectfield.obj
 0002:00122b90       ?isObject@ObjectField@@QAE_NXZ 005dbb90 f   platform:objectfield.obj
 0002:00122c10       ?isList@ObjectField@@QAE_NXZ 005dbc10 f   platform:objectfield.obj
 0002:00122cb0       ?getChar@ObjectField@@QAEDXZ 005dbcb0 f   platform:objectfield.obj
 0002:00122d50       ?getInt@ObjectField@@QAEHXZ 005dbd50 f   platform:objectfield.obj
 0002:00122df0       ?getFloat@ObjectField@@QAEMXZ 005dbdf0 f   platform:objectfield.obj
 0002:00122e90       ?getString@ObjectField@@QAEPBD_N@Z 005dbe90 f   platform:objectfield.obj
 0002:00122f40       ?getObject@ObjectField@@QAEPAVObject@@_N@Z 005dbf40 f   platform:objectfield.obj
 0002:00122ff0       ?getIntList@ObjectField@@QAEPAHPAH_N@Z 005dbff0 f   platform:objectfield.obj
 0002:001230b0       ?getFloatList@ObjectField@@QAEPAMPAH_N@Z 005dc0b0 f   platform:objectfield.obj
 0002:00123170       ?getStringList@ObjectField@@QAEPAPBDPAH_N@Z 005dc170 f   platform:objectfield.obj
 0002:00123230       ?getObjectList@ObjectField@@QAEPAV?$FlatList@PAVObject@@@@XZ 005dc230 f   platform:objectfield.obj
 0002:00123440       ?setChar@ObjectField@@QAEXD@Z 005dc440 f   platform:objectfield.obj
 0002:001234e0       ?setInt@ObjectField@@QAEXH@Z 005dc4e0 f   platform:objectfield.obj
 0002:00123580       ?setFloat@ObjectField@@QAEXM@Z 005dc580 f   platform:objectfield.obj
 0002:00123620       ?setString@ObjectField@@QAEXPBD_N@Z 005dc620 f   platform:objectfield.obj
 0002:001236e0       ?setObject@ObjectField@@QAEXPAVObject@@_N@Z 005dc6e0 f   platform:objectfield.obj
 0002:001237a0       ?setIntList@ObjectField@@QAEXPAHH_N@Z 005dc7a0 f   platform:objectfield.obj
 0002:00123860       ?setFloatList@ObjectField@@QAEXPAMH_N@Z 005dc860 f   platform:objectfield.obj
 0002:00123920       ?setStringList@ObjectField@@QAEXPAPBDH_N@Z 005dc920 f   platform:objectfield.obj
 0002:001239e0       ?setObjectList@ObjectField@@QAEXPAV?$ClassList@VObject@@@@_N@Z 005dc9e0 f   platform:objectfield.obj
 0002:00123b10       ?getBaseType@ObjectField@@QAEDXZ 005dcb10 f   platform:objectfield.obj
 0002:00123c50       ?getId@ObjectField@@QAEHXZ 005dcc50 f   platform:objectfield.obj
 0002:00123c90       ?getName@ObjectField@@QAEPBDXZ 005dcc90 f   platform:objectfield.obj
 0002:00123cf0       ?getClass@ObjectField@@UAEPBDXZ 005dccf0 f   platform:objectfield.obj
 0002:00123d30       ?createSerializeObject@ObjectField@@SAXXZ 005dcd30 f   platform:objectfield.obj
 0002:00123e80       ?onCreate@ObjectField@@SAPAVObject@@PBD@Z 005dce80 f i platform:objectfield.obj
 0002:00123f60       ?getSerializeObject@ObjectField@@SAPAVSerializeObject@@XZ 005dcf60 f   platform:objectfield.obj
 0002:00123fc0       ?serialize@ObjectField@@UAEXAAVSerializeObject@@@Z 005dcfc0 f   platform:objectfield.obj
 0002:00124090       ?deserialize@ObjectField@@UAEXPAVObject@@AAVSerializeObject@@@Z 005dd090 f   platform:objectfield.obj
 0002:00124360       ?getPK@ObjectField@@UAE?AVString@@XZ 005dd360 f   platform:objectfield.obj
 0002:001244a0       ?attach@ObjectField@@QAEXPAVSerializeObject@@@Z 005dd4a0 f   platform:objectfield.obj
 0002:001244f0       ??0?$FlatList@PAVObject@@@@QAE@XZ 005dd4f0 f i platform:objectfield.obj
 0002:00124550       ??1?$FlatList@PAVObject@@@@QAE@XZ 005dd550 f i platform:objectfield.obj
 0002:001245c0       ?destroy@?$FlatList@PAVObject@@@@QAEXXZ 005dd5c0 f i platform:objectfield.obj
 0002:00124650       ?create@?$FlatList@PAVObject@@@@QAEXH@Z 005dd650 f i platform:objectfield.obj
 0002:00124820       ?get@?$ClassList@VObject@@@@QBEPAVObject@@H@Z 005dd820 f i platform:objectfield.obj
 0002:00124880       ?allocate@?$FlatList@PAVObject@@@@QAEXH@Z 005dd880 f i platform:objectfield.obj
 0002:00124900       ?allocateExact@?$FlatList@PAVObject@@@@QAEXH@Z 005dd900 f i platform:objectfield.obj
 0002:001249f0       ??0Scale@@QAE@XZ           005dd9f0 f   platform:scale.obj
 0002:00124ad0       ?getClass@Scale@@UAEPBDXZ  005ddad0 f i platform:scale.obj
 0002:00124b10       ?setRangeFrom@Scale@@QAEXMM@Z 005ddb10 f   platform:scale.obj
 0002:00124b80       ?setRangeTo@Scale@@QAEXMM@Z 005ddb80 f   platform:scale.obj
 0002:00124bf0       ?scale@Scale@@QAEMM@Z      005ddbf0 f   platform:scale.obj
 0002:00124c60       ?unscale@Scale@@QAEMM@Z    005ddc60 f   platform:scale.obj
 0002:00124cd0       ?setDoScale@Scale@@QAEX_N@Z 005ddcd0 f   platform:scale.obj
 0002:00124d20       ?set@Scale@@QAEXABV1@@Z    005ddd20 f   platform:scale.obj
 0002:00124dc0       ?unscaleDiffNormalized@Scale@@QAEMMM@Z 005dddc0 f   platform:scale.obj
 0002:00124fd0       ?recalculateRate@Scale@@AAEXXZ 005ddfd0 f   platform:scale.obj
 0002:00125050       ?createSerializeObject@Scale@@SAXXZ 005de050 f   platform:scale.obj
 0002:001251c0       ?onCreate@Scale@@SAPAVObject@@PBD@Z 005de1c0 f i platform:scale.obj
 0002:001252a0       ?serialize@Scale@@UAEXAAVSerializeObject@@@Z 005de2a0 f   platform:scale.obj
 0002:001253a0       ?deserialize@Scale@@UAEXPAVObject@@AAVSerializeObject@@@Z 005de3a0 f   platform:scale.obj
 0002:00125480       ??0MessageQueue@@QAE@VString@@@Z 005de480 f   platform:messagequeue.obj
 0002:001255b0       ?getClass@MessageQueue@@UAEPBDXZ 005de5b0 f i platform:messagequeue.obj
 0002:001255f0       ??1MessageQueue@@QAE@XZ    005de5f0 f   platform:messagequeue.obj
 0002:00125700       ?addMessage@MessageQueue@@QAEXPAVMessage@@@Z 005de700 f   platform:messagequeue.obj
 0002:001258f0       ?getNextMessage@MessageQueue@@QAEPAVMessage@@XZ 005de8f0 f   platform:messagequeue.obj
 0002:00125bc0       ?getNextMessageNoLock@MessageQueue@@QAEPAVMessage@@XZ 005debc0 f   platform:messagequeue.obj
 0002:00125cb0       ?wakeup@MessageQueue@@QAEXXZ 005decb0 f   platform:messagequeue.obj
 0002:00125d30       ?makeEmptyAndWakeup@MessageQueue@@QAEXXZ 005ded30 f   platform:messagequeue.obj
 0002:00125db0       ?isEmpty@MessageQueue@@QAE_NXZ 005dedb0 f   platform:messagequeue.obj
 0002:00125e40       ?clearMessages@MessageQueue@@AAEXXZ 005dee40 f   platform:messagequeue.obj
 0002:00125f50       ??0LogSettings@@QAE@XZ     005def50 f   platform:logsettings.obj
 0002:00126070       ??1LogSettings@@QAE@XZ     005df070 f   platform:logsettings.obj
 0002:001261c0       ?load@LogSettings@@QAEXVXml@@@Z 005df1c0 f   platform:logsettings.obj
 0002:00126360       ?readLevels@LogSettings@@AAEXVXml@@PBDAAV?$MapStringToClass@VLogSettingsItem@@@@AAVLogSettingsItem@@@Z 005df360 f   platform:logsettings.obj
 0002:00126a00       ?getDefaultSettings@LogSettings@@QAEPAVLogSettingsItem@@XZ 005dfa00 f   platform:logsettings.obj
 0002:00126a40       ?getCustomDefaultSettings@LogSettings@@QAEPAVLogSettingsItem@@XZ 005dfa40 f   platform:logsettings.obj
 0002:00126a80       ?getObjectSettings@LogSettings@@QAEPAVLogSettingsItem@@PBD0@Z 005dfa80 f   platform:logsettings.obj
 0002:00126b10       ?getServiceSettings@LogSettings@@QAEPAVLogSettingsItem@@PBD@Z 005dfb10 f   platform:logsettings.obj
 0002:00126b90       ?getCustomSettings@LogSettings@@QAEPAVLogSettingsItem@@PBD@Z 005dfb90 f   platform:logsettings.obj
 0002:00126c00       ?attachLogManagers@LogSettings@@QAEXPAVLogDispatcher@@@Z 005dfc00 f   platform:logsettings.obj
 0002:00126cd0       ?attachLogManagers@LogSettings@@AAEXPAVLogDispatcher@@AAV?$MapStringToClass@VLogSettingsItem@@@@AAVLogSettingsItem@@@Z 005dfcd0 f   platform:logsettings.obj
 0002:00126d80       ?destroy@?$MapStringToClass@VLogSettingsItem@@@@QAEXXZ 005dfd80 f i platform:logsettings.obj
 0002:00126e70       ??_GLogSettingsItem@@QAEPAXI@Z 005dfe70 f i platform:logsettings.obj
 0002:00126ee0       ??0TestExecutor@@QAE@XZ    005dfee0 f   platform:testexecutor.obj
 0002:00126fe0       ?getClass@TestExecutor@@MAEPBDXZ 005dffe0 f i platform:testexecutor.obj
 0002:00127020       ?connectChannels@TestExecutor@@QAEXVString@@0@Z 005e0020 f   platform:testexecutor.obj
 0002:00127250       ?start@TestExecutor@@QAEXXZ 005e0250 f   platform:testexecutor.obj
 0002:00127440       ?stop@TestExecutor@@QAEXXZ 005e0440 f   platform:testexecutor.obj
 0002:001274c0       ?exit@TestExecutor@@QAEXXZ 005e04c0 f   platform:testexecutor.obj
 0002:00127580       ?addTestUnit@TestExecutor@@QAEXPAVTestUnit@@@Z 005e0580 f   platform:testexecutor.obj
 0002:00127620       ?onXmlCall@TestExecutor@@MAEXPAVXmlCall@@@Z 005e0620 f   platform:testexecutor.obj
 0002:00127f10       ?count@?$MapStringToClass@VTestMethod@@@@QAEHXZ 005e0f10 f i platform:testexecutor.obj
 0002:00127f70       ?getKeyByIndex@?$MapStringToClass@VTestMethod@@@@QAEPBDH@Z 005e0f70 f i platform:testexecutor.obj
 0002:00128020       ??0?$MapStringToClass@VTestUnit@@@@QAE@XZ 005e1020 f i platform:testexecutor.obj
 0002:00128080       ?add@?$MapStringToClass@VTestUnit@@@@QAEHPBDPAVTestUnit@@@Z 005e1080 f i platform:testexecutor.obj
 0002:00128290       ?get@?$MapStringToClass@VTestUnit@@@@QAEPAVTestUnit@@PBD@Z 005e1290 f i platform:testexecutor.obj
 0002:00128340       ?count@?$MapStringToClass@VTestUnit@@@@QAEHXZ 005e1340 f i platform:testexecutor.obj
 0002:001283a0       ?destroy@?$MapStringToClass@VTestUnit@@@@QAEXXZ 005e13a0 f i platform:testexecutor.obj
 0002:001284b0       ?getClassByIndex@?$MapStringToClass@VTestUnit@@@@QAEPAVTestUnit@@H@Z 005e14b0 f i platform:testexecutor.obj
 0002:00128570       ?createThreadPoolTest@TestUnit@@SAPAV1@XZ 005e1570 f   platform:threadpooltest.obj
 0002:00128650       ??0ThreadPoolTest@@QAE@XZ  005e1650 f i platform:threadpooltest.obj
 0002:00128750       ?getClass@TestUnit@@UAEPBDXZ 005e1750 f i platform:threadpooltest.obj
 0002:001287b0       ?onInit@TestUnit@@UAEXXZ   005e17b0 f i platform:threadpooltest.obj
 0002:001287f0       ?onExit@TestUnit@@UAEXXZ   005e17f0 f i platform:threadpooltest.obj
 0002:00128830       ?onCreate@ThreadPoolTest@@UAEXXZ 005e1830 f i platform:threadpooltest.obj
 0002:00128b60       ?testWorkflow@ThreadPoolTest@@QAEXAAVXmlCall@@@Z 005e1b60 f i platform:threadpooltest.obj
 0002:001292b0       ??0ThreadPoolTest_Task@@QAE@VString@@H@Z 005e22b0 f i platform:threadpooltest.obj
 0002:001293b0       ?getClass@ThreadPoolTest_Task@@UAEPBDXZ 005e23b0 f i platform:threadpooltest.obj
 0002:001293f0       ?execute@ThreadPoolTest_Task@@UAEXXZ 005e23f0 f i platform:threadpooltest.obj
 0002:00129550       ??_EThreadPoolTest_Task@@UAEPAXI@Z 005e2550 f i platform:threadpooltest.obj
 0002:00129550       ??_GThreadPoolTest_Task@@UAEPAXI@Z 005e2550 f i platform:threadpooltest.obj
 0002:001295c0       ??1ThreadPoolTest_Task@@UAE@XZ 005e25c0 f i platform:threadpooltest.obj
 0002:00129670       ?testResPoolWorkflow@ThreadPoolTest@@QAEXAAVXmlCall@@@Z 005e2670 f i platform:threadpooltest.obj
 0002:00129f50       ?testResPool@ThreadPoolTest@@QAEXAAVXmlCall@@@Z 005e2f50 f i platform:threadpooltest.obj
 0002:0012a090       ?testResPool_thread@ThreadPoolTest@@QAEXPAV?$ResourcePool@VObject@@@@@Z 005e3090 f i platform:threadpooltest.obj
 0002:0012a0f0       ?testSemaphore@ThreadPoolTest@@QAEXAAVXmlCall@@@Z 005e30f0 f i platform:threadpooltest.obj
 0002:0012a280       ?testSemaphore_thread@ThreadPoolTest@@QAEXPAURFC_SEM@@@Z 005e3280 f i platform:threadpooltest.obj
 0002:0012a320       ??_GThreadPoolTest@@UAEPAXI@Z 005e3320 f i platform:threadpooltest.obj
 0002:0012a320       ??_EThreadPoolTest@@UAEPAXI@Z 005e3320 f i platform:threadpooltest.obj
 0002:0012a390       ??1ThreadPoolTest@@UAE@XZ  005e3390 f i platform:threadpooltest.obj
 0002:0012a430       ?destroy@?$ClassList@VThreadPoolTask@@@@QAEXXZ 005e3430 f i platform:threadpooltest.obj
 0002:0012a520       ??0?$ResourcePool@VThreadPoolTest_Task@@@@QAE@XZ 005e3520 f i platform:threadpooltest.obj
 0002:0012a630       ??1?$ResourcePool@VThreadPoolTest_Task@@@@QAE@XZ 005e3630 f i platform:threadpooltest.obj
 0002:0012a6f0       ?put@?$ResourcePool@VThreadPoolTest_Task@@@@QAEXPAVThreadPoolTest_Task@@@Z 005e36f0 f i platform:threadpooltest.obj
 0002:0012a7c0       ?stop@?$ResourcePool@VThreadPoolTest_Task@@@@QAEXXZ 005e37c0 f i platform:threadpooltest.obj
 0002:0012a850       ??0?$ResourcePool@VObject@@@@QAE@XZ 005e3850 f i platform:threadpooltest.obj
 0002:0012a960       ??1?$ResourcePool@VObject@@@@QAE@XZ 005e3960 f i platform:threadpooltest.obj
 0002:0012aa20       ?get@?$ResourcePool@VObject@@@@QAEPAVObject@@XZ 005e3a20 f i platform:threadpooltest.obj
 0002:0012ad80       ?stop@?$ResourcePool@VObject@@@@QAEXXZ 005e3d80 f i platform:threadpooltest.obj
 0002:0012ae10       ??A?$ClassList@VThreadPoolTask@@@@QAEAAPAVThreadPoolTask@@H@Z 005e3e10 f i platform:threadpooltest.obj
 0002:0012ae70       ?clear@?$ClassList@VThreadPoolTask@@@@QAEXXZ 005e3e70 f i platform:threadpooltest.obj
 0002:0012aed0       ??0?$ClassList@VThreadPoolTest_Task@@@@QAE@XZ 005e3ed0 f i platform:threadpooltest.obj
 0002:0012af30       ??1?$ClassList@VThreadPoolTest_Task@@@@QAE@XZ 005e3f30 f i platform:threadpooltest.obj
 0002:0012af90       ?add@?$ClassList@VThreadPoolTest_Task@@@@QAEHPAVThreadPoolTest_Task@@@Z 005e3f90 f i platform:threadpooltest.obj
 0002:0012b030       ?destroy@?$ClassList@VThreadPoolTest_Task@@@@QAEXXZ 005e4030 f i platform:threadpooltest.obj
 0002:0012b120       ??1?$ClassList@VObject@@@@QAE@XZ 005e4120 f i platform:threadpooltest.obj
 0002:0012b180       ??A?$ClassList@VObject@@@@QAEAAPAVObject@@H@Z 005e4180 f i platform:threadpooltest.obj
 0002:0012b1e0       ?destroy@?$ClassList@VObject@@@@QAEXXZ 005e41e0 f i platform:threadpooltest.obj
 0002:0012b2c0       ?count@?$ClassList@VThreadPoolTest_Task@@@@QBEHXZ 005e42c0 f i platform:threadpooltest.obj
 0002:0012b320       ??A?$ClassList@VThreadPoolTest_Task@@@@QAEAAPAVThreadPoolTest_Task@@H@Z 005e4320 f i platform:threadpooltest.obj
 0002:0012b380       ?clear@?$ClassList@VThreadPoolTest_Task@@@@QAEXXZ 005e4380 f i platform:threadpooltest.obj
 0002:0012b3e0       ?clear@?$ClassList@VObject@@@@QAEXXZ 005e43e0 f i platform:threadpooltest.obj
 0002:0012b440       ?createDirectChannelsTest@TestUnit@@SAPAV1@XZ 005e4440 f   platform:directchannelstest.obj
 0002:0012b520       ??0DirectChannelsTest@@QAE@XZ 005e4520 f i platform:directchannelstest.obj
 0002:0012b660       ?onCreate@DirectChannelsTest@@UAEXXZ 005e4660 f i platform:directchannelstest.obj
 0002:0012b790       ?onInit@DirectChannelsTest@@UAEXXZ 005e4790 f i platform:directchannelstest.obj
 0002:0012b9a0       ?onExit@DirectChannelsTest@@UAEXXZ 005e49a0 f i platform:directchannelstest.obj
 0002:0012ba00       ?testRequestPage@DirectChannelsTest@@QAEXAAVXmlCall@@@Z 005e4a00 f i platform:directchannelstest.obj
 0002:0012c110       ?onTextMessage@DirectChannelsTest@@UAEXPAVTextMessage@@@Z 005e5110 f i platform:directchannelstest.obj
 0002:0012c190       ??_GDirectChannelsTest@@UAEPAXI@Z 005e5190 f i platform:directchannelstest.obj
 0002:0012c190       ??_EDirectChannelsTest@@UAEPAXI@Z 005e5190 f i platform:directchannelstest.obj
 0002:0012c200       ??1DirectChannelsTest@@UAE@XZ 005e5200 f i platform:directchannelstest.obj
 0002:0012c2e0       ?setEndPoint@Message@@QAEXPBD@Z 005e52e0 f i platform:directchannelstest.obj
 0002:0012c340       ?createEngineThreadsTest@TestUnit@@SAPAV1@XZ 005e5340 f   platform:enginethreadstest.obj
 0002:0012c420       ??0EngineThreadsTest@@QAE@XZ 005e5420 f i platform:enginethreadstest.obj
 0002:0012c510       ?onCreate@EngineThreadsTest@@UAEXXZ 005e5510 f i platform:enginethreadstest.obj
 0002:0012c6f0       ?testThreadDump@EngineThreadsTest@@QAEXAAVXmlCall@@@Z 005e56f0 f i platform:enginethreadstest.obj
 0002:0012c7f0       ?testShowThread@EngineThreadsTest@@QAEXAAVXmlCall@@@Z 005e57f0 f i platform:enginethreadstest.obj
 0002:0012c9c0       ??_GEngineThreadsTest@@UAEPAXI@Z 005e59c0 f i platform:enginethreadstest.obj
 0002:0012c9c0       ??_EEngineThreadsTest@@UAEPAXI@Z 005e59c0 f i platform:enginethreadstest.obj
 0002:0012ca30       ??1EngineThreadsTest@@UAE@XZ 005e5a30 f i platform:enginethreadstest.obj
 0002:0012cad0       ??0SchedulerTask@@QAE@PAVMessagePublisher@@@Z 005e5ad0 f   platform:schedulertask.obj
 0002:0012cbd0       ?getClass@SchedulerTask@@UAEPBDXZ 005e5bd0 f i platform:schedulertask.obj
 0002:0012cc10       ??1SchedulerTask@@QAE@XZ   005e5c10 f   platform:schedulertask.obj
 0002:0012cef0       ?setName@SchedulerTask@@QAEXVString@@@Z 005e5ef0 f   platform:schedulertask.obj
 0002:0012cfa0       ?setIntervalSec@SchedulerTask@@QAEXH@Z 005e5fa0 f   platform:schedulertask.obj
 0002:0012cff0       ?start@SchedulerTask@@QAEXXZ 005e5ff0 f   platform:schedulertask.obj
 0002:0012d360       ?stop@SchedulerTask@@QAEXXZ 005e6360 f   platform:schedulertask.obj
 0002:0012d400       ?runSchedulerTask@SchedulerTask@@AAEXPAX@Z 005e6400 f   platform:schedulertask.obj
 0002:0012d810       ??0SocketProtocol@@QAE@AAVLogger@@@Z 005e6810 f   platform:socketprotocol.obj
 0002:0012d9b0       ?init@SocketProtocol@@QAEXXZ 005e69b0 f   platform:socketprotocol.obj
 0002:0012da40       ?copy@SocketProtocol@@QAEXAAV1@@Z 005e6a40 f   platform:socketprotocol.obj
 0002:0012db50       ?initSocketLib@SocketProtocol@@SAXXZ 005e6b50 f   platform:socketprotocol.obj
 0002:0012dc20       ?exitSocketLib@SocketProtocol@@SAXXZ 005e6c20 f   platform:socketprotocol.obj
 0002:0012dc80       ?create@SocketProtocol@@QAEXVXml@@@Z 005e6c80 f   platform:socketprotocol.obj
 0002:0012e230       ?createFlow@SocketProtocol@@AAEXVXml@@AAVString@@AAW4FLOW_PROTOCOL@1@1V3@AA_N4@Z 005e7230 f   platform:socketprotocol.obj
 0002:0012e890       ?open@SocketProtocol@@SAIAAVSocketUrl@@PAUsockaddr_in@@@Z 005e7890 f   platform:socketprotocol.obj
 0002:0012e970       ?open@SocketProtocol@@SAIVString@@GPAUsockaddr_in@@@Z 005e7970 f   platform:socketprotocol.obj
 0002:0012ef50       ?close@SocketProtocol@@SAXI@Z 005e7f50 f   platform:socketprotocol.obj
 0002:0012efc0       ?waitSocketDataInfinite@SocketProtocol@@SA_NIAA_N@Z 005e7fc0 f   platform:socketprotocol.obj
 0002:0012f020       ?waitSocketDataTimeoutSec@SocketProtocol@@SA_NIHAA_N@Z 005e8020 f   platform:socketprotocol.obj
 0002:0012f290       ?waitSocketData@SocketProtocol@@QAE_NI_N@Z 005e8290 f   platform:socketprotocol.obj
 0002:0012f4a0       ?readMessage@SocketProtocol@@QAE_NIAAVString@@_NAA_N@Z 005e84a0 f   platform:socketprotocol.obj
 0002:0012f560       ?readXmlMessage@SocketProtocol@@QAE_NIAAVXml@@AAVString@@_NAA_N@Z 005e8560 f   platform:socketprotocol.obj
 0002:0012f790       ?writeMessage@SocketProtocol@@QAEXIABVString@@AA_N@Z 005e8790 f   platform:socketprotocol.obj
 0002:0012fa10       ?readFixedSizeMessage@SocketProtocol@@QAE_NIHAAVString@@_NAA_N@Z 005e8a10 f   platform:socketprotocol.obj
 0002:0012fae0       ?readXmlMessageInternal@SocketProtocol@@AAE_NIAAVXml@@AAVString@@_NAAVTimer@@AA_N@Z 005e8ae0 f   platform:socketprotocol.obj
 0002:0012fd60       ?readSocketInternal@SocketProtocol@@AAE_NI_NAAVTimer@@AA_N@Z 005e8d60 f   platform:socketprotocol.obj
 0002:00130180       ?writeSocketInternal@SocketProtocol@@AAEXIPBDAA_N@Z 005e9180 f   platform:socketprotocol.obj
 0002:00130410       ?readMessageInternal@SocketProtocol@@AAE_NIAAVString@@H_NAAVTimer@@AA_N@Z 005e9410 f   platform:socketprotocol.obj
 0002:001309d0       ?readTextMessageInternal@SocketProtocol@@AAE_NIAAVString@@H_NAAVTimer@@AA_N@Z 005e99d0 f   platform:socketprotocol.obj
 0002:00131420       ?readTextStreamInternal@SocketProtocol@@AAE_NIAAVString@@H_NAAVTimer@@AA_N@Z 005ea420 f   platform:socketprotocol.obj
 0002:00131980       ?writeHttpMessageInternal@SocketProtocol@@AAEXIABVString@@AA_N@Z 005ea980 f   platform:socketprotocol.obj
 0002:00131b10       ?readHttpMessageInternal@SocketProtocol@@AAE_NIAAVString@@_NAAVTimer@@AA_N@Z 005eab10 f   platform:socketprotocol.obj
 0002:00131c50       ?readHttpMessageStartLine@SocketProtocol@@AAE_NI_NAAVTimer@@AA_N@Z 005eac50 f   platform:socketprotocol.obj
 0002:00131e00       ?readHttpMessageHeader@SocketProtocol@@AAE_NI_NAAVTimer@@AA_N@Z 005eae00 f   platform:socketprotocol.obj
 0002:001322b0       ?readHttpMessageBody@SocketProtocol@@AAE_NIAAVString@@_NAAVTimer@@AA_N@Z 005eb2b0 f   platform:socketprotocol.obj
 0002:00132a00       ?readHttpMessageBodyChunk@SocketProtocol@@AAE_NIAAVString@@H_NAAVTimer@@AA_N@Z 005eba00 f   platform:socketprotocol.obj
 0002:00132b90       ??0SocketServer@@QAE@VString@@@Z 005ebb90 f   platform:sockserver.obj
 0002:00132d40       ?setMsgType@SocketListener@@QAEXW4MsgType@Message@@@Z 005ebd40 f i platform:sockserver.obj
 0002:00132d90       ?getClass@SocketServer@@UAEPBDXZ 005ebd90 f i platform:sockserver.obj
 0002:00132dd0       ??_ESocketServer@@UAEPAXI@Z 005ebdd0 f i platform:sockserver.obj
 0002:00132dd0       ??_GSocketServer@@UAEPAXI@Z 005ebdd0 f i platform:sockserver.obj
 0002:00132e40       ??1SocketServer@@UAE@XZ    005ebe40 f   platform:sockserver.obj
 0002:00132f40       ?configure@SocketServer@@UAEXVXml@@@Z 005ebf40 f   platform:sockserver.obj
 0002:00133540       ?getProtocol@SocketListener@@QAEAAVSocketProtocol@@XZ 005ec540 f i platform:sockserver.obj
 0002:00133580       ?startListener@SocketServer@@UAE_NXZ 005ec580 f   platform:sockserver.obj
 0002:001335d0       ?stopListener@SocketServer@@UAEXXZ 005ec5d0 f   platform:sockserver.obj
 0002:00133630       ?exitListener@SocketServer@@UAEXXZ 005ec630 f   platform:sockserver.obj
 0002:00133690       ?getAddress@SocketServer@@UAE?AVString@@XZ 005ec690 f   platform:sockserver.obj
 0002:00133760       ?threadConnectFunction@SocketServer@@QAEXPAX@Z 005ec760 f   platform:sockserver.obj
 0002:001337c0       ?openListeningPort@SocketServer@@QAE_NXZ 005ec7c0 f   platform:sockserver.obj
 0002:00133cc0       ?getAddress@SocketServer@@SA?AVString@@PAUsockaddr_in@@@Z 005eccc0 f   platform:sockserver.obj
 0002:00133ec0       ?closeListeningPort@SocketServer@@QAEXXZ 005ecec0 f   platform:sockserver.obj
 0002:00134090       ?exitListeningPort@SocketServer@@QAEXXZ 005ed090 f   platform:sockserver.obj
 0002:00134120       ?acceptConnectionLoop@SocketServer@@QAEXXZ 005ed120 f   platform:sockserver.obj
 0002:00134270       ?performConnect@SocketServer@@QAEXXZ 005ed270 f   platform:sockserver.obj
 0002:001344d0       ?startConnection@SocketServer@@QAE_NIPAUsockaddr_in@@@Z 005ed4d0 f   platform:sockserver.obj
 0002:00134660       ?getMsgType@SocketListener@@QAE?AW4MsgType@Message@@XZ 005ed660 f i platform:sockserver.obj
 0002:001346a0       ??_GListenerSocketConnection@@QAEPAXI@Z 005ed6a0 f i platform:sockserver.obj
 0002:00134710       ?onTextMessage@ActiveSocket@@MAEXPAVTextMessage@@@Z 005ed710 f   platform:activesocket.obj
 0002:00134900       ??1SocketUrl@@QAE@XZ       005ed900 f i platform:activesocket.obj
 0002:001349d0       ??0ActiveSocket@@QAE@VString@@@Z 005ed9d0 f   platform:activesocket.obj
 0002:00134bc0       ?getClass@ActiveSocket@@UAEPBDXZ 005edbc0 f i platform:activesocket.obj
 0002:00134c00       ??_GActiveSocket@@UAEPAXI@Z 005edc00 f i platform:activesocket.obj
 0002:00134c00       ??_EActiveSocket@@UAEPAXI@Z 005edc00 f i platform:activesocket.obj
 0002:00134c70       ??1SocketProtocol@@QAE@XZ  005edc70 f i platform:activesocket.obj
 0002:00134d90       ??1ActiveSocket@@UAE@XZ    005edd90 f   platform:activesocket.obj
 0002:00134ed0       ?configure@ActiveSocket@@QAEXVXml@@@Z 005eded0 f   platform:activesocket.obj
 0002:00135800       ?startActiveSocket@ActiveSocket@@QAE_NXZ 005ee800 f   platform:activesocket.obj
 0002:00135b90       ?stopActiveSocket@ActiveSocket@@QAEXXZ 005eeb90 f   platform:activesocket.obj
 0002:00135d60       ?exitActiveSocket@ActiveSocket@@QAEXXZ 005eed60 f   platform:activesocket.obj
 0002:00135fa0       ??_GActiveSocketConnection@@QAEPAXI@Z 005eefa0 f i platform:activesocket.obj
 0002:00136010       ?getName@ActiveSocket@@QAE?AVString@@XZ 005ef010 f   platform:activesocket.obj
 0002:001360d0       ?sendText@ActiveSocket@@QAEXVString@@0@Z 005ef0d0 f   platform:activesocket.obj
 0002:00136270       ?receiveText@ActiveSocket@@QAE?AVString@@V2@_N@Z 005ef270 f   platform:activesocket.obj
 0002:00136430       ?receiveFixedSizeText@ActiveSocket@@QAE?AVString@@V2@H_N@Z 005ef430 f   platform:activesocket.obj
 0002:001365f0       ?waitReadSocket@ActiveSocket@@QAE_NVString@@_N@Z 005ef5f0 f   platform:activesocket.obj
 0002:00136760       ?getConnection@ActiveSocket@@AAEPAVActiveSocketConnection@@_NVString@@AAVSocketUrl@@@Z 005ef760 f   platform:activesocket.obj
 0002:00137680       ??0?$MapStringToClass@VActiveSocketConnection@@@@QAE@XZ 005f0680 f i platform:activesocket.obj
 0002:001376e0       ??1?$MapStringToClass@VActiveSocketConnection@@@@QAE@XZ 005f06e0 f i platform:activesocket.obj
 0002:00137740       ?get@?$MapStringToClass@VActiveSocketConnection@@@@QAEPAVActiveSocketConnection@@PBD@Z 005f0740 f i platform:activesocket.obj
 0002:001377f0       ?count@?$MapStringToClass@VActiveSocketConnection@@@@QAEHXZ 005f07f0 f i platform:activesocket.obj
 0002:00137850       ?destroy@?$MapStringToClass@VActiveSocketConnection@@@@QAEXXZ 005f0850 f i platform:activesocket.obj
 0002:00137940       ?getClassByIndex@?$MapStringToClass@VActiveSocketConnection@@@@QAEPAVActiveSocketConnection@@H@Z 005f0940 f i platform:activesocket.obj
 0002:00137a00       ??0ThreadPoolFixedTaskListItem@@QAE@VString@@HAAV?$ClassList@VThreadPoolTask@@@@@Z 005f0a00 f   platform:threadpoolfixedtasklistitem.obj
 0002:00137b80       ?getClass@ThreadPoolItem@@UAEPBDXZ 005f0b80 f i platform:threadpoolfixedtasklistitem.obj
 0002:00137bc0       ?getThreadTask@ThreadPoolFixedTaskListItem@@MAEPAVThreadPoolTask@@XZ 005f0bc0 f   platform:threadpoolfixedtasklistitem.obj
 0002:00137ce0       ?executedThreadTask@ThreadPoolFixedTaskListItem@@MAEXPAVThreadPoolTask@@@Z 005f0ce0 f   platform:threadpoolfixedtasklistitem.obj
 0002:00137d70       ?remove@?$ClassList@VThreadPoolTask@@@@QAEXH@Z 005f0d70 f i platform:threadpoolfixedtasklistitem.obj
 0002:00137dd0       ??0ThreadPoolTaskQueueItem@@QAE@VString@@HAAV?$ResourcePool@VThreadPoolTask@@@@@Z 005f0dd0 f   platform:threadpooltaskqueueitem.obj
 0002:00137ee0       ?getThreadTask@ThreadPoolTaskQueueItem@@MAEPAVThreadPoolTask@@XZ 005f0ee0 f   platform:threadpooltaskqueueitem.obj
 0002:00137f40       ?executedThreadTask@ThreadPoolTaskQueueItem@@MAEXPAVThreadPoolTask@@@Z 005f0f40 f   platform:threadpooltaskqueueitem.obj
 0002:00137ff0       ?get@?$ResourcePool@VThreadPoolTask@@@@QAEPAVThreadPoolTask@@XZ 005f0ff0 f i platform:threadpooltaskqueueitem.obj
 0002:00138350       ??0ThreadPoolItem@@QAE@VString@@H@Z 005f1350 f   platform:threadpoolitem.obj
 0002:001384f0       ??1ThreadPoolItem@@QAE@XZ  005f14f0 f   platform:threadpoolitem.obj
 0002:001385d0       ?getThreadName@ThreadPoolItem@@QAE?AVString@@XZ 005f15d0 f   platform:threadpoolitem.obj
 0002:00138690       ?clearStatistics@ThreadPoolItem@@QAEXXZ 005f1690 f   platform:threadpoolitem.obj
 0002:00138700       ?start@ThreadPoolItem@@QAEXXZ 005f1700 f   platform:threadpoolitem.obj
 0002:00138810       ?suspend@ThreadPoolItem@@QAEXXZ 005f1810 f   platform:threadpoolitem.obj
 0002:001388a0       ?resume@ThreadPoolItem@@QAEXXZ 005f18a0 f   platform:threadpoolitem.obj
 0002:00138900       ?stop@ThreadPoolItem@@QAEXXZ 005f1900 f   platform:threadpoolitem.obj
 0002:00138990       ?execute@ThreadPoolItem@@QAEXPAVThreadPoolTask@@@Z 005f1990 f   platform:threadpoolitem.obj
 0002:00138b30       ?setExecutionTimeWindowTicks@ThreadPoolItem@@QAEXH@Z 005f1b30 f   platform:threadpoolitem.obj
 0002:00138b80       ?run@ThreadPoolItem@@QAEXPAX@Z 005f1b80 f   platform:threadpoolitem.obj
 0002:00138f20       ??0ThreadPoolPerformance@@QAE@AAVLogger@@AAV?$ClassList@VThreadPoolItem@@@@@Z 005f1f20 f   platform:threadpoolperformance.obj
 0002:00138fd0       ?gather@ThreadPoolPerformance@@QAEXXZ 005f1fd0 f   platform:threadpoolperformance.obj
 0002:00139140       ?updateSpeedIfRequired@ThreadPoolPerformance@@QAEXMMMAAUCPULOADINFO@@@Z 005f2140 f   platform:threadpoolperformance.obj
 0002:00139860       ??0StatLogRecord@@QAE@XZ   005f2860 f   platform:statlogrecord.obj
 0002:001399a0       ?getClass@StatLogRecord@@UAEPBDXZ 005f29a0 f i platform:statlogrecord.obj
 0002:001399e0       ??1StatLogRecord@@QAE@XZ   005f29e0 f   platform:statlogrecord.obj
 0002:00139ad0       ?configure@StatLogRecord@@QAEXVXml@@@Z 005f2ad0 f   platform:statlogrecord.obj
 0002:00139f20       ?configureFunction@StatLogRecord@@QAEXVXml@@@Z 005f2f20 f   platform:statlogrecord.obj
 0002:0013a380       ?create@StatLogRecord@@QAEXXZ 005f3380 f   platform:statlogrecord.obj
 0002:0013a590       ?getLogString@StatLogRecord@@QAE?AVString@@XZ 005f3590 f   platform:statlogrecord.obj
 0002:0013a850       ?resetMetric@StatLogRecord@@QAEXXZ 005f3850 f   platform:statlogrecord.obj
 0002:0013a8e0       ?calculateDerivedValue@StatLogRecord@@QAEHXZ 005f38e0 f   platform:statlogrecord.obj
 0002:0013ab20       ??0XmlCall@@QAE@PAVMessageChannel@@0PBD@Z 005f3b20 f   platform:xmlcall.obj
 0002:0013ac60       ??_EXmlCall@@UAEPAXI@Z     005f3c60 f i platform:xmlcall.obj
 0002:0013ac60       ??_GXmlCall@@UAEPAXI@Z     005f3c60 f i platform:xmlcall.obj
 0002:0013acd0       ??1XmlCall@@UAE@XZ         005f3cd0 f   platform:xmlcall.obj
 0002:0013adf0       ?postExecute@XmlCall@@UAEXXZ 005f3df0 f   platform:xmlcall.obj
 0002:0013ae70       ?setXmlFromMessage@XmlCall@@QAEXXZ 005f3e70 f   platform:xmlcall.obj
 0002:0013b2b0       ?getClassName@XmlCall@@QAE?AVString@@XZ 005f42b0 f   platform:xmlcall.obj
 0002:0013b370       ?getFunctionName@XmlCall@@QAE?AVString@@XZ 005f4370 f   platform:xmlcall.obj
 0002:0013b430       ?getParam@XmlCall@@QAE?AVString@@V2@@Z 005f4430 f   platform:xmlcall.obj
 0002:0013b540       ?getParam@XmlCall@@QAE?AVString@@V2@0@Z 005f4540 f   platform:xmlcall.obj
 0002:0013b6f0       ?getIntParam@XmlCall@@QAEHVString@@@Z 005f46f0 f   platform:xmlcall.obj
 0002:0013b7f0       ?getIntParam@XmlCall@@QAEHVString@@H@Z 005f47f0 f   platform:xmlcall.obj
 0002:0013b930       ?getBooleanParam@XmlCall@@QAE_NVString@@@Z 005f4930 f   platform:xmlcall.obj
 0002:0013ba30       ?getBooleanParam@XmlCall@@QAE_NVString@@_N@Z 005f4a30 f   platform:xmlcall.obj
 0002:0013bb70       ?getFloatParam@XmlCall@@QAEMVString@@@Z 005f4b70 f   platform:xmlcall.obj
 0002:0013bc70       ?getFloatParam@XmlCall@@QAEMVString@@M@Z 005f4c70 f   platform:xmlcall.obj
 0002:0013bdc0       ?createResponse@XmlCall@@QAE?AVXml@@XZ 005f4dc0 f   platform:xmlcall.obj
 0002:0013c100       ?getResponse@XmlCall@@QAE?AVXml@@XZ 005f5100 f   platform:xmlcall.obj
 0002:0013c150       ?sendResponse@XmlCall@@QAE?AVString@@PAVMessagePublisher@@@Z 005f5150 f   platform:xmlcall.obj
 0002:0013c3e0       ?sendResponseException@XmlCall@@QAE?AVString@@PAVMessagePublisher@@AAVRuntimeException@@@Z 005f53e0 f   platform:xmlcall.obj
 0002:0013c640       ?sendResponseUnknownException@XmlCall@@QAE?AVString@@PAVMessagePublisher@@@Z 005f5640 f   platform:xmlcall.obj
 0002:0013c870       ?sendUnknownResponse@XmlCall@@QAE?AVString@@XZ 005f5870 f   platform:xmlcall.obj
 0002:0013ca70       ?createStatusResponse@XmlCall@@QAE?AVXml@@VString@@@Z 005f5a70 f   platform:xmlcall.obj
 0002:0013cbe0       ?sendStatusResponse@XmlCall@@QAE?AVString@@V2@@Z 005f5be0 f   platform:xmlcall.obj
 0002:0013cde0       ??0XmlMessage@@IAE@W4MsgType@Message@@@Z 005f5de0 f i platform:xmlcall.obj
 0002:0013cea0       ?getClass@XmlCall@@UAEPBDXZ 005f5ea0 f i platform:xmlcall.obj
 0002:0013cee0       ??0TestUnit@@QAE@VString@@@Z 005f5ee0 f   platform:testunit.obj
 0002:0013cfe0       ??_ETestUnit@@UAEPAXI@Z    005f5fe0 f i platform:testunit.obj
 0002:0013cfe0       ??_GTestUnit@@UAEPAXI@Z    005f5fe0 f i platform:testunit.obj
 0002:0013d050       ??1TestUnit@@UAE@XZ        005f6050 f   platform:testunit.obj
 0002:0013d130       ?getMethod@TestUnit@@QAEPAVTestMethod@@VString@@@Z 005f6130 f   platform:testunit.obj
 0002:0013d1f0       ?callMethod@TestUnit@@QAEXPAVTestMethod@@AAVXmlCall@@@Z 005f61f0 f   platform:testunit.obj
 0002:0013d2a0       ?addMethod@TestUnit@@IAEXVString@@P81@AEXAAVXmlCall@@@Z@Z 005f62a0 f   platform:testunit.obj
 0002:0013d420       ??0TestMethod@@QAE@VString@@P8TestUnit@@AEXAAVXmlCall@@@Z@Z 005f6420 f i platform:testunit.obj
 0002:0013d500       ??0?$MapStringToClass@VTestMethod@@@@QAE@XZ 005f6500 f i platform:testunit.obj
 0002:0013d560       ??1?$MapStringToClass@VTestMethod@@@@QAE@XZ 005f6560 f i platform:testunit.obj
 0002:0013d5c0       ?add@?$MapStringToClass@VTestMethod@@@@QAEHPBDPAVTestMethod@@@Z 005f65c0 f i platform:testunit.obj
 0002:0013d7d0       ?get@?$MapStringToClass@VTestMethod@@@@QAEPAVTestMethod@@PBD@Z 005f67d0 f i platform:testunit.obj
 0002:0013d880       ?destroy@?$MapStringToClass@VTestMethod@@@@QAEXXZ 005f6880 f i platform:testunit.obj
 0002:0013d970       ??_GTestMethod@@QAEPAXI@Z  005f6970 f i platform:testunit.obj
 0002:0013d9e0       ??1TestMethod@@QAE@XZ      005f69e0 f i platform:testunit.obj
 0002:0013da80       ?getValidUrl@SocketUrl@@QAE?AVString@@XZ 005f6a80 f   platform:socketurl.obj
 0002:0013dc40       ?getValidUrlWithoutPage@SocketUrl@@QAE?AVString@@XZ 005f6c40 f   platform:socketurl.obj
 0002:0013e320       ?getProtocol@SocketUrl@@QAE?AVString@@XZ 005f7320 f   platform:socketurl.obj
 0002:0013e3e0       ?getHost@SocketUrl@@QAE?AVString@@XZ 005f73e0 f   platform:socketurl.obj
 0002:0013e4a0       ?getPort@SocketUrl@@QAEHXZ 005f74a0 f   platform:socketurl.obj
 0002:0013e4e0       ?getPage@SocketUrl@@QAE?AVString@@XZ 005f74e0 f   platform:socketurl.obj
 0002:0013e5a0       ?setUrl@SocketUrl@@QAEXVString@@@Z 005f75a0 f   platform:socketurl.obj
 0002:0013ea20       ?setProtocol@SocketUrl@@QAEXVString@@@Z 005f7a20 f   platform:socketurl.obj
 0002:0013ead0       ?setHost@SocketUrl@@QAEXVString@@@Z 005f7ad0 f   platform:socketurl.obj
 0002:0013eb80       ?setPort@SocketUrl@@QAEXH@Z 005f7b80 f   platform:socketurl.obj
 0002:0013ebd0       ?setPage@SocketUrl@@QAEXVString@@@Z 005f7bd0 f   platform:socketurl.obj
 0002:0013ec80       ??0SocketUrl@@QAE@XZ       005f7c80 f   platform:socketurl.obj
 0002:0013ed70       ?getClass@SocketUrl@@UAEPBDXZ 005f7d70 f i platform:socketurl.obj
 0002:0013edb0       ??0SocketUrl@@QAE@VString@@@Z 005f7db0 f   platform:socketurl.obj
 0002:0013eef0       ??0SocketListener@@QAE@VString@@@Z 005f7ef0 f   platform:socketlistener.obj
 0002:0013f040       ?getClass@SocketListener@@UAEPBDXZ 005f8040 f i platform:socketlistener.obj
 0002:0013f080       ??_GSocketListener@@UAEPAXI@Z 005f8080 f i platform:socketlistener.obj
 0002:0013f080       ??_ESocketListener@@UAEPAXI@Z 005f8080 f i platform:socketlistener.obj
 0002:0013f0f0       ??1SocketListener@@UAE@XZ  005f80f0 f   platform:socketlistener.obj
 0002:0013f1f0       ?addListenerConnection@SocketListener@@QAEXPAVListenerSocketConnection@@@Z 005f81f0 f   platform:socketlistener.obj
 0002:0013f400       ?setListener@ListenerSocketConnection@@QAEXPAVSocketListener@@@Z 005f8400 f i platform:socketlistener.obj
 0002:0013f450       ?stopListenerConnections@SocketListener@@QAEXXZ 005f8450 f   platform:socketlistener.obj
 0002:0013f4f0       ?removeListenerConnection@SocketListener@@QAEXPAVListenerSocketConnection@@@Z 005f84f0 f   platform:socketlistener.obj
 0002:0013f5f0       ?getName@ListenerSocketConnection@@QAE?AVString@@XZ 005f85f0 f i platform:socketlistener.obj
 0002:0013f6b0       ?exitListenerConnections@SocketListener@@QAEXXZ 005f86b0 f   platform:socketlistener.obj
 0002:0013f750       ??0?$MapStringToClass@VListenerSocketConnection@@@@QAE@XZ 005f8750 f i platform:socketlistener.obj
 0002:0013f7b0       ??1?$MapStringToClass@VListenerSocketConnection@@@@QAE@XZ 005f87b0 f i platform:socketlistener.obj
 0002:0013f810       ?add@?$MapStringToClass@VListenerSocketConnection@@@@QAEHPBDPAVListenerSocketConnection@@@Z 005f8810 f i platform:socketlistener.obj
 0002:0013fa20       ?remove@?$MapStringToClass@VListenerSocketConnection@@@@QAEPAVListenerSocketConnection@@PBD@Z 005f8a20 f i platform:socketlistener.obj
 0002:0013fa80       ?count@?$MapStringToClass@VListenerSocketConnection@@@@QAEHXZ 005f8a80 f i platform:socketlistener.obj
 0002:0013fae0       ?destroy@?$MapStringToClass@VListenerSocketConnection@@@@QAEXXZ 005f8ae0 f i platform:socketlistener.obj
 0002:0013fbd0       ?getClassByIndex@?$MapStringToClass@VListenerSocketConnection@@@@QAEPAVListenerSocketConnection@@H@Z 005f8bd0 f i platform:socketlistener.obj
 0002:0013fc90       ??0ListenerSocketConnection@@QAE@PAVSocketServer@@IPAUsockaddr_in@@W4MsgType@Message@@@Z 005f8c90 f   platform:listenersocketconnection.obj
 0002:0013fe70       ?getClass@ListenerSocketConnection@@UAEPBDXZ 005f8e70 f i platform:listenersocketconnection.obj
 0002:0013feb0       ??1ListenerSocketConnection@@QAE@XZ 005f8eb0 f   platform:listenersocketconnection.obj
 0002:0013ffc0       ?setName@ListenerSocketConnection@@QAEXVString@@@Z 005f8fc0 f   platform:listenersocketconnection.obj
 0002:00140080       ?threadClientFunction@ListenerSocketConnection@@QAEXPAX@Z 005f9080 f   platform:listenersocketconnection.obj
 0002:00140100       ?getListener@ListenerSocketConnection@@QAEPAVSocketListener@@XZ 005f9100 f i platform:listenersocketconnection.obj
 0002:00140140       ?startConnection@ListenerSocketConnection@@QAE_NXZ 005f9140 f   platform:listenersocketconnection.obj
 0002:00140800       ?getTopicIn@SocketServer@@QAE?AVString@@XZ 005f9800 f i platform:listenersocketconnection.obj
 0002:001408c0       ?getTopicOut@SocketServer@@QAE?AVString@@XZ 005f98c0 f i platform:listenersocketconnection.obj
 0002:00140980       ?getContentType@SocketServer@@QAE?AVString@@XZ 005f9980 f i platform:listenersocketconnection.obj
 0002:00140a40       ?getAuth@SocketServer@@QAE_NXZ 005f9a40 f i platform:listenersocketconnection.obj
 0002:00140a80       ?getWayIn@SocketServer@@QAE_NXZ 005f9a80 f i platform:listenersocketconnection.obj
 0002:00140ac0       ?getWayOut@SocketServer@@QAE_NXZ 005f9ac0 f i platform:listenersocketconnection.obj
 0002:00140b00       ?readMessages@ListenerSocketConnection@@QAEXXZ 005f9b00 f   platform:listenersocketconnection.obj
 0002:00140f80       ?performRead@ListenerSocketConnection@@AAEXXZ 005f9f80 f   platform:listenersocketconnection.obj
 0002:00141140       ?stopConnection@ListenerSocketConnection@@QAEXXZ 005fa140 f   platform:listenersocketconnection.obj
 0002:001413f0       ?exitConnection@ListenerSocketConnection@@QAEXXZ 005fa3f0 f   platform:listenersocketconnection.obj
 0002:00141430       ?processMessage@ListenerSocketConnection@@AAEXPBD@Z 005fa430 f   platform:listenersocketconnection.obj
 0002:001418d0       ?tryLogin@ListenerSocketConnection@@AAEXPBD@Z 005fa8d0 f   platform:listenersocketconnection.obj
 0002:00141910       ?writeMessage@ListenerSocketConnection@@QAEXPAVTextMessage@@@Z 005fa910 f   platform:listenersocketconnection.obj
 0002:00141990       ?sendString@ListenerSocketConnection@@QAEXPBDH@Z 005fa990 f   platform:listenersocketconnection.obj
 0002:00141ea0       ?getClientSocketName@ListenerSocketConnection@@QAE?AVString@@XZ 005faea0 f   platform:listenersocketconnection.obj
 0002:00141fc0       ?onTextMessage@ListenerSocketConnection@@UAEXPAVTextMessage@@@Z 005fafc0 f   platform:listenersocketconnection.obj
 0002:00142020       ?onXmlMessage@ListenerSocketConnection@@UAEXPAVXmlMessage@@@Z 005fb020 f   platform:listenersocketconnection.obj
 0002:00142090       ?onXmlCall@ListenerSocketConnection@@UAEXPAVXmlCall@@@Z 005fb090 f   platform:listenersocketconnection.obj
 0002:001422a0       ??0ActiveSocketConnection@@QAE@VString@@0AAVSocketProtocol@@PAVMessagePublisher@@@Z 005fb2a0 f   platform:activesocketconnection.obj
 0002:00142490       ?getClass@ActiveSocketConnection@@MAEPBDXZ 005fb490 f i platform:activesocketconnection.obj
 0002:001424d0       ??1ActiveSocketConnection@@QAE@XZ 005fb4d0 f   platform:activesocketconnection.obj
 0002:001425a0       ?getUrlKey@ActiveSocketConnection@@QAE?AVString@@XZ 005fb5a0 f   platform:activesocketconnection.obj
 0002:00142660       ?setUrlKey@ActiveSocketConnection@@QAEXVString@@@Z 005fb660 f   platform:activesocketconnection.obj
 0002:00142800       ?setReconnectionTimeoutSec@ActiveSocketConnection@@QAEXH@Z 005fb800 f   platform:activesocketconnection.obj
 0002:00142850       ?connectSocket@ActiveSocketConnection@@QAE_NXZ 005fb850 f   platform:activesocketconnection.obj
 0002:00142a00       ?getAddress@ActiveSocketConnection@@QAE?AVString@@XZ 005fba00 f   platform:activesocketconnection.obj
 0002:00142bf0       ?closeSocket@ActiveSocketConnection@@QAEXXZ 005fbbf0 f   platform:activesocketconnection.obj
 0002:00142c50       ?exitSocket@ActiveSocketConnection@@QAEXXZ 005fbc50 f   platform:activesocketconnection.obj
 0002:00142ca0       ?sendText@ActiveSocketConnection@@QAEXAAVSocketUrl@@VString@@@Z 005fbca0 f   platform:activesocketconnection.obj
 0002:00143130       ?receiveText@ActiveSocketConnection@@QAE?AVString@@AAVSocketUrl@@_N@Z 005fc130 f   platform:activesocketconnection.obj
 0002:00143670       ?receiveFixedText@ActiveSocketConnection@@QAE?AVString@@AAVSocketUrl@@H_N@Z 005fc670 f   platform:activesocketconnection.obj
 0002:00143bb0       ?waitReadSocket@ActiveSocketConnection@@QAE_NAAVSocketUrl@@_N@Z 005fcbb0 f   platform:activesocketconnection.obj
 0002:00143e80       ?waitThreadFinished@ActiveSocketConnection@@AAEXXZ 005fce80 f   platform:activesocketconnection.obj
 0002:00143f00       ?connectSocketProtected@ActiveSocketConnection@@AAE_NXZ 005fcf00 f   platform:activesocketconnection.obj
 0002:00144310       ?disconnectSocket@ActiveSocketConnection@@AAEXXZ 005fd310 f   platform:activesocketconnection.obj
 0002:00144480       ?handleBrokenConnection@ActiveSocketConnection@@AAEXXZ 005fd480 f   platform:activesocketconnection.obj
 0002:001444e0       ?readSocketThread@ActiveSocketConnection@@AAEXPAX@Z 005fd4e0 f   platform:activesocketconnection.obj
 0002:00144680       ?readSocketThreadProtected@ActiveSocketConnection@@AAEXXZ 005fd680 f   platform:activesocketconnection.obj
 0002:00144adc       ??1_Container_base12@std@@QAE@XZ 005fdadc f   msvcprtd:MSVCP100D.dll
 0002:00144ae2       ??0_Container_base12@std@@QAE@XZ 005fdae2 f   msvcprtd:MSVCP100D.dll
 0002:00144ae8       ?_Orphan_all@_Container_base12@std@@QAEXXZ 005fdae8 f   msvcprtd:MSVCP100D.dll
 0002:00144aee       ?_Xout_of_range@std@@YAXPBD@Z 005fdaee f   msvcprtd:MSVCP100D.dll
 0002:00144af4       ?_Xlength_error@std@@YAXPBD@Z 005fdaf4 f   msvcprtd:MSVCP100D.dll
 0002:00144afa       ?_Debug_message@std@@YAXPB_W0I@Z 005fdafa f   msvcprtd:MSVCP100D.dll
 0002:00144b00       ??6?$basic_ostream@DU?$char_traits@D@std@@@std@@QAEAAV01@H@Z 005fdb00 f   msvcprtd:MSVCP100D.dll
 0002:00144b06       ??1?$basic_ios@DU?$char_traits@D@std@@@std@@UAE@XZ 005fdb06 f   msvcprtd:MSVCP100D.dll
 0002:00144b10       ??_U@YAPAXI@Z              005fdb10 f   msvcprtd:newaop_s.obj
 0002:00144b28       ??1?$basic_ostream@DU?$char_traits@D@std@@@std@@UAE@XZ 005fdb28 f   msvcprtd:MSVCP100D.dll
 0002:00144b2e       ??0?$basic_ostream@DU?$char_traits@D@std@@@std@@QAE@PAV?$basic_streambuf@DU?$char_traits@D@std@@@1@_N@Z 005fdb2e f   msvcprtd:MSVCP100D.dll
 0002:00144b34       ??0?$basic_ios@DU?$char_traits@D@std@@@std@@IAE@XZ 005fdb34 f   msvcprtd:MSVCP100D.dll
 0002:00144b3a       ??1?$basic_streambuf@DU?$char_traits@D@std@@@std@@UAE@XZ 005fdb3a f   msvcprtd:MSVCP100D.dll
 0002:00144b40       ?_Lock@?$basic_streambuf@DU?$char_traits@D@std@@@std@@UAEXXZ 005fdb40 f   msvcprtd:MSVCP100D.dll
 0002:00144b46       ?_Unlock@?$basic_streambuf@DU?$char_traits@D@std@@@std@@UAEXXZ 005fdb46 f   msvcprtd:MSVCP100D.dll
 0002:00144b4c       ?showmanyc@?$basic_streambuf@DU?$char_traits@D@std@@@std@@MAE_JXZ 005fdb4c f   msvcprtd:MSVCP100D.dll
 0002:00144b52       ?uflow@?$basic_streambuf@DU?$char_traits@D@std@@@std@@MAEHXZ 005fdb52 f   msvcprtd:MSVCP100D.dll
 0002:00144b58       ?xsgetn@?$basic_streambuf@DU?$char_traits@D@std@@@std@@MAE_JPAD_J@Z 005fdb58 f   msvcprtd:MSVCP100D.dll
 0002:00144b5e       ?xsputn@?$basic_streambuf@DU?$char_traits@D@std@@@std@@MAE_JPBD_J@Z 005fdb5e f   msvcprtd:MSVCP100D.dll
 0002:00144b64       ?setbuf@?$basic_streambuf@DU?$char_traits@D@std@@@std@@MAEPAV12@PAD_J@Z 005fdb64 f   msvcprtd:MSVCP100D.dll
 0002:00144b6a       ?sync@?$basic_streambuf@DU?$char_traits@D@std@@@std@@MAEHXZ 005fdb6a f   msvcprtd:MSVCP100D.dll
 0002:00144b70       ?imbue@?$basic_streambuf@DU?$char_traits@D@std@@@std@@MAEXABVlocale@2@@Z 005fdb70 f   msvcprtd:MSVCP100D.dll
 0002:00144b76       ?gptr@?$basic_streambuf@DU?$char_traits@D@std@@@std@@IBEPADXZ 005fdb76 f   msvcprtd:MSVCP100D.dll
 0002:00144b7c       ?setg@?$basic_streambuf@DU?$char_traits@D@std@@@std@@IAEXPAD00@Z 005fdb7c f   msvcprtd:MSVCP100D.dll
 0002:00144b82       ?setp@?$basic_streambuf@DU?$char_traits@D@std@@@std@@IAEXPAD0@Z 005fdb82 f   msvcprtd:MSVCP100D.dll
 0002:00144b88       ?eback@?$basic_streambuf@DU?$char_traits@D@std@@@std@@IBEPADXZ 005fdb88 f   msvcprtd:MSVCP100D.dll
 0002:00144b8e       ?_Pninc@?$basic_streambuf@DU?$char_traits@D@std@@@std@@IAEPADXZ 005fdb8e f   msvcprtd:MSVCP100D.dll
 0002:00144b94       ?setp@?$basic_streambuf@DU?$char_traits@D@std@@@std@@IAEXPAD00@Z 005fdb94 f   msvcprtd:MSVCP100D.dll
 0002:00144b9a       ?pbase@?$basic_streambuf@DU?$char_traits@D@std@@@std@@IBEPADXZ 005fdb9a f   msvcprtd:MSVCP100D.dll
 0002:00144ba0       ?epptr@?$basic_streambuf@DU?$char_traits@D@std@@@std@@IBEPADXZ 005fdba0 f   msvcprtd:MSVCP100D.dll
 0002:00144ba6       ?pptr@?$basic_streambuf@DU?$char_traits@D@std@@@std@@IBEPADXZ 005fdba6 f   msvcprtd:MSVCP100D.dll
 0002:00144bac       ?gbump@?$basic_streambuf@DU?$char_traits@D@std@@@std@@IAEXH@Z 005fdbac f   msvcprtd:MSVCP100D.dll
 0002:00144bb2       ?egptr@?$basic_streambuf@DU?$char_traits@D@std@@@std@@IBEPADXZ 005fdbb2 f   msvcprtd:MSVCP100D.dll
 0002:00144bb8       ?pbump@?$basic_streambuf@DU?$char_traits@D@std@@@std@@IAEXH@Z 005fdbb8 f   msvcprtd:MSVCP100D.dll
 0002:00144bbe       ??0?$basic_streambuf@DU?$char_traits@D@std@@@std@@IAE@XZ 005fdbbe f   msvcprtd:MSVCP100D.dll
 0002:00144bc4       ?setstate@?$basic_ios@DU?$char_traits@D@std@@@std@@QAEXH_N@Z 005fdbc4 f   msvcprtd:MSVCP100D.dll
 0002:00144bca       ?width@ios_base@std@@QAE_J_J@Z 005fdbca f   msvcprtd:MSVCP100D.dll
 0002:00144bd0       ?sputn@?$basic_streambuf@DU?$char_traits@D@std@@@std@@QAE_JPBD_J@Z 005fdbd0 f   msvcprtd:MSVCP100D.dll
 0002:00144bd6       ?sputc@?$basic_streambuf@DU?$char_traits@D@std@@@std@@QAEHD@Z 005fdbd6 f   msvcprtd:MSVCP100D.dll
 0002:00144bdc       ?rdbuf@?$basic_ios@DU?$char_traits@D@std@@@std@@QBEPAV?$basic_streambuf@DU?$char_traits@D@std@@@2@XZ 005fdbdc f   msvcprtd:MSVCP100D.dll
 0002:00144be2       ?fill@?$basic_ios@DU?$char_traits@D@std@@@std@@QBEDXZ 005fdbe2 f   msvcprtd:MSVCP100D.dll
 0002:00144be8       ?flags@ios_base@std@@QBEHXZ 005fdbe8 f   msvcprtd:MSVCP100D.dll
 0002:00144bee       ?width@ios_base@std@@QBE_JXZ 005fdbee f   msvcprtd:MSVCP100D.dll
 0002:00144bf4       ?flush@?$basic_ostream@DU?$char_traits@D@std@@@std@@QAEAAV12@XZ 005fdbf4 f   msvcprtd:MSVCP100D.dll
 0002:00144bfa       ?tie@?$basic_ios@DU?$char_traits@D@std@@@std@@QBEPAV?$basic_ostream@DU?$char_traits@D@std@@@2@XZ 005fdbfa f   msvcprtd:MSVCP100D.dll
 0002:00144c00       ?good@ios_base@std@@QBE_NXZ 005fdc00 f   msvcprtd:MSVCP100D.dll
 0002:00144c06       ?_Osfx@?$basic_ostream@DU?$char_traits@D@std@@@std@@QAEXXZ 005fdc06 f   msvcprtd:MSVCP100D.dll
 0002:00144c0c       ?uncaught_exception@std@@YA_NXZ 005fdc0c f   msvcprtd:MSVCP100D.dll
 0002:00144c12       ?get@?$basic_istream@DU?$char_traits@D@std@@@std@@QAEHXZ 005fdc12 f   msvcprtd:MSVCP100D.dll
 0002:00144c18       ?peek@?$basic_istream@DU?$char_traits@D@std@@@std@@QAEHXZ 005fdc18 f   msvcprtd:MSVCP100D.dll
 0002:00144c1e       ??3@YAXPAX@Z               005fdc1e f   MSVCRTD:MSVCR100D.dll
 0002:00144c24       ??2@YAPAXI@Z               005fdc24 f   MSVCRTD:MSVCR100D.dll
 0002:00144c2a       ___CxxFrameHandler3        005fdc2a f   MSVCRTD:MSVCR100D.dll
 0002:00144c30       @__security_check_cookie@4 005fdc30 f   MSVCRTD:secchk.obj
 0002:00144c50       __RTC_CheckEsp             005fdc50 f   MSVCRTD:_stack_.obj
 0002:00144c80       @_RTC_CheckStackVars@8     005fdc80 f   MSVCRTD:_stack_.obj
 0002:00144d00       @_RTC_AllocaHelper@12      005fdd00 f   MSVCRTD:_stack_.obj
 0002:00144d40       @_RTC_CheckStackVars2@12   005fdd40 f   MSVCRTD:_stack_.obj
 0002:00144e50       __RTC_InitBase             005fde50 f   MSVCRTD:_init_.obj
 0002:00144e90       __RTC_Shutdown             005fde90 f   MSVCRTD:_init_.obj
 0002:00144eb0       ??0type_info@@AAE@ABV0@@Z  005fdeb0 f   MSVCRTD:ti_inst.obj
 0002:00144ee0       ??_Etype_info@@UAEPAXI@Z   005fdee0 f i MSVCRTD:ti_inst.obj
 0002:00144f70       ??4type_info@@AAEAAV0@ABV0@@Z 005fdf70 f   MSVCRTD:ti_inst.obj
 0002:00144f86       _printf                    005fdf86 f   MSVCRTD:MSVCR100D.dll
 0002:00144f8c       __CxxThrowException@8      005fdf8c f   MSVCRTD:MSVCR100D.dll
 0002:00144f92       __purecall                 005fdf92 f   MSVCRTD:MSVCR100D.dll
 0002:00144f98       _free                      005fdf98 f   MSVCRTD:MSVCR100D.dll
 0002:00144f9e       _sprintf                   005fdf9e f   MSVCRTD:MSVCR100D.dll
 0002:00144fa4       __strdup                   005fdfa4 f   MSVCRTD:MSVCR100D.dll
 0002:00144faa       _rename                    005fdfaa f   MSVCRTD:MSVCR100D.dll
 0002:00144fb0       _fclose                    005fdfb0 f   MSVCRTD:MSVCR100D.dll
 0002:00144fb6       _fputs                     005fdfb6 f   MSVCRTD:MSVCR100D.dll
 0002:00144fbc       _fgets                     005fdfbc f   MSVCRTD:MSVCR100D.dll
 0002:00144fc2       _feof                      005fdfc2 f   MSVCRTD:MSVCR100D.dll
 0002:00144fc8       _remove                    005fdfc8 f   MSVCRTD:MSVCR100D.dll
 0002:00144fce       _fopen                     005fdfce f   MSVCRTD:MSVCR100D.dll
 0002:00144fd4       _memset                    005fdfd4 f   MSVCRTD:MSVCR100D.dll
 0002:00144fda       _realloc                   005fdfda f   MSVCRTD:MSVCR100D.dll
 0002:00144fe0       _calloc                    005fdfe0 f   MSVCRTD:MSVCR100D.dll
 0002:00145110       _mainCRTStartup            005fe110 f   MSVCRTD:crtexe.obj
 0002:00145430       _NtCurrentTeb              005fe430 f i MSVCRTD:crtexe.obj
 0002:001454ca       _memmove                   005fe4ca f   MSVCRTD:MSVCR100D.dll
 0002:001454d0       _strcmp                    005fe4d0 f   MSVCRTD:MSVCR100D.dll
 0002:001454d6       _malloc                    005fe4d6 f   MSVCRTD:MSVCR100D.dll
 0002:001454dc       _memcpy                    005fe4dc f   MSVCRTD:MSVCR100D.dll
 0002:001454e2       _strlen                    005fe4e2 f   MSVCRTD:MSVCR100D.dll
 0002:001454e8       _vsprintf                  005fe4e8 f   MSVCRTD:MSVCR100D.dll
 0002:001454ee       _strncmp                   005fe4ee f   MSVCRTD:MSVCR100D.dll
 0002:001454f4       _isdigit                   005fe4f4 f   MSVCRTD:MSVCR100D.dll
 0002:001454fa       _atoi                      005fe4fa f   MSVCRTD:MSVCR100D.dll
 0002:00145500       _strcpy                    005fe500 f   MSVCRTD:MSVCR100D.dll
 0002:00145506       _modf                      005fe506 f   MSVCRTD:MSVCR100D.dll
 0002:00145510       __allmul                   005fe510 f   MSVCRTD:llmul.obj
 0002:00145560       __ftol2_sse                005fe560 f   MSVCRTD:ftol2.obj
 0002:00145569       __ftol2_pentium4           005fe569 f   MSVCRTD:ftol2.obj
 0002:0014557c       __ftol2_sse_excpt          005fe57c f   MSVCRTD:ftol2.obj
 0002:00145596       __ftol2                    005fe596 f   MSVCRTD:ftol2.obj
 0002:00145636       _atof                      005fe636 f   MSVCRTD:MSVCR100D.dll
 0002:00145640       __allrem                   005fe640 f   MSVCRTD:llrem.obj
 0002:00145720       __alldiv                   005fe720 f   MSVCRTD:lldiv.obj
 0002:00145800       ?_RTC_Failure@@YAXPAXH@Z   005fe800 f   MSVCRTD:_error_.obj
 0002:00145c90       ?_RTC_StackFailure@@YAXPAXPBD@Z 005fec90 f   MSVCRTD:_error_.obj
 0002:00145dd0       ?_RTC_AllocaFailure@@YAXPAXPAU_RTC_ALLOCA_NODE@@H@Z 005fedd0 f   MSVCRTD:_error_.obj
 0002:00145fe0       __RTC_UninitUse            005fefe0 f   MSVCRTD:_error_.obj
 0002:00146104       _sscanf                    005ff104 f   MSVCRTD:MSVCR100D.dll
 0002:0014610a       _strcat                    005ff10a f   MSVCRTD:MSVCR100D.dll
 0002:00146110       __localtime64_s            005ff110 f   MSVCRTD:MSVCR100D.dll
 0002:00146116       __time64                   005ff116 f   MSVCRTD:MSVCR100D.dll
 0002:0014611c       _memcmp                    005ff11c f   MSVCRTD:MSVCR100D.dll
 0002:00146122       _sqrt                      005ff122 f   MSVCRTD:MSVCR100D.dll
 0002:00146128       _log                       005ff128 f   MSVCRTD:MSVCR100D.dll
 0002:0014612e       _strchr                    005ff12e f   MSVCRTD:MSVCR100D.dll
 0002:00146134       ??0exception@std@@QAE@ABV01@@Z 005ff134 f   MSVCRTD:MSVCR100D.dll
 0002:0014613a       ??1exception@std@@UAE@XZ   005ff13a f   MSVCRTD:MSVCR100D.dll
 0002:00146140       ??0exception@std@@QAE@ABQBD@Z 005ff140 f   MSVCRTD:MSVCR100D.dll
 0002:00146146       ?what@exception@std@@UBEPBDXZ 005ff146 f   MSVCRTD:MSVCR100D.dll
 0002:0014614c       _strstr                    005ff14c f   MSVCRTD:MSVCR100D.dll
 0002:00146152       _strrchr                   005ff152 f   MSVCRTD:MSVCR100D.dll
 0002:00146158       __strupr                   005ff158 f   MSVCRTD:MSVCR100D.dll
 0002:0014615e       __strlwr                   005ff15e f   MSVCRTD:MSVCR100D.dll
 0002:00146164       _isxdigit                  005ff164 f   MSVCRTD:MSVCR100D.dll
 0002:0014616a       _strspn                    005ff16a f   MSVCRTD:MSVCR100D.dll
 0002:00146170       ?_set_se_translator@@YAP6AXIPAU_EXCEPTION_POINTERS@@@ZP6AXI0@Z@Z 005ff170 f   MSVCRTD:MSVCR100D.dll
 0002:00146176       _clock                     005ff176 f   MSVCRTD:MSVCR100D.dll
 0002:0014617c       _fprintf                   005ff17c f   MSVCRTD:MSVCR100D.dll
 0002:00146182       ___iob_func                005ff182 f   MSVCRTD:MSVCR100D.dll
 0002:00146190       __chkstk                   005ff190 f   MSVCRTD:chkstk.obj
 0002:00146190       __alloca_probe             005ff190     MSVCRTD:chkstk.obj
 0002:001461c6       _strncpy                   005ff1c6 f   MSVCRTD:MSVCR100D.dll
 0002:001461cc       _strpbrk                   005ff1cc f   MSVCRTD:MSVCR100D.dll
 0002:001461d2       _strcspn                   005ff1d2 f   MSVCRTD:MSVCR100D.dll
 0002:001461d8       _isspace                   005ff1d8 f   MSVCRTD:MSVCR100D.dll
 0002:001461de       _fopen_s                   005ff1de f   MSVCRTD:MSVCR100D.dll
 0002:001461e4       __wassert                  005ff1e4 f   MSVCRTD:MSVCR100D.dll
 0002:001461ea       ??_V@YAXPAX@Z              005ff1ea f   MSVCRTD:MSVCR100D.dll
 0002:001461f0       _fread                     005ff1f0 f   MSVCRTD:MSVCR100D.dll
 0002:001461f6       _ftell                     005ff1f6 f   MSVCRTD:MSVCR100D.dll
 0002:001461fc       _fseek                     005ff1fc f   MSVCRTD:MSVCR100D.dll
 0002:00146202       _ferror                    005ff202 f   MSVCRTD:MSVCR100D.dll
 0002:00146208       _fputc                     005ff208 f   MSVCRTD:MSVCR100D.dll
 0002:0014620e       _sscanf_s                  005ff20e f   MSVCRTD:MSVCR100D.dll
 0002:00146214       _memchr                    005ff214 f   MSVCRTD:MSVCR100D.dll
 0002:0014621a       __vsnprintf_s              005ff21a f   MSVCRTD:MSVCR100D.dll
 0002:00146220       _isalpha                   005ff220 f   MSVCRTD:MSVCR100D.dll
 0002:00146226       _isalnum                   005ff226 f   MSVCRTD:MSVCR100D.dll
 0002:0014622c       _tolower                   005ff22c f   MSVCRTD:MSVCR100D.dll
 0002:00146232       _fflush                    005ff232 f   MSVCRTD:MSVCR100D.dll
 0002:00146238       __ftime64_s                005ff238 f   MSVCRTD:MSVCR100D.dll
 0002:00146240       ___report_gsfailure        005ff240 f   MSVCRTD:gs_report.obj
 0002:001463a0       __RTC_NumErrors            005ff3a0 f   MSVCRTD:_userapi_.obj
 0002:001463b0       __RTC_GetErrDesc           005ff3b0 f   MSVCRTD:_userapi_.obj
 0002:001463d0       __RTC_SetErrorType         005ff3d0 f   MSVCRTD:_userapi_.obj
 0002:00146400       __RTC_SetErrorFunc         005ff400 f   MSVCRTD:_userapi_.obj
 0002:00146430       __RTC_SetErrorFuncW        005ff430 f   MSVCRTD:_userapi_.obj
 0002:00146460       ?_RTC_GetErrorFunc@@YAP6AHHPBDH00ZZPBX@Z 005ff460 f   MSVCRTD:_userapi_.obj
 0002:00146470       ?_RTC_GetErrorFuncW@@YAP6AHHPB_WH00ZZPBX@Z 005ff470 f   MSVCRTD:_userapi_.obj
 0002:00146476       __CRT_RTC_INITW            005ff476 f   MSVCRTD:MSVCR100D.dll
 0002:00146480       ??_M@YGXPAXIHP6EX0@Z@Z     005ff480 f   MSVCRTD:ehvecdtr.obj
 0002:00146560       ?__ArrayUnwind@@YGXPAXIHP6EX0@Z@Z 005ff560 f   MSVCRTD:ehvecdtr.obj
 0002:00146660       ?__CxxUnhandledExceptionFilter@@YGJPAU_EXCEPTION_POINTERS@@@Z 005ff660 f   MSVCRTD:unhandld.obj
 0002:001466e0       ___CxxSetUnhandledExceptionFilter 005ff6e0 f   MSVCRTD:unhandld.obj
 0002:001466fa       __configthreadlocale       005ff6fa f   MSVCRTD:MSVCR100D.dll
 0002:00146700       __setdefaultprecision      005ff700 f   MSVCRTD:fp8.obj
 0002:00146750       __invoke_watson_if_error   005ff750 f i MSVCRTD:fp8.obj
 0002:00146782       ___setusermatherr          005ff782 f   MSVCRTD:MSVCR100D.dll
 0002:00146790       __matherr                  005ff790 f   MSVCRTD:merr.obj
 0002:001467a0       __setargv                  005ff7a0 f   MSVCRTD:dllargv.obj
 0002:001467b0       __RTC_Initialize           005ff7b0 f   MSVCRTD:_initsect_.obj
 0002:001467e0       __RTC_Terminate            005ff7e0 f   MSVCRTD:_initsect_.obj
 0002:00146810       __onexit                   005ff810 f   MSVCRTD:atonexit.obj
 0002:00146940       _atexit                    005ff940 f   MSVCRTD:atonexit.obj
 0002:00146964       ___set_app_type            005ff964 f   MSVCRTD:MSVCR100D.dll
 0002:0014696a       __amsg_exit                005ff96a f   MSVCRTD:MSVCR100D.dll
 0002:00146970       ___getmainargs             005ff970 f   MSVCRTD:MSVCR100D.dll
 0002:00146980       ___security_init_cookie    005ff980 f   MSVCRTD:gs_support.obj
 0002:00146a98       __exit                     005ffa98 f   MSVCRTD:MSVCR100D.dll
 0002:00146a9e       __XcptFilter               005ffa9e f   MSVCRTD:MSVCR100D.dll
 0002:00146aa4       __cexit                    005ffaa4 f   MSVCRTD:MSVCR100D.dll
 0002:00146aaa       _exit                      005ffaaa f   MSVCRTD:MSVCR100D.dll
 0002:00146ab0       __CrtSetCheckCount         005ffab0 f   MSVCRTD:MSVCR100D.dll
 0002:00146ac0       __ValidateImageBase        005ffac0 f   MSVCRTD:pesect.obj
 0002:00146b40       __FindPESection            005ffb40 f   MSVCRTD:pesect.obj
 0002:00146be0       __IsNonwritableInCurrentImage 005ffbe0 f   MSVCRTD:pesect.obj
 0002:00146d36       __CrtDbgReportW            005ffd36 f   MSVCRTD:MSVCR100D.dll
 0002:00146d3c       __initterm                 005ffd3c f   MSVCRTD:MSVCR100D.dll
 0002:00146d42       __initterm_e               005ffd42 f   MSVCRTD:MSVCR100D.dll
 0002:00146d50       __except_handler4          005ffd50 f   MSVCRTD:chandler4gs.obj
 0002:00146d90       ___sse2_available_init     005ffd90 f   MSVCRTD:cpu_disp.obj
 0002:00146db0       ?_RTC_GetSrcLine@@YAHPAEPA_WKPAH1K@Z 005ffdb0 f   MSVCRTD:_pdblkup_.obj
 0002:00147586       __crt_debugger_hook        00600586 f   MSVCRTD:MSVCR100D.dll
 0002:0014758c       ?terminate@@YAXXZ          0060058c f   MSVCRTD:MSVCR100D.dll
 0002:00147592       ?_type_info_dtor_internal_method@type_info@@QAEXXZ 00600592 f   MSVCRTD:MSVCR100D.dll
 0002:00147592       ??1type_info@@UAE@XZ       00600592 f   MSVCRTD:MSVCR100D.dll
 0002:00147598       __controlfp_s              00600598 f   MSVCRTD:MSVCR100D.dll
 0002:0014759e       __invoke_watson            0060059e f   MSVCRTD:MSVCR100D.dll
 0002:001475a4       __unlock                   006005a4 f   MSVCRTD:MSVCR100D.dll
 0002:001475aa       ___dllonexit               006005aa f   MSVCRTD:MSVCR100D.dll
 0002:001475b0       __lock                     006005b0 f   MSVCRTD:MSVCR100D.dll
 0002:001475b6       __except_handler4_common   006005b6 f   MSVCRTD:MSVCR100D.dll
 0002:001475bc       __wmakepath_s              006005bc f   MSVCRTD:MSVCR100D.dll
 0002:001475c2       _wcscpy_s                  006005c2 f   MSVCRTD:MSVCR100D.dll
 0002:001475c8       __wsplitpath_s             006005c8 f   MSVCRTD:MSVCR100D.dll
 0002:001475ce       _EncodePointer@4           006005ce f   kernel32:KERNEL32.dll
 0002:001475d4       _InterlockedExchange@8     006005d4 f   kernel32:KERNEL32.dll
 0002:001475da       _Sleep@4                   006005da f   kernel32:KERNEL32.dll
 0002:001475e0       _InterlockedCompareExchange@12 006005e0 f   kernel32:KERNEL32.dll
 0002:001475e6       _HeapSetInformation@16     006005e6 f   kernel32:KERNEL32.dll
 0002:001475ec       _WideCharToMultiByte@32    006005ec f   kernel32:KERNEL32.dll
 0002:001475f2       _IsDebuggerPresent@0       006005f2 f   kernel32:KERNEL32.dll
 0002:001475f8       _MultiByteToWideChar@24    006005f8 f   kernel32:KERNEL32.dll
 0002:001475fe       _RaiseException@16         006005fe f   kernel32:KERNEL32.dll
 0002:00147604       _lstrlenA@4                00600604 f   kernel32:KERNEL32.dll
 0002:0014760a       _GetProcAddress@8          0060060a f   kernel32:KERNEL32.dll
 0002:00147610       _LoadLibraryW@4            00600610 f   kernel32:KERNEL32.dll
 0002:00147616       _TerminateProcess@8        00600616 f   kernel32:KERNEL32.dll
 0002:0014761c       _GetCurrentProcess@0       0060061c f   kernel32:KERNEL32.dll
 0002:00147622       _UnhandledExceptionFilter@4 00600622 f   kernel32:KERNEL32.dll
 0002:00147628       _SetUnhandledExceptionFilter@4 00600628 f   kernel32:KERNEL32.dll
 0002:0014762e       _DecodePointer@4           0060062e f   kernel32:KERNEL32.dll
 0002:00147634       _QueryPerformanceCounter@4 00600634 f   kernel32:KERNEL32.dll
 0002:0014763a       _GetTickCount@0            0060063a f   kernel32:KERNEL32.dll
 0002:00147640       _GetCurrentThreadId@0      00600640 f   kernel32:KERNEL32.dll
 0002:00147646       _GetCurrentProcessId@0     00600646 f   kernel32:KERNEL32.dll
 0002:0014764c       _GetSystemTimeAsFileTime@4 0060064c f   kernel32:KERNEL32.dll
 0002:00147652       _IsProcessorFeaturePresent@4 00600652 f   kernel32:KERNEL32.dll
 0002:00147658       _HeapFree@12               00600658 f   kernel32:KERNEL32.dll
 0002:0014765e       _HeapAlloc@12              0060065e f   kernel32:KERNEL32.dll
 0002:00147664       _GetProcessHeap@0          00600664 f   kernel32:KERNEL32.dll
 0002:0014766a       _GetModuleFileNameW@12     0060066a f   kernel32:KERNEL32.dll
 0002:00147670       _VirtualQuery@12           00600670 f   kernel32:KERNEL32.dll
 0002:00147676       _GetModuleHandleW@4        00600676 f   kernel32:KERNEL32.dll
 0002:0014767c       _FreeLibrary@4             0060067c f   kernel32:KERNEL32.dll
 0002:00147682       _WSAStartup@8              00600682 f   Ws2_32:WS2_32.dll
 0002:00147688       _WSACleanup@0              00600688 f   Ws2_32:WS2_32.dll
 0002:0014768e       _ioctlsocket@12            0060068e f   Ws2_32:WS2_32.dll
 0002:00147694       _WSAGetLastError@0         00600694 f   Ws2_32:WS2_32.dll
 0002:0014769a       _connect@12                0060069a f   Ws2_32:WS2_32.dll
 0002:001476a0       _socket@12                 006006a0 f   Ws2_32:WS2_32.dll
 0002:001476a6       _gethostbyname@4           006006a6 f   Ws2_32:WS2_32.dll
 0002:001476ac       _inet_addr@4               006006ac f   Ws2_32:WS2_32.dll
 0002:001476b2       _htons@4                   006006b2 f   Ws2_32:WS2_32.dll
 0002:001476b8       _closesocket@4             006006b8 f   Ws2_32:WS2_32.dll
 0002:001476be       _shutdown@8                006006be f   Ws2_32:WS2_32.dll
 0002:001476c4       _select@20                 006006c4 f   Ws2_32:WS2_32.dll
 0002:001476ca       _recv@16                   006006ca f   Ws2_32:WS2_32.dll
 0002:001476d0       _send@16                   006006d0 f   Ws2_32:WS2_32.dll
 0002:001476d6       _listen@8                  006006d6 f   Ws2_32:WS2_32.dll
 0002:001476dc       _setsockopt@20             006006dc f   Ws2_32:WS2_32.dll
 0002:001476e2       _bind@12                   006006e2 f   Ws2_32:WS2_32.dll
 0002:001476e8       _ntohs@4                   006006e8 f   Ws2_32:WS2_32.dll
 0002:001476ee       _accept@12                 006006ee f   Ws2_32:WS2_32.dll
 0002:00147700       _rfc_hnd_semlock           00600700 f   generic:_gen_win.obj
 0002:00147770       _rfc_hnd_semunlock         00600770 f   generic:_gen_win.obj
 0002:001477d0       _rfc_hnd_semcreate         006007d0 f   generic:_gen_win.obj
 0002:00147830       _rfc_hnd_semdestroy        00600830 f   generic:_gen_win.obj
 0002:001478a0       _rfc_hnd_waitevent         006008a0 f   generic:_gen_win.obj
 0002:00147930       _rfc_hnd_evcreate          00600930 f   generic:_gen_win.obj
 0002:00147990       _rfc_hnd_evdestroy         00600990 f   generic:_gen_win.obj
 0002:00147a00       _rfc_hnd_evsignal          00600a00 f   generic:_gen_win.obj
 0002:00147a60       _rfc_hnd_evreset           00600a60 f   generic:_gen_win.obj
 0002:00147ac0       _rfc_hnd_mutcreate         00600ac0 f   generic:_gen_win.obj
 0002:00147b20       _rfc_hnd_mutdestroy        00600b20 f   generic:_gen_win.obj
 0002:00147b90       _rfc_hnd_mutlock           00600b90 f   generic:_gen_win.obj
 0002:00147bf0       _rfc_hnd_mutunlock         00600bf0 f   generic:_gen_win.obj
 0002:00147c50       _rfc_thr_initmain          00600c50 f   generic:_gen_win.obj
 0002:00147ed0       _rfc_thr_setsignals        00600ed0 f   generic:_gen_win.obj
 0002:00147f00       _rfc_thr_initthread        00600f00 f   generic:_gen_win.obj
 0002:00147f80       _rfc_thr_getdata           00600f80 f   generic:_gen_win.obj
 0002:00147fe0       _rfc_thr_exitthread        00600fe0 f   generic:_gen_win.obj
 0002:00148040       _rfc_thr_waitexit          00601040 f   generic:_gen_win.obj
 0002:001480b0       _rfc_thr_closehandle       006010b0 f   generic:_gen_win.obj
 0002:00148110       _rfc_thr_process           00601110 f   generic:_gen_win.obj
 0002:001481a0       _rfc_thr_threxit           006011a0 f   generic:_gen_win.obj
 0002:00148200       _rfc_thr_sleep             00601200 f   generic:_gen_win.obj
 0002:00148260       _rfc_thr_increment         00601260 f   generic:_gen_win.obj
 0002:001482c0       _rfc_thr_register          006012c0 f   generic:_gen_win.obj
 0002:00148350       _rfc_thr_getcurrentid      00601350 f   generic:_gen_win.obj
 0002:001483b0       _rfc_thr_suspend           006013b0 f   generic:_gen_win.obj
 0002:00148410       _rfc_thr_resume            00601410 f   generic:_gen_win.obj
 0002:00148470       _rfc_lib_load              00601470 f   generic:_gen_win.obj
 0002:001484d0       _rfc_lib_getfunc           006014d0 f   generic:_gen_win.obj
 0002:00148530       _rfc_lib_unload            00601530 f   generic:_gen_win.obj
 0002:00148590       _rfc_env_gethostname       00601590 f   generic:_gen_win.obj
 0002:001485f0       _rfc_str_setcp             006015f0 f   generic:_gen_win.obj
 0002:00148690       _rfc_wstr_setcp            00601690 f   generic:_gen_win.obj
 0002:00148730       _rfc_hpt_startadjustment   00601730 f   generic:_gen_win.obj
 0002:001487a0       _rfc_hpt_stopadjustment    006017a0 f   generic:_gen_win.obj
 0002:00148890       _rfc_hpt_setpoint          00601890 f   generic:_gen_win.obj
 0002:001488f0       _rfc_hpt_timepassed        006018f0 f   generic:_gen_win.obj
 0002:001489a0       _rfc_hpt_ticks2ms          006019a0 f   generic:_gen_win.obj
 0002:00148a20       _rfc_hpt_ms2ticks          00601a20 f   generic:_gen_win.obj
 0002:00148aa0       _rfc_sys_getcpuload        00601aa0 f   generic:_gen_win.obj
 0002:00148dc0       _rfc_sys_getfileinfo       00601dc0 f   generic:_gen_win.obj
 0002:00148f40       _rfc_lock_create           00601f40 f   generic:_gen_lock.obj
 0002:00148fe0       _rfc_lock_destroy          00601fe0 f   generic:_gen_lock.obj
 0002:00149060       _rfc_lock_shared           00602060 f   generic:_gen_lock.obj
 0002:00149100       _rfc_lock_exclusive        00602100 f   generic:_gen_lock.obj
 0002:00149160       _rfc_lock_release          00602160 f   generic:_gen_lock.obj
 0002:00149230       _rfc_lock_escalate         00602230 f   generic:_gen_lock.obj
 0002:00149310       _rfc_thr_initstackhandle   00602310 f   generic:_gen_stacktrace.obj
 0002:00149370       _rfc_thr_exitstackhandle   00602370 f   generic:_gen_stacktrace.obj
 0002:00149460       _rfc_thr_stackget          00602460 f   generic:_gen_stacktrace.obj
 0002:001494b0       _rfc_thr_stackgetforthread 006024b0 f   generic:_gen_stacktrace.obj
 0002:00149960       _rfc_thr_stackfulldepth    00602960 f   generic:_gen_stacktrace.obj
 0002:001499b0       _rfc_thr_stackdepth        006029b0 f   generic:_gen_stacktrace.obj
 0002:00149a10       _rfc_thr_stacklevel        00602a10 f   generic:_gen_stacktrace.obj
 0002:00149aa0       _rfc_thr_stackfree         00602aa0 f   generic:_gen_stacktrace.obj
 0002:00149b70       _rfc_thr_stacknamebyaddr   00602b70 f   generic:_gen_stacktrace.obj
 0002:00149bd0       _rfc_int_semlock           00602bd0 f   generic:_gen_int.obj
 0002:00149c90       _rfc_int_semunlock         00602c90 f   generic:_gen_int.obj
 0002:00149cf0       _rfc_int_semcreate         00602cf0 f   generic:_gen_int.obj
 0002:00149db0       _rfc_int_semstop           00602db0 f   generic:_gen_int.obj
 0002:00149e10       _rfc_int_semdestroy        00602e10 f   generic:_gen_int.obj
 0002:00149ea0       _rfc_int_poolcreate        00602ea0 f   generic:_gen_int.obj
 0002:00149f70       _rfc_int_poolget           00602f70 f   generic:_gen_int.obj
 0002:0014a030       _rfc_int_poolput           00603030 f   generic:_gen_int.obj
 0002:0014a0d0       _rfc_int_poolstop          006030d0 f   generic:_gen_int.obj
 0002:0014a130       _rfc_int_pooldestroy       00603130 f   generic:_gen_int.obj
 0002:0014a1c0       _getCurrentModuleName      006031c0 f   generic:printStackTrace.obj
 0002:0014a220       _createModuleData          00603220 f   generic:printStackTrace.obj
 0002:0014a320       _dropModuleData            00603320 f   generic:printStackTrace.obj
 0002:0014a3c0       ??_GMapFile@MAPFILE@@QAEPAXI@Z 006033c0 f i generic:printStackTrace.obj
 0002:0014a430       _getThreadStackTrace       00603430 f   generic:printStackTrace.obj
 0002:0014a4b0       _getModuleItemByAddr       006034b0 f   generic:printStackTrace.obj
 0002:0014a650       _onSortMapSymbols          00603650 f   generic:MapFile.obj
 0002:0014a6a0       ??0MapFile@MAPFILE@@QAE@PBD@Z 006036a0 f   generic:MapFile.obj
 0002:0014a7a0       ??0MapFileImpl@MapFile@MAPFILE@@QAE@PBD@Z 006037a0 f i generic:MapFile.obj
 0002:0014aa60       ?parseLoadAddress@MapFileImpl@MapFile@MAPFILE@@AAEXXZ 00603a60 f i generic:MapFile.obj
 0002:0014aaf0       ?parse@MapFileImpl@MapFile@MAPFILE@@AAEXPBD@Z 00603af0 f i generic:MapFile.obj
 0002:0014abf0       ?parseSegments@MapFileImpl@MapFile@MAPFILE@@AAEXXZ 00603bf0 f i generic:MapFile.obj
 0002:0014aca0       ?error@MapFileImpl@MapFile@MAPFILE@@QAE?AW4ErrorType@23@XZ 00603ca0 f i generic:MapFile.obj
 0002:0014ad80       ?setErrorString@MapFileImpl@MapFile@MAPFILE@@QAEXPBD@Z 00603d80 f i generic:MapFile.obj
 0002:0014ae30       ?nextLineEmpty@MapFileImpl@MapFile@MAPFILE@@AAE_NXZ 00603e30 f i generic:MapFile.obj
 0002:0014af50       ?parseEntries@MapFileImpl@MapFile@MAPFILE@@AAEXXZ 00603f50 f i generic:MapFile.obj
 0002:0014b3b0       ?strchr@@YAPADPADH@Z       006043b0 f i generic:MapFile.obj
 0002:0014b410       ?parse@MapFileImpl@MapFile@MAPFILE@@AAEXD@Z 00604410 f i generic:MapFile.obj
 0002:0014b4f0       ?addNewSymbol@MapFileImpl@MapFile@MAPFILE@@AAEXJJPBDJDD00@Z 006044f0 f i generic:MapFile.obj
 0002:0014b780       ??1MapFile@MAPFILE@@QAE@XZ 00604780 f   generic:MapFile.obj
 0002:0014b820       ??_GMapFileImpl@MapFile@MAPFILE@@QAEPAXI@Z 00604820 f i generic:MapFile.obj
 0002:0014b890       ??1MapFileImpl@MapFile@MAPFILE@@QAE@XZ 00604890 f i generic:MapFile.obj
 0002:0014b9a0       ?loadAddressPlanned@MapFile@MAPFILE@@QBEJXZ 006049a0 f   generic:MapFile.obj
 0002:0014b9e0       ?loadAddressActual@MapFile@MAPFILE@@QBEJXZ 006049e0 f   generic:MapFile.obj
 0002:0014ba20       ?getSymbol@MapFile@MAPFILE@@QBEPBUMAP_FILE_SYMBOL@2@H@Z 00604a20 f   generic:MapFile.obj
 0002:0014ba70       ?symbols@MapFile@MAPFILE@@QBEHXZ 00604a70 f   generic:MapFile.obj
 0002:0014bac0       ?error@MapFile@MAPFILE@@QAE?AW4ErrorType@12@XZ 00604ac0 f   generic:MapFile.obj
 0002:0014bb20       ?errorString@MapFile@MAPFILE@@QAEPBDXZ 00604b20 f   generic:MapFile.obj
 0002:0014bb80       ?errorString@MapFileImpl@MapFile@MAPFILE@@QAEPBDXZ 00604b80 f i generic:MapFile.obj
 0002:0014bbe0       ?line@MapFile@MAPFILE@@QBEHXZ 00604be0 f   generic:MapFile.obj
 0002:0014bc40       ?line@MapFileImpl@MapFile@MAPFILE@@QBEHXZ 00604c40 f i generic:MapFile.obj
 0002:0014bcc0       ?findSymbol@MapFile@MAPFILE@@QBEHJ@Z 00604cc0 f   generic:MapFile.obj
 0002:0014bdb0       ?getModuleMapFilename@MapFile@MAPFILE@@SAXPADH@Z 00604db0 f   generic:MapFile.obj
 0002:0014bf20       ?getStackTrace@StackTrace@MAPFILE@@SA_NKPAPAVMapFile@2@HPAXP6AX1PBD222@Z@Z 00604f20 f   generic:StackTrace.obj
 0002:0014c530       ?fillMapEntry@StackTrace@MAPFILE@@SAXAAVMapFile@2@HPAD1@Z 00605530 f   generic:StackTrace.obj
 0002:0014c6a0       ?switchContext@StackTrace@MAPFILE@@SAXKPAX@Z 006056a0 f   generic:StackTrace.obj
 0002:0014c7c0       ?restoreContext@StackTrace@MAPFILE@@SAXKPAX@Z 006057c0 f   generic:StackTrace.obj
 0002:0014c7f0       ??0TextFile@MAPFILE@@QAE@PBD@Z 006057f0 f   generic:TextFile.obj
 0002:0014c8f0       ??0TextFileImpl@TextFile@MAPFILE@@QAE@PBD@Z 006058f0 f i generic:TextFile.obj
 0002:0014ca40       ?setError@TextFileImpl@TextFile@MAPFILE@@QAEXW4ErrorType@23@PBD@Z 00605a40 f i generic:TextFile.obj
 0002:0014caf0       ??1TextFile@MAPFILE@@QAE@XZ 00605af0 f   generic:TextFile.obj
 0002:0014cb90       ??_GTextFileImpl@TextFile@MAPFILE@@QAEPAXI@Z 00605b90 f i generic:TextFile.obj
 0002:0014cc00       ??1TextFileImpl@TextFile@MAPFILE@@QAE@XZ 00605c00 f i generic:TextFile.obj
 0002:0014ccb0       ?readString@TextFile@MAPFILE@@QAE_NPADH@Z 00605cb0 f   generic:TextFile.obj
 0002:0014cd10       ?readString@TextFileImpl@TextFile@MAPFILE@@QAE_NPADH@Z 00605d10 f i generic:TextFile.obj
 0002:0014ce50       ?peekChar@TextFileImpl@TextFile@MAPFILE@@QAE_NPAD@Z 00605e50 f i generic:TextFile.obj
 0002:0014cf60       ?readChar@TextFileImpl@TextFile@MAPFILE@@QAE_NPAD@Z 00605f60 f i generic:TextFile.obj
 0002:0014d000       ?skipWhitespace@TextFileImpl@TextFile@MAPFILE@@QAE_NXZ 00606000 f i generic:TextFile.obj
 0002:0014d0f0       ?eof@TextFileImpl@TextFile@MAPFILE@@QBE_NXZ 006060f0 f i generic:TextFile.obj
 0002:0014d170       ?skipLine@TextFile@MAPFILE@@QAEXXZ 00606170 f   generic:TextFile.obj
 0002:0014d1d0       ?skipLine@TextFileImpl@TextFile@MAPFILE@@QAEXXZ 006061d0 f i generic:TextFile.obj
 0002:0014d280       ?readHex@TextFile@MAPFILE@@QAEJXZ 00606280 f   generic:TextFile.obj
 0002:0014d2e0       ?readHex@TextFileImpl@TextFile@MAPFILE@@QAEJXZ 006062e0 f i generic:TextFile.obj
 0002:0014d6a0       ?skipWhitespace@TextFile@MAPFILE@@QAE_NXZ 006066a0 f   generic:TextFile.obj
 0002:0014d700       ?error@TextFile@MAPFILE@@QBE?AW4ErrorType@12@XZ 00606700 f   generic:TextFile.obj
 0002:0014d740       ?getErrorString@TextFile@MAPFILE@@QBEPBDXZ 00606740 f   generic:TextFile.obj
 0002:0014d780       ?readChar@TextFile@MAPFILE@@QAE_NPAD@Z 00606780 f   generic:TextFile.obj
 0002:0014d7e0       ?peekChar@TextFile@MAPFILE@@QAE_NPAD@Z 006067e0 f   generic:TextFile.obj
 0002:0014d840       ?eof@TextFile@MAPFILE@@QBE_NXZ 00606840 f   generic:TextFile.obj
 0002:0014d8a0       ?line@TextFile@MAPFILE@@QBEHXZ 006068a0 f   generic:TextFile.obj
 0002:0014d8de       _signal                    006068de f   MSVCRTD:MSVCR100D.dll
 0002:0014d8e4       __beginthreadex            006068e4 f   MSVCRTD:MSVCR100D.dll
 0002:0014d8ea       __endthreadex              006068ea f   MSVCRTD:MSVCR100D.dll
 0002:0014d8f0       _qsort                     006068f0 f   MSVCRTD:MSVCR100D.dll
 0002:0014d8f6       _getc                      006068f6 f   MSVCRTD:MSVCR100D.dll
 0002:0014d8fc       _WaitForSingleObject@8     006068fc f   kernel32:KERNEL32.dll
 0002:0014d902       _ReleaseSemaphore@12       00606902 f   kernel32:KERNEL32.dll
 0002:0014d908       _CreateSemaphoreA@16       00606908 f   kernel32:KERNEL32.dll
 0002:0014d90e       _CloseHandle@4             0060690e f   kernel32:KERNEL32.dll
 0002:0014d914       _CancelIoEx@8              00606914 f   kernel32:KERNEL32.dll
 0002:0014d91a       _CreateEventA@16           0060691a f   kernel32:KERNEL32.dll
 0002:0014d920       _SetEvent@4                00606920 f   kernel32:KERNEL32.dll
 0002:0014d926       _ResetEvent@4              00606926 f   kernel32:KERNEL32.dll
 0002:0014d92c       _CreateMutexA@12           0060692c f   kernel32:KERNEL32.dll
 0002:0014d932       _ReleaseMutex@4            00606932 f   kernel32:KERNEL32.dll
 0002:0014d938       _TlsAlloc@0                00606938 f   kernel32:KERNEL32.dll
 0002:0014d93e       _TlsSetValue@8             0060693e f   kernel32:KERNEL32.dll
 0002:0014d944       _TlsGetValue@4             00606944 f   kernel32:KERNEL32.dll
 0002:0014d94a       _InterlockedIncrement@4    0060694a f   kernel32:KERNEL32.dll
 0002:0014d950       _OpenThread@12             00606950 f   kernel32:KERNEL32.dll
 0002:0014d956       _SuspendThread@4           00606956 f   kernel32:KERNEL32.dll
 0002:0014d95c       _ResumeThread@4            0060695c f   kernel32:KERNEL32.dll
 0002:0014d962       _LoadLibraryA@4            00606962 f   kernel32:KERNEL32.dll
 0002:0014d968       _GetComputerNameA@8        00606968 f   kernel32:KERNEL32.dll
 0002:0014d96e       _GetSystemTimes@12         0060696e f   kernel32:KERNEL32.dll
 0002:0014d974       _FindClose@4               00606974 f   kernel32:KERNEL32.dll
 0002:0014d97a       _FindFirstFileA@8          0060697a f   kernel32:KERNEL32.dll
 0002:0014d980       _WaitForMultipleObjectsEx@20 00606980 f   kernel32:KERNEL32.dll
 0002:0014d986       _GetModuleFileNameA@12     00606986 f   kernel32:KERNEL32.dll
 0002:0014d98c       _GetModuleHandleA@4        0060698c f   kernel32:KERNEL32.dll
 0002:0014d992       _GetThreadContext@8        00606992 f   kernel32:KERNEL32.dll
 0003:00000000       ___xc_a                    00635000     MSVCRTD:cinitexe.obj
 0003:00000208       ___xc_z                    00635208     MSVCRTD:cinitexe.obj
 0003:0000030c       ___xi_a                    0063530c     MSVCRTD:cinitexe.obj
 0003:0000071c       ___xi_z                    0063571c     MSVCRTD:cinitexe.obj
 0003:00000840       ??_7EffectorEndocrine@@6B@ 00635840     actuator-endocrine.obj
 0003:00000880       ??_C@_0BC@KLKAHBBG@EffectorEndocrine?$AA@ 00635880     actuator-endocrine.obj
 0003:0000089c       ??_7EffectorBreast@@6B@    0063589c     actuator_breast.obj
 0003:000008dc       ??_C@_0P@LKEBCEJD@EffectorBreast?$AA@ 006358dc     actuator_breast.obj
 0003:000008f4       ??_7SensorEar@@6B@         006358f4     actuator_ear.obj
 0003:0000093c       ??_C@_09MCCFAKFK@SensorEar?$AA@ 0063593c     actuator_ear.obj
 0003:0000094c       ??_7SensorEye@@6B@         0063594c     actuator_eye.obj
 0003:00000994       ??_C@_09NFJDHMAE@SensorEye?$AA@ 00635994     actuator_eye.obj
 0003:000009a4       ??_7EffectorFace@@6B@      006359a4     actuator_face.obj
 0003:000009e4       ??_C@_0N@GIDLKELL@EffectorFace?$AA@ 006359e4     actuator_face.obj
 0003:000009f8       ??_7EffectorFeeder@@6B@    006359f8     actuator_feeder.obj
 0003:00000a38       ??_C@_0P@CJPCLKNF@EffectorFeeder?$AA@ 00635a38     actuator_feeder.obj
 0003:00000a50       ??_7EffectorGenitalia@@6B@ 00635a50     actuator_genitalia.obj
 0003:00000a90       ??_C@_0BC@LAHOOKMG@EffectorGenitalia?$AA@ 00635a90     actuator_genitalia.obj
 0003:00000aac       ??_7EffectorHand@@6B@      00635aac     actuator_hand.obj
 0003:00000aec       ??_C@_0N@MGMILIMI@EffectorHand?$AA@ 00635aec     actuator_hand.obj
 0003:00000b00       ??_7EffectorHeart@@6B@     00635b00     actuator_heart.obj
 0003:00000b40       ??_C@_0O@GLGCFHJM@EffectorHeart?$AA@ 00635b40     actuator_heart.obj
 0003:00000b54       ??_7EffectorProtector@@6B@ 00635b54     actuator_protector.obj
 0003:00000b94       ??_C@_0BC@DFILGCHB@EffectorProtector?$AA@ 00635b94     actuator_protector.obj
 0003:00000bb0       ??_7EffectorLeg@@6B@       00635bb0     actuator_leg.obj
 0003:00000bf0       ??_C@_0M@NHBHFLLJ@EffectorLeg?$AA@ 00635bf0     actuator_leg.obj
 0003:00000c04       ??_7EffectorLiver@@6B@     00635c04     actuator_liver.obj
 0003:00000c44       ??_C@_0O@LHPOIFNO@EffectorLiver?$AA@ 00635c44     actuator_liver.obj
 0003:00000c58       ??_7EffectorLung@@6B@      00635c58     actuator_lung.obj
 0003:00000c98       ??_C@_0N@MHBOINAD@EffectorLung?$AA@ 00635c98     actuator_lung.obj
 0003:00000cac       ??_7EffectorNeck@@6B@      00635cac     actuator_neck.obj
 0003:00000cec       ??_C@_0N@EJKKFFKD@EffectorNeck?$AA@ 00635cec     actuator_neck.obj
 0003:00000d04       ??_7SensorNose@@6B@        00635d04     actuator_nose.obj
 0003:00000d4c       ??_C@_0L@FDLCOBH@SensorNose?$AA@ 00635d4c     actuator_nose.obj
 0003:00000d60       ??_7EffectorRectum@@6B@    00635d60     actuator_rectum.obj
 0003:00000da0       ??_C@_0P@LEEGANNJ@EffectorRectum?$AA@ 00635da0     actuator_rectum.obj
 0003:00000db8       ??_7EffectorSpeaker@@6B@   00635db8     actuator_speaker.obj
 0003:00000df8       ??_C@_0BA@NLHCAOAF@EffectorSpeaker?$AA@ 00635df8     actuator_speaker.obj
 0003:00000e10       ??_7EffectorStomach@@6B@   00635e10     actuator_stomach.obj
 0003:00000e50       ??_C@_0BA@JAELICHM@EffectorStomach?$AA@ 00635e50     actuator_stomach.obj
 0003:00000e68       ??_7EffectorTrunk@@6B@     00635e68     actuator_trunk.obj
 0003:00000ea8       ??_C@_0O@MKKLEKKM@EffectorTrunk?$AA@ 00635ea8     actuator_trunk.obj
 0003:00000ebc       ??_7EffectorUreter@@6B@    00635ebc     actuator_ureter.obj
 0003:00000efc       ??_C@_0P@DBAOFJDK@EffectorUreter?$AA@ 00635efc     actuator_ureter.obj
 0003:00000f14       ??_7EffectorVessels@@6B@   00635f14     actuator_vessels.obj
 0003:00000f54       ??_C@_0BA@JPMOOLJB@EffectorVessels?$AA@ 00635f54     actuator_vessels.obj
 0003:00000f6c       ??_7AHumanTarget@@6BMessageSubscriber@@@ 00635f6c     ahumantarget.obj
 0003:00000f8c       ??_7AHumanTarget@@6BMindTarget@@@ 00635f8c     ahumantarget.obj
 0003:00000fd8       ??_7MessageSubscriber@@6B@ 00635fd8     ahumantarget.obj
 0003:00000ff0       ??_C@_0BF@KIIEHGPH@TARGET?4TEA?4ENDOCRINE?$AA@ 00635ff0     ahumantarget.obj
 0003:0000100c       ??_C@_0BD@JDMDNCLF@TARGET?4TEA?4VESSELS?$AA@ 0063600c     ahumantarget.obj
 0003:00001024       ??_C@_0BC@LBECGFDJ@TARGET?4TEA?4URETER?$AA@ 00636024     ahumantarget.obj
 0003:0000103c       ??_C@_0BC@DEAKDBNK@TARGET?4TEA?4RECTUM?$AA@ 0063603c     ahumantarget.obj
 0003:00001054       ??_C@_0BF@LDFKONCH@TARGET?4TEA?4GENITALIA?$AA@ 00636054     ahumantarget.obj
 0003:00001070       ??_C@_0BC@DKANBIJA@TARGET?4TEA?4BREAST?$AA@ 00636070     ahumantarget.obj
 0003:00001088       ??_C@_0BB@NIJOKCPB@TARGET?4TEA?4TRUNK?$AA@ 00636088     ahumantarget.obj
 0003:0000109c       ??_C@_0P@OFIAODAH@TARGET?4TEA?4LEG?$AA@ 0063609c     ahumantarget.obj
 0003:000010b0       ??_C@_0BA@HPKHJFFJ@TARGET?4TEA?4HAND?$AA@ 006360b0     ahumantarget.obj
 0003:000010c4       ??_C@_0BD@JMEGLLFI@TARGET?4TEA?4STOMACH?$AA@ 006360c4     ahumantarget.obj
 0003:000010dc       ??_C@_0BB@KFMLGNID@TARGET?4TEA?4LIVER?$AA@ 006360dc     ahumantarget.obj
 0003:000010f0       ??_C@_0BA@HOHBKAJC@TARGET?4TEA?4LUNG?$AA@ 006360f0     ahumantarget.obj
 0003:00001104       ??_C@_0BA@PAMFHIDC@TARGET?4TEA?4NECK?$AA@ 00636104     ahumantarget.obj
 0003:00001118       ??_C@_0BA@NBFEIJCK@TARGET?4TEA?4FACE?$AA@ 00636118     ahumantarget.obj
 0003:0000112c       ??_C@_0BD@NHHPDHCB@TARGET?4TEA?4SPEAKER?$AA@ 0063612c     ahumantarget.obj
 0003:00001144       ??_C@_0BC@KJLOIGNG@TARGET?4TEA?4FEEDER?$AA@ 00636144     ahumantarget.obj
 0003:0000115c       ??_C@_0BF@DGKPGFJA@TARGET?4TEA?4PROTECTOR?$AA@ 0063615c     ahumantarget.obj
 0003:00001178       ??_C@_0BB@HJFHLPMB@TARGET?4TEA?4HEART?$AA@ 00636178     ahumantarget.obj
 0003:0000118c       ??_C@_0BA@KHAJCOAE@TARGET?4TSA?4NOSE?$AA@ 0063618c     ahumantarget.obj
 0003:000011a0       ??_C@_0P@KMDKELLB@TARGET?4TSA?4EAR?$AA@ 006361a0     ahumantarget.obj
 0003:000011b4       ??_C@_0P@LLIMDNOP@TARGET?4TSA?4EYE?$AA@ 006361b4     ahumantarget.obj
 0003:000011c8       ??_C@_0BA@DCIANOAI@target?4commands?$AA@ 006361c8     ahumantarget.obj
 0003:000011dc       ??_C@_0BE@LDHNMEJH@target?4commands?4sub?$AA@ 006361dc     ahumantarget.obj
 0003:000011f4       ??_C@_0N@OBGKABDA@unknown?5cmd?$DN?$AA@ 006361f4     ahumantarget.obj
 0003:00001204       ??_C@_0BA@BLHIFKKK@CreateWikiPages?$AA@ 00636204     ahumantarget.obj
 0003:00001218       ??_C@_0M@IAFDBGIC@VerifyModel?$AA@ 00636218     ahumantarget.obj
 0003:00001228       ??_C@_0M@PBEKAMDP@PlayCircuit?$AA@ 00636228     ahumantarget.obj
 0003:00001238       ??_C@_0BP@PBNGENEC@onXmlMessage?3?5execute?5request?$DN?$AA@ 00636238     ahumantarget.obj
 0003:00001260       ??_C@_04MEMAJGDJ@name?$AA@ 00636260     ahumantarget.obj
 0003:00001268       ??_C@_0CG@EHDALGKA@cmdPlayCircuit?3?5SUCCESSFULLY?5FIN@ 00636268     ahumantarget.obj
 0003:00001298       ??_C@_0CG@LBCIFLMO@cmdVerifyModel?3?5SUCCESSFULLY?5FIN@ 00636298     ahumantarget.obj
 0003:000012c8       ??_C@_0CK@OLHCDMGH@cmdCreateWikiPages?3?5SUCCESSFULLY@ 006362c8     ahumantarget.obj
 0003:000012fc       ??_C@_0BB@MOKPDEOB@MessagingService?$AA@ 006362fc     ahumantarget.obj
 0003:00001310       ??_C@_0L@FAMIBJEB@MindTarget?$AA@ 00636310     ahumantarget.obj
 0003:00001320       ??_C@_0CE@MGKHFCNF@Arguments?3?5?$DMconfig?5directory?5pat@ 00636320     main.obj
 0003:00001350       ??_7MindModel@@6B@         00636350     mindmodel.obj
 0003:00001368       ??_C@_09KGNNECAD@MindModel?$AA@ 00636368     mindmodel.obj
 0003:00001374       ??_C@_0BD@NPKBIEMF@assertion?5failed?5?$CI?$AA@ 00636374     mindmodel.obj
 0003:0000138c       ??_C@_0CC@LIPJGEDA@index?5?$DO?$DN?50?5?$CG?$CG?5index?5?$DM?5data?5?9?$DO?5s_@ 0063638c     mindmodel.obj
 0003:000013b4       ??_C@_01PKGAHCOL@?$CJ?$AA@ 006363b4     mindmodel.obj
 0003:000013b8       ??_C@_0EE@MOHIFPED@d?3?2projects?2ai2svn?2root?2trunk_hl@ 006363b8     mindmodel.obj
 0003:00001410       ??_7Object@@6B@            00636410     mindmodel.obj
 0003:00001424       ??_C@_0M@OJLELPII@MindService?$AA@ 00636424     mindmodel.obj
 0003:00001438       ??_7ScenarioPlayer@@6B@    00636438     scenarioplayer.obj
 0003:00001450       ??_C@_0P@LCLFBCIN@ScenarioPlayer?$AA@ 00636450     scenarioplayer.obj
 0003:00001464       ??_C@_09FBEOLLBH@xmlsignal?$AA@ 00636464     scenarioplayer.obj
 0003:00001470       ??_C@_0BF@FBICICNG@process?5scenario?5?4?4?4?$AA@ 00636470     scenarioplayer.obj
 0003:0000148c       ??_C@_02KDPLEDJA@?4S?$AA@  0063648c     scenarioplayer.obj
 0003:00001490       ??_C@_0CP@FMPGLACC@?3?5there?5are?5no?5derived?5signals?5f@ 00636490     scenarioplayer.obj
 0003:000014c8       ??_C@_0P@HGAFNAPF@?5to?5component?$DN?$AA@ 006364c8     scenarioplayer.obj
 0003:000014dc       ??_C@_0N@HMAAJMJM@?0?5connector?$DN?$AA@ 006364dc     scenarioplayer.obj
 0003:000014ec       ??_C@_0N@IGABOBJI@?0?5signal?5id?$DN?$AA@ 006364ec     scenarioplayer.obj
 0003:000014fc       ??_C@_04IBCFJNCN@?5?4?4?4?$AA@ 006364fc     scenarioplayer.obj
 0003:00001504       ??_C@_0BC@FMFFFHDG@send?5signal?5name?$DN?$AA@ 00636504     scenarioplayer.obj
 0003:0000151c       ??_C@_02CONMJBMJ@TM?$AA@   0063651c     scenarioplayer.obj
 0003:00001520       ??_C@_0P@DJIOGBJ@region?5?$CB?$DN?5NULL?$AA@ 00636520     scenarioplayer.obj
 0003:00001534       ??_C@_03LPPJIELD@?$CJ?3?5?$AA@ 00636534     scenarioplayer.obj
 0003:00001538       ??_C@_0EJ@JLKBEIG@d?3?2projects?2ai2svn?2root?2trunk_hl@ 00636538     scenarioplayer.obj
 0003:00001590       ??_C@_0BA@BDAKHBMA@unknown?5region?$DN?$AA@ 00636590     scenarioplayer.obj
 0003:000015a4       ??_C@_09IHODNAGI@connector?$AA@ 006365a4     scenarioplayer.obj
 0003:000015b0       ??_C@_09NILLCKIE@component?$AA@ 006365b0     scenarioplayer.obj
 0003:000015bc       ?value@?$integral_constant@_N$0A@@tr1@std@@2_NB 006365bc     stdafx.obj
 0003:000015bd       ?value@?$integral_constant@_N$00@tr1@std@@2_NB 006365bd     stdafx.obj
 0003:000015c0       ?value@?$integral_constant@I$0A@@tr1@std@@2IB 006365c0     stdafx.obj
 0003:000015c4       ?_Rank@?$_Arithmetic_traits@_N@std@@2HB 006365c4     stdafx.obj
 0003:000015c8       ?_Rank@?$_Arithmetic_traits@D@std@@2HB 006365c8     stdafx.obj
 0003:000015cc       ?_Rank@?$_Arithmetic_traits@C@std@@2HB 006365cc     stdafx.obj
 0003:000015d0       ?_Rank@?$_Arithmetic_traits@E@std@@2HB 006365d0     stdafx.obj
 0003:000015d4       ?_Rank@?$_Arithmetic_traits@F@std@@2HB 006365d4     stdafx.obj
 0003:000015d8       ?_Rank@?$_Arithmetic_traits@G@std@@2HB 006365d8     stdafx.obj
 0003:000015dc       ?_Rank@?$_Arithmetic_traits@H@std@@2HB 006365dc     stdafx.obj
 0003:000015e0       ?_Rank@?$_Arithmetic_traits@I@std@@2HB 006365e0     stdafx.obj
 0003:000015e4       ?_Rank@?$_Arithmetic_traits@J@std@@2HB 006365e4     stdafx.obj
 0003:000015e8       ?_Rank@?$_Arithmetic_traits@K@std@@2HB 006365e8     stdafx.obj
 0003:000015ec       ?_Rank@?$_Arithmetic_traits@_J@std@@2HB 006365ec     stdafx.obj
 0003:000015f0       ?_Rank@?$_Arithmetic_traits@_K@std@@2HB 006365f0     stdafx.obj
 0003:000015f4       ?_Rank@?$_Arithmetic_traits@M@std@@2HB 006365f4     stdafx.obj
 0003:000015f8       ?_Rank@?$_Arithmetic_traits@N@std@@2HB 006365f8     stdafx.obj
 0003:000015fc       ?_Rank@?$_Arithmetic_traits@O@std@@2HB 006365fc     stdafx.obj
 0003:00001600       ?collate@?$_Locbase@H@std@@2HB 00636600     stdafx.obj
 0003:00001604       ?ctype@?$_Locbase@H@std@@2HB 00636604     stdafx.obj
 0003:00001608       ?monetary@?$_Locbase@H@std@@2HB 00636608     stdafx.obj
 0003:0000160c       ?numeric@?$_Locbase@H@std@@2HB 0063660c     stdafx.obj
 0003:00001610       ?time@?$_Locbase@H@std@@2HB 00636610     stdafx.obj
 0003:00001614       ?messages@?$_Locbase@H@std@@2HB 00636614     stdafx.obj
 0003:00001618       ?all@?$_Locbase@H@std@@2HB 00636618     stdafx.obj
 0003:0000161c       ?none@?$_Locbase@H@std@@2HB 0063661c     stdafx.obj
 0003:00001620       ?skipws@?$_Iosb@H@std@@2W4_Fmtflags@12@B 00636620     stdafx.obj
 0003:00001624       ?unitbuf@?$_Iosb@H@std@@2W4_Fmtflags@12@B 00636624     stdafx.obj
 0003:00001628       ?uppercase@?$_Iosb@H@std@@2W4_Fmtflags@12@B 00636628     stdafx.obj
 0003:0000162c       ?showbase@?$_Iosb@H@std@@2W4_Fmtflags@12@B 0063662c     stdafx.obj
 0003:00001630       ?showpoint@?$_Iosb@H@std@@2W4_Fmtflags@12@B 00636630     stdafx.obj
 0003:00001634       ?showpos@?$_Iosb@H@std@@2W4_Fmtflags@12@B 00636634     stdafx.obj
 0003:00001638       ?left@?$_Iosb@H@std@@2W4_Fmtflags@12@B 00636638     stdafx.obj
 0003:0000163c       ?right@?$_Iosb@H@std@@2W4_Fmtflags@12@B 0063663c     stdafx.obj
 0003:00001640       ?internal@?$_Iosb@H@std@@2W4_Fmtflags@12@B 00636640     stdafx.obj
 0003:00001644       ?dec@?$_Iosb@H@std@@2W4_Fmtflags@12@B 00636644     stdafx.obj
 0003:00001648       ?oct@?$_Iosb@H@std@@2W4_Fmtflags@12@B 00636648     stdafx.obj
 0003:0000164c       ?hex@?$_Iosb@H@std@@2W4_Fmtflags@12@B 0063664c     stdafx.obj
 0003:00001650       ?scientific@?$_Iosb@H@std@@2W4_Fmtflags@12@B 00636650     stdafx.obj
 0003:00001654       ?fixed@?$_Iosb@H@std@@2W4_Fmtflags@12@B 00636654     stdafx.obj
 0003:00001658       ?hexfloat@?$_Iosb@H@std@@2W4_Fmtflags@12@B 00636658     stdafx.obj
 0003:0000165c       ?boolalpha@?$_Iosb@H@std@@2W4_Fmtflags@12@B 0063665c     stdafx.obj
 0003:00001660       ?_Stdio@?$_Iosb@H@std@@2W4_Fmtflags@12@B 00636660     stdafx.obj
 0003:00001664       ?adjustfield@?$_Iosb@H@std@@2W4_Fmtflags@12@B 00636664     stdafx.obj
 0003:00001668       ?basefield@?$_Iosb@H@std@@2W4_Fmtflags@12@B 00636668     stdafx.obj
 0003:0000166c       ?floatfield@?$_Iosb@H@std@@2W4_Fmtflags@12@B 0063666c     stdafx.obj
 0003:00001670       ?goodbit@?$_Iosb@H@std@@2W4_Iostate@12@B 00636670     stdafx.obj
 0003:00001674       ?eofbit@?$_Iosb@H@std@@2W4_Iostate@12@B 00636674     stdafx.obj
 0003:00001678       ?failbit@?$_Iosb@H@std@@2W4_Iostate@12@B 00636678     stdafx.obj
 0003:0000167c       ?badbit@?$_Iosb@H@std@@2W4_Iostate@12@B 0063667c     stdafx.obj
 0003:00001680       ?_Hardfail@?$_Iosb@H@std@@2W4_Iostate@12@B 00636680     stdafx.obj
 0003:00001684       ?in@?$_Iosb@H@std@@2W4_Openmode@12@B 00636684     stdafx.obj
 0003:00001688       ?out@?$_Iosb@H@std@@2W4_Openmode@12@B 00636688     stdafx.obj
 0003:0000168c       ?ate@?$_Iosb@H@std@@2W4_Openmode@12@B 0063668c     stdafx.obj
 0003:00001690       ?app@?$_Iosb@H@std@@2W4_Openmode@12@B 00636690     stdafx.obj
 0003:00001694       ?trunc@?$_Iosb@H@std@@2W4_Openmode@12@B 00636694     stdafx.obj
 0003:00001698       ?_Nocreate@?$_Iosb@H@std@@2W4_Openmode@12@B 00636698     stdafx.obj
 0003:0000169c       ?_Noreplace@?$_Iosb@H@std@@2W4_Openmode@12@B 0063669c     stdafx.obj
 0003:000016a0       ?binary@?$_Iosb@H@std@@2W4_Openmode@12@B 006366a0     stdafx.obj
 0003:000016a4       ?beg@?$_Iosb@H@std@@2W4_Seekdir@12@B 006366a4     stdafx.obj
 0003:000016a8       ?cur@?$_Iosb@H@std@@2W4_Seekdir@12@B 006366a8     stdafx.obj
 0003:000016ac       ?end@?$_Iosb@H@std@@2W4_Seekdir@12@B 006366ac     stdafx.obj
 0003:000016b4       ??_7ModelFiberValidator@@6B@ 006366b4     modelfibervalidator.obj
 0003:000016cc       ??_C@_0BE@PHNBBIEA@ModelFiberValidator?$AA@ 006366cc     modelfibervalidator.obj
 0003:000016e4       ??_C@_0DP@GLEAAHAC@isValid_GSE_end?3?5invalid?5destina@ 006366e4     modelfibervalidator.obj
 0003:00001730       ??_C@_0M@INDBIIPH@?5to?5region?$DN?$AA@ 00636730     modelfibervalidator.obj
 0003:00001740       ??_C@_0O@FDOPJHB@?0?5from?5nerve?$DN?$AA@ 00636740     modelfibervalidator.obj
 0003:00001750       ??_C@_0DK@DNOBCJEL@isValid_GSE_end?3?5invalid?5source?5@ 00636750     modelfibervalidator.obj
 0003:00001798       ??_C@_0EB@FHAOLKGG@isValid_GSA_begin?3?5invalid?5desti@ 00636798     modelfibervalidator.obj
 0003:000017e8       ??_C@_0DM@LFNPNGLA@isValid_GSA_begin?3?5invalid?5sourc@ 006367e8     modelfibervalidator.obj
 0003:00001830       ??_C@_0EG@HOIGILJL@isValid_GSA_afterbegin?3?5invalid?5@ 00636830     modelfibervalidator.obj
 0003:00001888       ??_C@_0EB@HBNICOON@isValid_GSA_afterbegin?3?5invalid?5@ 00636888     modelfibervalidator.obj
 0003:000018d8       ??_C@_0DP@GMHDAIGM@isValid_GVE_end?3?5invalid?5destina@ 006368d8     modelfibervalidator.obj
 0003:00001924       ??_C@_0DK@OCEKLANH@isValid_GVE_end?3?5invalid?5source?5@ 00636924     modelfibervalidator.obj
 0003:0000196c       ??_C@_08FBNEEHLC@ganglion?$AA@ 0063696c     modelfibervalidator.obj
 0003:00001978       ??_C@_0EF@HBPKKGHG@isValid_GVE_beforeend?3?5invalid?5d@ 00636978     modelfibervalidator.obj
 0003:000019d0       ??_C@_0EA@ILJIPFPN@isValid_GVE_beforeend?3?5invalid?5s@ 006369d0     modelfibervalidator.obj
 0003:00001a1c       ??_C@_07GJJOANJE@nucleus?$AA@ 00636a1c     modelfibervalidator.obj
 0003:00001a28       ??_C@_0EB@GEHJNDPH@isValid_SSA_begin?3?5invalid?5desti@ 00636a28     modelfibervalidator.obj
 0003:00001a78       ??_C@_0DM@ODOHPPFA@isValid_SSA_begin?3?5invalid?5sourc@ 00636a78     modelfibervalidator.obj
 0003:00001ac0       ??_C@_0EB@PLIIPHM@isValid_SVA_begin?3?5invalid?5desti@ 00636ac0     modelfibervalidator.obj
 0003:00001b10       ??_C@_0DM@LHMAMOAN@isValid_SVA_begin?3?5invalid?5sourc@ 00636b10     modelfibervalidator.obj
 0003:00001b58       ??_C@_0EG@CAJCFJNF@isValid_SVA_afterbegin?3?5invalid?5@ 00636b58     modelfibervalidator.obj
 0003:00001bb0       ??_C@_0EB@CJGOBLPH@isValid_SVA_afterbegin?3?5invalid?5@ 00636bb0     modelfibervalidator.obj
 0003:00001c04       ??_7ModelVerifier@@6B@     00636c04     modelverifier.obj
 0003:00001c1c       ??_C@_0O@POIOKGGC@ModelVerifier?$AA@ 00636c1c     modelverifier.obj
 0003:00001c2c       ??_C@_0BA@JEMFECHF@verifyMindModel?$AA@ 00636c2c     modelverifier.obj
 0003:00001c40       ??_C@_0N@JLCIFJHK@verifySpinal?$AA@ 00636c40     modelverifier.obj
 0003:00001c50       ??_C@_0O@CIDGJAOO@verifyMuscles?$AA@ 00636c50     modelverifier.obj
 0003:00001c60       ??_C@_0N@IGPEEIPN@verifyNerves?$AA@ 00636c60     modelverifier.obj
 0003:00001c70       ??_C@_0P@CEEAHLFG@verifyCircuits?$AA@ 00636c70     modelverifier.obj
 0003:00001c84       ??_C@_0BA@GBCMOHBD@verifyHierarchy?$AA@ 00636c84     modelverifier.obj
 0003:00001c98       ??_C@_0BN@NGBLPIF@verify?3?5VERIFY?5MIND?5SETUP?4?4?4?$AA@ 00636c98     modelverifier.obj
 0003:00001cbc       ??_C@_0CE@BAGLMHJN@checkCircuits?3?5CIRCUITS?5HAVE?5ERR@ 00636cbc     modelverifier_circuits.obj
 0003:00001ce8       ??_C@_0BP@LENNBDKI@checkCircuits?3?5CIRCUITS?5ARE?5OK?$AA@ 00636ce8     modelverifier_circuits.obj
 0003:00001d10       ??_C@_0CC@HBMADFEG@checkCircuits?3?5verify?5circuit?5id@ 00636d10     modelverifier_circuits.obj
 0003:00001d38       ??_C@_0CC@FICLGLMK@checkCircuits?3?5CHECK?5CIRCUITS?5?4?4@ 00636d38     modelverifier_circuits.obj
 0003:00001d60       ??_C@_0BI@EAFBDHJI@?5mapped?5from?5component?$DN?$AA@ 00636d60     modelverifier_circuits.obj
 0003:00001d7c       ??_C@_0DA@DOEOMNJ@checkCircuits_verifyComponents?3?5@ 00636d7c     modelverifier_circuits.obj
 0003:00001db8       ??_C@_0DN@HANEAMMM@checkCircuits_verifyCircuitLink?3@ 00636db8     modelverifier_circuits.obj
 0003:00001e04       ??_C@_0N@KHKHNHML@?5to?5element?$DN?$AA@ 00636e04     modelverifier_circuits.obj
 0003:00001e14       ??_C@_0BK@MKEEIFJG@?0?5from?5circuit?5component?$DN?$AA@ 00636e14     modelverifier_circuits.obj
 0003:00001e38       ??_C@_0EI@NPCLBAFK@checkCircuits_verifyCircuitLink?3@ 00636e38     modelverifier_circuits.obj
 0003:00001e90       ??_C@_0BI@GAEOAAHE@index?5?$DO?$DN?50?5?$CG?$CG?5index?5?$DM?5a?$AA@ 00636e90     modelverifier_circuits.obj
 0003:00001eb0       ??_C@_0EE@CCEKGIJJ@d?3?2projects?2ai2svn?2root?2trunk_hl@ 00636eb0     modelverifier_circuits.obj
 0003:00001f04       ??_C@_0CO@LCPBDIBL@MapStringToString?3?3getByIndex?5?9?5@ 00636f04     modelverifier_circuits.obj
 0003:00001f3c       ??_C@_0CF@GFOFLGLH@checkHierarchy?3?5HIERARCHY?5HAS?5ER@ 00636f3c     modelverifier_hmind.obj
 0003:00001f68       ??_C@_0CA@BOMPOCGP@checkHierarchy?3?5HIERARCHY?5IS?5OK?$AA@ 00636f68     modelverifier_hmind.obj
 0003:00001f90       ??_C@_0CD@NMPAAAHK@checkHierarchy?3?5CHECK?5HIERARCHY?4@ 00636f90     modelverifier_hmind.obj
 0003:00001fbc       ??_C@_07IAKNDAGP@?0?5name?$DN?$AA@ 00636fbc     modelverifier_hmind.obj
 0003:00001fc8       ??_C@_0CO@BHDOKICJ@?5?9?5region?5has?5no?5complete?5mappin@ 00636fc8     modelverifier_hmind.obj
 0003:00002000       ??_C@_0CA@GGAMOMON@checkHierarchy_verifyChild?3?5id?$DN?$AA@ 00637000     modelverifier_hmind.obj
 0003:00002028       ??_C@_0BN@NKCAIOMK@?5?9?5hierarchy?5region?5with?5id?$DN?$AA@ 00637028     modelverifier_hmind.obj
 0003:0000204c       ??_C@_0BN@MFBJKFFF@?5is?5not?5mapped?5to?5mind?5model?$AA@ 0063704c     modelverifier_hmind.obj
 0003:00002070       ??_C@_0BN@LAEBIEHJ@checkHierarchy_verifyChild?3?5?$AA@ 00637070     modelverifier_hmind.obj
 0003:00002094       ??_C@_0M@CEFLAIFA@check?5item?$DN?$AA@ 00637094     modelverifier_hmind.obj
 0003:000020a4       ??_C@_0CG@IHIECLAP@?5?9?5is?5not?5found?5in?5muscles?5and?5g@ 006370a4     modelverifier_hmind.obj
 0003:000020d4       ??_C@_0CK@GGJNOKKM@checkHierarchy_verifyConnectors?3@ 006370d4     modelverifier_hmind.obj
 0003:00002108       ??_C@_0CA@ONCJKFOA@?5?9?5unknown?5target?5connector?5id?$DN?$AA@ 00637108     modelverifier_hmind.obj
 0003:00002130       ??_C@_0CM@LKNAJDBM@checkHierarchy_verifyConnectors?3@ 00637130     modelverifier_hmind.obj
 0003:00002164       ??_C@_0CH@BEDEENIA@MapStringToClass?3?3add?5?9?5duplicat@ 00637164     modelverifier_hmind.obj
 0003:00002194       ??_C@_0CG@GMMADGGG@checkMindModel?3?5MIND?5MODEL?5HAS?5E@ 00637194     modelverifier_mind.obj
 0003:000021c4       ??_C@_0CB@CGDLHJOE@checkMindModel?3?5MIND?5MODEL?5IS?5OK@ 006371c4     modelverifier_mind.obj
 0003:000021ec       ??_C@_0CF@PBNIIPB@checkMindModel?3?5CHECK?5MIND?5MODEL@ 006371ec     modelverifier_mind.obj
 0003:00002218       ??_C@_0BB@BFPLDOEI@?5link?5to?5region?$DN?$AA@ 00637218     modelverifier_mind.obj
 0003:0000222c       ??_C@_0CG@DEILCCFH@?5is?5not?5covered?5by?5circuit?5colle@ 0063722c     modelverifier_mind.obj
 0003:0000225c       ??_C@_0CL@GLEPIOLC@checkMindModel_verifyRegion?3?5mod@ 0063725c     modelverifier_mind.obj
 0003:00002290       ??_C@_0CF@GIDOHCBN@?5?9?5region?5is?5not?5mapped?5to?5hiera@ 00637290     modelverifier_mind.obj
 0003:000022bc       ??_C@_0BO@OBPNIOBC@checkMindModel_verifyRegion?3?5?$AA@ 006372bc     modelverifier_mind.obj
 0003:000022e0       ??_C@_0M@CBGFOOHP@?5connector?$DN?$AA@ 006372e0     modelverifier_mind.obj
 0003:000022f0       ??_C@_0BE@IPILBHLK@?5?9?5is?5not?5connected?$AA@ 006372f0     modelverifier_mind.obj
 0003:00002308       ??_C@_0BG@EOCCLGKE@?5has?5no?5output?5region?$AA@ 00637308     modelverifier_mind.obj
 0003:00002324       ??_C@_0BF@OMKHNIDG@?5has?5no?5input?5region?$AA@ 00637324     modelverifier_mind.obj
 0003:00002340       ??_C@_0CP@PGGGAMKP@checkMindModel_verifyLinkedConne@ 00637340     modelverifier_mind.obj
 0003:00002378       ??_C@_0CN@ILFKLDLP@checkMindModel_verifyRegionCircu@ 00637378     modelverifier_mind.obj
 0003:000023b0       ??_C@_05OMGAMCPJ@?5and?5?$AA@ 006373b0     modelverifier_mind.obj
 0003:000023b8       ??_C@_0CC@JOLKLPE@?5are?5connected?5in?5both?5direction@ 006373b8     modelverifier_mind.obj
 0003:000023e0       ??_C@_0CO@BIGFBKEJ@checkMindModel_verifyLinkDuplica@ 006373e0     modelverifier_mind.obj
 0003:00002418       ??_C@_04MKEOLIJC@?5to?5?$AA@ 00637418     modelverifier_mind.obj
 0003:00002420       ??_C@_0BB@PCMGGPMP@?5is?5duplicated?5?$CI?$AA@ 00637420     modelverifier_mind.obj
 0003:00002434       ??_C@_01KMDKNFGN@?1?$AA@   00637434     modelverifier_mind.obj
 0003:00002438       ??_C@_0DI@OGJHBLNN@checkMindModel_verifyRegionCircu@ 00637438     modelverifier_mind.obj
 0003:0000247c       ??_C@_01JOAMLHOP@?9?$AA@   0063747c     modelverifier_mind.obj
 0003:00002480       ??_C@_0CN@PLPPDAGN@MapStringToClass?3?3getByIndex?5?9?5i@ 00637480     modelverifier_mind.obj
 0003:000024b8       ??_C@_0CC@NJPGAGD@checkMuscles?3?5MUSCLES?5HAVE?5ERROR@ 006374b8     modelverifier_muscles.obj
 0003:000024e0       ??_C@_0BN@ELKNMEMF@checkMuscles?3?5MUSCLES?5ARE?5OK?$AA@ 006374e0     modelverifier_muscles.obj
 0003:00002504       ??_C@_0CA@NOLNMOJI@checkMuscles?3?5verify?5muscle?5id?$DN?$AA@ 00637504     modelverifier_muscles.obj
 0003:0000252c       ??_C@_0BP@MAFDGCIC@checkNerves?3?5CHECK?5MUSCLES?5?4?4?4?$AA@ 0063752c     modelverifier_muscles.obj
 0003:00002554       ??_C@_08POFBHDIN@?5?9?5cdef?$DN?$AA@ 00637554     modelverifier_muscles.obj
 0003:00002560       ??_C@_0BN@JFKLNCLK@?5is?5not?5listed?5in?5connectors?$AA@ 00637560     modelverifier_muscles.obj
 0003:00002584       ??_C@_01JLIPDDHJ@?3?$AA@   00637584     modelverifier_muscles.obj
 0003:00002588       ??_C@_07DLHCIBDH@default?$AA@ 00637588     modelverifier_muscles.obj
 0003:00002594       ??_C@_0BA@NDKJPFKL@?5?9?5muscle?5type?$DN?$AA@ 00637594     modelverifier_muscles.obj
 0003:000025a8       ??_C@_0CI@ENAJNANG@?5does?5not?5correspond?5to?5nerve?5mo@ 006375a8     modelverifier_muscles.obj
 0003:000025d8       ??_C@_05MHEMCDBN@gland?$AA@ 006375d8     modelverifier_muscles.obj
 0003:000025e0       ??_C@_0P@LDPKAGHH@visceral?5motor?$AA@ 006375e0     modelverifier_muscles.obj
 0003:000025f4       ??_C@_0O@IOMBBCND@cranial?5motor?$AA@ 006375f4     modelverifier_muscles.obj
 0003:00002604       ??_C@_07JMJHGOCK@cranial?$AA@ 00637604     modelverifier_muscles.obj
 0003:00002610       ??_C@_0BG@GPEPHGJ@parasympathetic?5motor?$AA@ 00637610     modelverifier_muscles.obj
 0003:0000262c       ??_C@_0P@OCAGJJBC@extensor?5motor?$AA@ 0063762c     modelverifier_muscles.obj
 0003:00002640       ??_C@_08DBKDJOHJ@extensor?$AA@ 00637640     modelverifier_muscles.obj
 0003:0000264c       ??_C@_0BC@GHHBKOOG@sympathetic?5motor?$AA@ 0063764c     modelverifier_muscles.obj
 0003:00002664       ??_C@_0N@BNNPNP@flexor?5motor?$AA@ 00637664     modelverifier_muscles.obj
 0003:00002674       ??_C@_06FEBIHBFI@flexor?$AA@ 00637674     modelverifier_muscles.obj
 0003:0000267c       ??_C@_08OOEHFMHL@?0?5nerve?$DN?$AA@ 0063767c     modelverifier_muscles.obj
 0003:00002688       ??_C@_0BE@FPKCPBMO@?5?9?5is?5unknown?5nerve?$AA@ 00637688     modelverifier_muscles.obj
 0003:000026a0       ??_C@_0CC@EGJNPCAF@checkMuscles_verifyNerve?3?5muscle@ 006376a0     modelverifier_muscles.obj
 0003:000026c8       ??_C@_0BA@CMJCIBLG@?0?5invalid?5type?$DN?$AA@ 006376c8     modelverifier_muscles.obj
 0003:000026dc       ??_C@_0BC@EMDNLAEH@?0?5type?5is?5not?5set?$AA@ 006376dc     modelverifier_muscles.obj
 0003:000026f4       ??_C@_0CD@PKDPEJLE@checkMuscles_verifyNerves?3?5muscl@ 006376f4     modelverifier_muscles.obj
 0003:00002720       ??_C@_03OCDMGJON@SVE?$AA@  00637720     modelverifier_nerves.obj
 0003:00002724       ??_C@_0BA@IIGKNPNF@special?5sensory?$AA@ 00637724     modelverifier_nerves.obj
 0003:00002738       ??_C@_03IAJLGOAC@SSA?$AA@  00637738     modelverifier_nerves.obj
 0003:0000273c       ??_C@_03DNEHKJCF@GVE?$AA@  0063773c     modelverifier_nerves.obj
 0003:00002740       ??_C@_0BC@OLBGKAIF@autonomic?5sensory?$AA@ 00637740     modelverifier_nerves.obj
 0003:00002758       ??_C@_03FJCLGMCB@GVA?$AA@  00637758     modelverifier_nerves.obj
 0003:0000275c       ??_C@_03IGFAKMOJ@SVA?$AA@  0063775c     modelverifier_nerves.obj
 0003:00002760       ??_C@_0BA@FPMOCBMK@general?5sensory?$AA@ 00637760     modelverifier_nerves.obj
 0003:00002774       ??_C@_03FPOAKOMK@GSA?$AA@  00637774     modelverifier_nerves.obj
 0003:00002778       ??_C@_03DLIMGLMO@GSE?$AA@  00637778     modelverifier_nerves.obj
 0003:0000277c       ??_C@_0CA@POMKBIMK@checkNerves?3?5NERVES?5HAVE?5ERRORS?$AA@ 0063777c     modelverifier_nerves.obj
 0003:000027a4       ??_C@_0BL@BPBHPDGI@checkNerves?3?5NERVES?5ARE?5OK?$AA@ 006377a4     modelverifier_nerves.obj
 0003:000027c4       ??_C@_0BO@KLKIGIEM@checkNerves?3?5verify?5nerve?5id?$DN?$AA@ 006377c4     modelverifier_nerves.obj
 0003:000027e8       ??_C@_0BO@LGAOKHCM@checkNerves?3?5CHECK?5NERVES?5?4?4?4?$AA@ 006377e8     modelverifier_nerves.obj
 0003:0000280c       ??_C@_06EBAKCAJC@?0?5dst?$DN?$AA@ 0063780c     modelverifier_nerves.obj
 0003:00002814       ??_C@_0BO@DCLHEECL@checkNerves?3?5check?5fiber?5src?$DN?$AA@ 00637814     modelverifier_nerves.obj
 0003:00002838       ??_C@_0CK@MHKJONOM@?5is?5not?5found?5in?5childs?5or?5fiber@ 00637838     modelverifier_nerves.obj
 0003:0000286c       ??_C@_0DE@PDLOPDCC@checkNerves_verifyModalityByChil@ 0063786c     modelverifier_nerves.obj
 0003:000028ac       ??_C@_0CG@NHJIBFKN@?5is?5not?5covered?5by?5modality?5in?5n@ 006378ac     modelverifier_nerves.obj
 0003:000028dc       ??_C@_0DA@OGHGFLGF@checkNerves_verifyModalityByChil@ 006378dc     modelverifier_nerves.obj
 0003:00002918       ??_C@_0BI@OIEHMAHE@?5is?5not?5found?5in?5nerve?$DN?$AA@ 00637918     modelverifier_nerves.obj
 0003:00002934       ??_C@_0DK@HCFCEIFE@checkNerves_verifyModalityByChil@ 00637934     modelverifier_nerves.obj
 0003:0000297c       ??_C@_04NBFCGMPH@root?$AA@ 0063797c     modelverifier_nerves.obj
 0003:00002984       ??_C@_0BL@HFPDDCLH@?5?9?5is?5not?5mapped?5to?5region?$AA@ 00637984     modelverifier_nerves.obj
 0003:000029a4       ??_C@_07JJOOPMEL@?0?5comp?$DN?$AA@ 006379a4     modelverifier_nerves.obj
 0003:000029b0       ??_C@_0BN@DCIFBINA@?5?9?5is?5not?5found?5in?5hierarchy?$AA@ 006379b0     modelverifier_nerves.obj
 0003:000029d4       ??_C@_0BH@NFMDNENJ@checkFiberComp?3?5nerve?$DN?$AA@ 006379d4     modelverifier_nerves.obj
 0003:000029f0       ??_C@_06DCBPLJJA@?0?5src?$DN?$AA@ 006379f0     modelverifier_nerves.obj
 0003:000029f8       ??_C@_0BK@PEHLFINK@?5?9?5is?5not?5covered?5by?5mind?$AA@ 006379f8     modelverifier_nerves.obj
 0003:00002a18       ??_C@_0CA@PGEFJJHN@checkNerves_verifyLinks?3?5nerve?$DN?$AA@ 00637a18     modelverifier_nerves.obj
 0003:00002a40       ??_C@_0BD@MIFFKBBG@?5?9?5is?5unknown?5type?$AA@ 00637a40     modelverifier_nerves.obj
 0003:00002a58       ??_C@_07NAADECJD@?0?5type?$DN?$AA@ 00637a58     modelverifier_nerves.obj
 0003:00002a64       ??_C@_0CC@IONANLPL@?5?9?5is?5incompatible?5with?5modality@ 00637a64     modelverifier_nerves.obj
 0003:00002a8c       ??_C@_0BH@FLHHPPCH@checkFiberType?3?5nerve?$DN?$AA@ 00637a8c     modelverifier_nerves.obj
 0003:00002aa8       ??_C@_0DK@MCMLPBNM@checkNerves_verifyFiberChain?3?5no@ 00637aa8     modelverifier_nerves.obj
 0003:00002af0       ??_C@_0O@DNAGCBMG@value?5?$CB?$DN?5NULL?$AA@ 00637af0     modelverifier_nerves.obj
 0003:00002b00       ??_C@_0BJ@DDHBHADD@value?5should?5not?5be?5NULL?$AA@ 00637b00     modelverifier_nerves.obj
 0003:00002b20       ??_C@_0CE@PBMNHEFE@checkSpinal?3?5SPINAL?5CORD?5HAS?5ERR@ 00637b20     modelverifier_spinal.obj
 0003:00002b4c       ??_C@_0BP@EIFALEHP@checkSpinal?3?5SPINAL?5CORD?5IS?5OK?$AA@ 00637b4c     modelverifier_spinal.obj
 0003:00002b74       ??_C@_0DM@IBIDNEC@checkSpinal_verifyEndingData?3?5no@ 00637b74     modelverifier_spinal.obj
 0003:00002bbc       ??_C@_0DM@OOECKNNA@checkSpinal_verifyEndingData?3?5no@ 00637bbc     modelverifier_spinal.obj
 0003:00002c04       ??_C@_0O@KOPDIJNO@?5in?5fiber?5id?$DN?$AA@ 00637c04     modelverifier_spinal.obj
 0003:00002c14       ??_C@_0CN@MGCEHJJA@checkSpinal_verifyFiberData?3?5unk@ 00637c14     modelverifier_spinal.obj
 0003:00002c4c       ??_C@_0DK@CMGNJHFO@checkSpinal_verifyFiberData?3?5no?5@ 00637c4c     modelverifier_spinal.obj
 0003:00002c94       ??_C@_0DL@PGIHEOE@checkSpinal_verifyFiberData?3?5no?5@ 00637c94     modelverifier_spinal.obj
 0003:00002cdc       ??_C@_0DA@EINGMCMB@checkSpinal_verifyTractPathData?3@ 00637cdc     modelverifier_spinal.obj
 0003:00002d18       ??_C@_0BA@ICHFHHBL@?5in?5tract?5name?$DN?$AA@ 00637d18     modelverifier_spinal.obj
 0003:00002d2c       ??_C@_0DB@KFKGBIGK@checkSpinal_verifyTractPathData?3@ 00637d2c     modelverifier_spinal.obj
 0003:00002d68       ??_C@_0DO@KKAGLLKB@checkSpinal_verifyTractPathData?3@ 00637d68     modelverifier_spinal.obj
 0003:00002db4       ??_C@_0DP@CCOMPAEF@checkSpinal_verifyTractPathData?3@ 00637db4     modelverifier_spinal.obj
 0003:00002e04       ??_7WikiAreaPages@@6B@     00637e04     wikiareapages.obj
 0003:00002e1c       ??_C@_0O@MJHJIDGF@WikiAreaPages?$AA@ 00637e1c     wikiareapages.obj
 0003:00002e2c       ??_C@_0BJ@EPPDOHCO@skip?5creating?5area?5pages?$AA@ 00637e2c     wikiareapages.obj
 0003:00002e4c       ??_C@_0P@JFOMIBKN@Local?5Circuits?$AA@ 00637e4c     wikiareapages.obj
 0003:00002e60       ??_C@_03KAOICIBD@?5?$HM?$HM?$AA@ 00637e60     wikiareapages.obj
 0003:00002e64       ??_C@_02KEGNLNML@?0?5?$AA@ 00637e64     wikiareapages.obj
 0003:00002e68       ??_C@_04BBJKINFE@?5?$HM?$HM?5?$AA@ 00637e68     wikiareapages.obj
 0003:00002e70       ??_C@_03DHDNIKFB@?$HM?$HM?5?$AA@ 00637e70     wikiareapages.obj
 0003:00002e74       ??_C@_0CC@KOFLABGD@?$HM?$HM?5?$CKID?$CK?5?$HM?$HM?5?$CKName?$CK?5?$HM?$HM?5?$CKRegions?$CK?5?$HM@ 00637e74     wikiareapages.obj
 0003:00002e9c       ??_C@_0L@FCEHFOOH@References?$AA@ 00637e9c     wikiareapages.obj
 0003:00002eac       ??_C@_04PIHAGPEM@?5?5?$CK?5?$AA@ 00637eac     wikiareapages.obj
 0003:00002eb4       ??_C@_07NFANNNEC@UNKNOWN?$AA@ 00637eb4     wikiareapages.obj
 0003:00002ec0       ??_C@_0BE@JGGGOBJC@Thirdparty?5Circuits?$AA@ 00637ec0     wikiareapages.obj
 0003:00002ed8       ??_C@_01LFCBOECM@?4?$AA@   00637ed8     wikiareapages.obj
 0003:00002edc       ??_C@_05JIIMCFOI@?$CF3?43d?$AA@ 00637edc     wikiareapages.obj
 0003:00002ee3       ??_C@_00CNPNBAHC@?$AA@     00637ee3     wikiareapages.obj
 0003:00002ee4       ??_C@_01CLKCMJKC@?5?$AA@   00637ee4     wikiareapages.obj
 0003:00002ee8       ??_C@_02PBFOLPKM@?$FN?5?$AA@ 00637ee8     wikiareapages.obj
 0003:00002eec       ??_C@_05CGNNPJEL@?5?5?$CK?5?$FL?$AA@ 00637eec     wikiareapages.obj
 0003:00002ef4       ??_C@_0M@FBCDPLLA@?5Reference?$FN?$AA@ 00637ef4     wikiareapages.obj
 0003:00002f04       ??_C@_07IGINCMJB@?9?5see?5?$FL?$AA@ 00637f04     wikiareapages.obj
 0003:00002f10       ??_C@_0BE@GFMEJELG@?$CIunknown?5reference?$CJ?$AA@ 00637f10     wikiareapages.obj
 0003:00002f28       ??_C@_03DINCLBKA@?5?$DN?$DN?$AA@ 00637f28     wikiareapages.obj
 0003:00002f2c       ??_C@_03GFMNFCPO@?$DN?$DN?5?$AA@ 00637f2c     wikiareapages.obj
 0003:00002f30       ??_C@_04GPMDFGEJ@type?$AA@ 00637f30     wikiareapages.obj
 0003:00002f38       ??_C@_07EFMBDOBA@service?$AA@ 00637f38     wikiareapages.obj
 0003:00002f44       ??_C@_08HFFPPCHF@function?$AA@ 00637f44     wikiareapages.obj
 0003:00002f50       ??_C@_05MJPCMENP@notes?$AA@ 00637f50     wikiareapages.obj
 0003:00002f58       ??_C@_0FM@ICIGLJAJ@?$HM?$HM?5?$CKComponent?5ID?$CK?5?$HM?$HM?5?$CKComponent?5@ 00637f58     wikiareapages.obj
 0003:00002fc8       ??_C@_0CI@JJALBMAL@?$CKExternal?5Outbound?5Region?5Connec@ 00637fc8     wikiareapages.obj
 0003:00002ff8       ??_C@_0CH@BNFPOANM@?$CKExternal?5Inbound?5Region?5Connect@ 00637ff8     wikiareapages.obj
 0003:00003028       ??_C@_0BP@FHKHDDIF@?$CKInternal?5Region?5Connections?3?$CK?$AA@ 00638028     wikiareapages.obj
 0003:00003050       ??_C@_0BD@FHEKHICD@?5?5?$CK?5no?5connections?$AA@ 00638050     wikiareapages.obj
 0003:00003068       ??_C@_01IPJKGB@?$CD?$AA@   00638068     wikiareapages.obj
 0003:0000306c       ??_C@_02NHMFIKCF@?$CD2?$AA@ 0063806c     wikiareapages.obj
 0003:00003070       ??_C@_02PMOINJOG@?$CD1?$AA@ 00638070     wikiareapages.obj
 0003:00003078       ??_C@_0EC@COAHMEIJ@?$HM?$HM?5?$CKSource?5Region?$CK?5?$HM?$HM?5?$CKTarget?5Re@ 00638078     wikiareapages.obj
 0003:000030c8       ??_C@_06JDLPNBJJ@?5?$HM?$HM?5?$HM?$HM?$AA@ 006380c8     wikiareapages.obj
 0003:000030d0       ??_C@_0BA@BOKEJMOE@?$HM?$HM?5?$HM?$HM?5?$HM?$HM?5?$HM?$HM?5?$HM?$HM?5?$AA@ 006380d0     wikiareapages.obj
 0003:000030e4       ??_C@_0BK@LCHLLNOC@?$DM?1font?$DO?5?$HM?$HM?5?$HM?$HM?5?$HM?$HM?5?$HM?$HM?5?$HM?$HM?5?$HM?$HM?$AA@ 006380e4     wikiareapages.obj
 0003:00003104       ??_C@_0BG@FPGCPAOE@?$HM?$HM?5?$DMfont?5color?$DN?$CCred?$CC?$DO?$AA@ 00638104     wikiareapages.obj
 0003:00003120       ??_C@_0EM@KDBPIIBK@?$HM?$HM?5?$CKTarget?5Area?$CK?5?$HM?$HM?5?$CKLocal?5Regio@ 00638120     wikiareapages.obj
 0003:0000317c       ??_C@_0BE@ECLGNACK@?$CK?5?$HM?$HM?5?$CKReference?$CK?5?$HM?$HM?$AA@ 0063817c     wikiareapages.obj
 0003:00003198       ??_C@_0EM@JLGMEPPG@?$HM?$HM?5?$CKSource?5Area?$CK?5?$HM?$HM?5?$CKLocal?5Regio@ 00638198     wikiareapages.obj
 0003:000031f4       ??_C@_09MILONDLI@Connector?$AA@ 006381f4     wikiareapages.obj
 0003:00003200       ??_C@_04KOACHJEN@Type?$AA@ 00638200     wikiareapages.obj
 0003:00003208       ??_C@_09HKMIFAMI@?$DM?1b?$DO?$DMbr?1?$DO?$AA@ 00638208     wikiareapages.obj
 0003:00003214       ??_C@_03GONAGDMJ@?$DMb?$DO?$AA@ 00638214     wikiareapages.obj
 0003:00003218       ??_C@_08MNJEMMIP@effector?$AA@ 00638218     wikiareapages.obj
 0003:00003224       ??_C@_06OGCACFOJ@sensor?$AA@ 00638224     wikiareapages.obj
 0003:0000322c       ??_C@_01CELHOKLL@?$HN?$AA@ 0063822c     wikiareapages.obj
 0003:00003230       ??_C@_06ILEHGJOF@?$CC?5?9?$DO?5?$CC?$AA@ 00638230     wikiareapages.obj
 0003:00003238       ??_C@_02JFPOBKNJ@?7?$HN?$AA@ 00638238     wikiareapages.obj
 0003:0000323c       ??_C@_01ICJEACDI@?$DL?$AA@ 0063823c     wikiareapages.obj
 0003:00003240       ??_C@_01LBDDMOBJ@?$FN?$AA@ 00638240     wikiareapages.obj
 0003:00003244       ??_C@_02GBLMOEJC@?5?$FL?$AA@ 00638244     wikiareapages.obj
 0003:00003248       ??_C@_01PPODPGHN@?$DO?$AA@ 00638248     wikiareapages.obj
 0003:0000324c       ??_C@_09FLDOBFDK@?0?5label?$DN?$DM?$AA@ 0063824c     wikiareapages.obj
 0003:00003258       ??_C@_01BJJEKLCA@?$CC?$AA@ 00638258     wikiareapages.obj
 0003:0000325c       ??_C@_02KINNFLEC@?7?$CC?$AA@ 0063825c     wikiareapages.obj
 0003:00003260       ??_C@_06BKOLNEFJ@?$DM?1b?$DO?$DO?$DL?$AA@ 00638260     wikiareapages.obj
 0003:00003268       ??_C@_0M@LHLOELAC@?7label?$DN?$DM?$DMb?$DO?$AA@ 00638268     wikiareapages.obj
 0003:00003278       ??_C@_02PEDIMADA@?5?$HL?$AA@ 00638278     wikiareapages.obj
 0003:0000327c       ??_C@_0BD@MNEKJHAC@?7subgraph?5cluster_?$AA@ 0063827c     wikiareapages.obj
 0003:00003294       ??_C@_0BA@MNLGMDAH@?7compound?$DNtrue?$DL?$AA@ 00638294     wikiareapages.obj
 0003:000032a8       ??_C@_03CAAGKBIL@?$CC?5?$HL?$AA@ 006382a8     wikiareapages.obj
 0003:000032ac       ??_C@_09MOHHIPMA@digraph?5?$CC?$AA@ 006382ac     wikiareapages.obj
 0003:000032b8       ??_C@_01IHBHIGKO@?0?$AA@   006382b8     wikiareapages.obj
 0003:000032bc       ??_C@_0M@IPKJFOEB@springgreen?$AA@ 006382bc     wikiareapages.obj
 0003:000032cc       ??_C@_06CDHFECOP@color?$DN?$AA@ 006382cc     wikiareapages.obj
 0003:000032d4       ??_C@_04BBDFLMDN@?5?9?$DO?5?$AA@ 006382d4     wikiareapages.obj
 0003:000032dc       ??_C@_01GPOEFGEJ@?7?$AA@   006382dc     wikiareapages.obj
 0003:000032e0       ??_C@_03FKMOGBDA@?$CC?3?$CC?$AA@ 006382e0     wikiareapages.obj
 0003:000032e4       ??_C@_0BE@FELKBGF@?7?7?$DM?1TR?$DO?$DM?1TABLE?$DO?$DO?5?$FN?$DL?$AA@ 006382e4     wikiareapages.obj
 0003:000032fc       ??_C@_0M@ILGNHIKI@?$CC?5BGCOLOR?$DN?$CC?$AA@ 006382fc     wikiareapages.obj
 0003:0000330c       ??_C@_02HKLCKPBO@?$CC?$DO?$AA@ 0063830c     wikiareapages.obj
 0003:00003310       ??_C@_05MCNIHML@?$DM?1TD?$DO?$AA@ 00638310     wikiareapages.obj
 0003:00003318       ??_C@_0N@FCFGCDAD@?7?7?$DMTD?5PORT?$DN?$CC?$AA@ 00638318     wikiareapages.obj
 0003:00003328       ??_C@_0EI@EOHNFAKJ@?7?7?$DMTABLE?5BORDER?$DN?$CC0?$CC?5CELLBORDER?$DN?$CC@ 00638328     wikiareapages.obj
 0003:00003380       ??_C@_0CI@PKNOOKIJ@?$CC?5?$FL?5shape?$DNbox?0?5style?$DNdotted?5?0?5la@ 00638380     wikiareapages.obj
 0003:000033b0       ??_C@_02HMFFLFL@?$CC?$DL?$AA@ 006383b0     wikiareapages.obj
 0003:000033b4       ??_C@_08PBMPIBJL@?7label?$DN?$CC?$AA@ 006383b4     wikiareapages.obj
 0003:000033c0       ??_C@_01IDAFKMJL@_?$AA@    006383c0     wikiareapages.obj
 0003:000033c4       ??_C@_0BP@PEJPGLHI@?7?1?$CK?5external?5outbound?5links?5?$CK?1?$AA@ 006383c4     wikiareapages.obj
 0003:000033ec       ??_C@_0BJ@MOGKLJDG@?7label?$DN?$DM?$DMb?$DOOutputs?$DM?1b?$DO?$DO?$DL?$AA@ 006383ec     wikiareapages.obj
 0003:0000340c       ??_C@_0BL@PLHMHEOK@?7subgraph?5cluster_ExtOut?5?$HL?$AA@ 0063840c     wikiareapages.obj
 0003:0000342c       ??_C@_0BO@LAGNKHAE@?7?1?$CK?5external?5inbound?5links?5?$CK?1?$AA@ 0063842c     wikiareapages.obj
 0003:00003450       ??_C@_0BI@EHLJNOOC@?7label?$DN?$DM?$DMb?$DOInputs?$DM?1b?$DO?$DO?$DL?$AA@ 00638450     wikiareapages.obj
 0003:0000346c       ??_C@_0BK@FFENAACG@?7subgraph?5cluster_ExtIn?5?$HL?$AA@ 0063846c     wikiareapages.obj
 0003:0000348c       ??_C@_07LGFKBKFE@Outputs?$AA@ 0063848c     wikiareapages.obj
 0003:00003498       ??_C@_06HDCHCENJ@Inputs?$AA@ 00638498     wikiareapages.obj
 0003:000034a0       ??_C@_03KJGMBMID@OUT?$AA@  006384a0     wikiareapages.obj
 0003:000034a4       ??_C@_02BBAPPCCJ@IN?$AA@   006384a4     wikiareapages.obj
 0003:000034a8       ??_C@_0CI@FGHNKBPO@MapStringToString?3?3add?5?9?5duplica@ 006384a8     wikiareapages.obj
 0003:000034dc       ??_7WikiCircuitPages@@6B@  006384dc     wikicircuitpages.obj
 0003:000034f4       ??_C@_0N@JOFJNOII@WikiMainPage?$AA@ 006384f4     wikicircuitpages.obj
 0003:00003504       ??_C@_0BM@NKHJLLFO@skip?5creating?5circuit?5pages?$AA@ 00638504     wikicircuitpages.obj
 0003:00003528       ??_C@_0M@FIKONJJN@Connections?$AA@ 00638528     wikicircuitpages.obj
 0003:00003538       ??_C@_0L@GIIDFJPB@Components?$AA@ 00638538     wikicircuitpages.obj
 0003:00003548       ??_C@_0BA@CENCMDGB@?$DN?5Connections?5?$DN?$AA@ 00638548     wikicircuitpages.obj
 0003:0000355c       ??_C@_0P@GINPLBBB@?$DN?5Components?5?$DN?$AA@ 0063855c     wikicircuitpages.obj
 0003:00003570       ??_C@_0DO@EMDHDA@Circuit?5is?5part?5of?5aHuman?5target@ 00638570     wikicircuitpages.obj
 0003:000035bc       ??_C@_0DI@KDNLMKK@This?5page?5covers?5components?5and?5@ 006385bc     wikicircuitpages.obj
 0003:00003600       ??_C@_04ECGLBLOI@?9?9?9?9?$AA@ 00638600     wikicircuitpages.obj
 0003:00003608       ??_C@_0CK@ONMJEOLD@?$EA?$EA?$FLHome?$FN?5?9?$DO?5?$FLBiologicalLifeResea@ 00638608     wikicircuitpages.obj
 0003:0000363c       ??_C@_09GAEKDPII@?$CDsummary?5?$AA@ 0063863c     wikicircuitpages.obj
 0003:00003648       ??_C@_0FA@FEBELNBN@?$HM?$HM?5?$CKMind?5Area?$CK?5?$HM?$HM?5?$CKComponent?5ID?$CK@ 00638648     wikicircuitpages.obj
 0003:000036a8       ??_C@_0BD@ILEMDFPO@?7concentrate?$DNtrue?$DL?$AA@ 006386a8     wikicircuitpages.obj
 0003:000036c0       ??_C@_04PLLAMJDM@?4dot?$AA@ 006386c0     wikicircuitpages.obj
 0003:000036c8       ??_C@_08JHBCEFEJ@?4dot?4png?$AA@ 006386c8     wikicircuitpages.obj
 0003:000036d8       ??_7WikiHierarchyPage@@6B@ 006386d8     wikihierarchypage.obj
 0003:000036f0       ??_C@_0BC@IBKDJILE@WikiHierarchyPage?$AA@ 006386f0     wikihierarchypage.obj
 0003:00003708       ??_C@_03EOMNIGAA@CTX?$AA@  00638708     wikihierarchypage.obj
 0003:0000370c       ??_C@_0BN@PABHENIA@skip?5creating?5hierarchy?5page?$AA@ 0063870c     wikihierarchypage.obj
 0003:00003730       ??_C@_02KAOAMBHJ@?$CK?5?$AA@ 00638730     wikihierarchypage.obj
 0003:00003734       ??_C@_08LAPDCLGA@?5?$CIignore?$AA@ 00638734     wikihierarchypage.obj
 0003:00003740       ??_C@_0P@IGJCBLDG@?5?9?$DO?5?$FLBrainArea?$AA@ 00638740     wikihierarchypage.obj
 0003:00003754       ??_C@_03MHLONNLM@?5?$DN?5?$AA@ 00638754     wikihierarchypage.obj
 0003:00003758       ??_C@_02GFKOMOKH@?5?$CI?$AA@ 00638758     wikihierarchypage.obj
 0003:0000375c       ??_C@_01NBENCBCI@?$CK?$AA@ 0063875c     wikihierarchypage.obj
 0003:00003760       ??_C@_03LAPKHNFE@?$FN?5?$CK?$AA@ 00638760     wikihierarchypage.obj
 0003:00003764       ??_C@_01OHGJGJJP@?$FL?$AA@ 00638764     wikihierarchypage.obj
 0003:00003768       ??_C@_03KNEMCLFN@?$CK?3?5?$AA@ 00638768     wikihierarchypage.obj
 0003:0000376c       ??_C@_05BAPJLBPM@?5?5?$CK?5?$CK?$AA@ 0063876c     wikihierarchypage.obj
 0003:00003774       ??_C@_03LHKHDAA@BA?5?$AA@  00638774     wikihierarchypage.obj
